	.text
	.file	"cp.cafa79c01317cfc7-cgu.0"
	.section	".text._ZN103_$LT$alloc..vec..into_iter..IntoIter$LT$T$C$A$GT$$u20$as$u20$core..iter..traits..iterator..Iterator$GT$9size_hint17h911b821274acffc9E","ax",@progbits
	.p2align	4, 0x90
	.type	_ZN103_$LT$alloc..vec..into_iter..IntoIter$LT$T$C$A$GT$$u20$as$u20$core..iter..traits..iterator..Iterator$GT$9size_hint17h911b821274acffc9E,@function
_ZN103_$LT$alloc..vec..into_iter..IntoIter$LT$T$C$A$GT$$u20$as$u20$core..iter..traits..iterator..Iterator$GT$9size_hint17h911b821274acffc9E:
	.cfi_startproc
	subq	$72, %rsp
	.cfi_def_cfa_offset 80
	movq	%rsi, 24(%rsp)
	movq	%rdi, 32(%rsp)
	movq	%rdi, 40(%rsp)
	xorl	%eax, %eax
	testb	$1, %al
	jne	.LBB0_2
	movq	24(%rsp), %rax
	movq	24(%rax), %rcx
	movq	%rcx, 8(%rsp)
	movq	8(%rax), %rax
	movq	%rax, 16(%rsp)
	movb	$1, %al
	testb	$1, %al
	jne	.LBB0_4
	jmp	.LBB0_3
.LBB0_2:
	movq	24(%rsp), %rcx
	movq	24(%rcx), %rax
	movq	8(%rcx), %rcx
	subq	%rcx, %rax
	movq	%rax, 48(%rsp)
	jmp	.LBB0_6
.LBB0_3:
	leaq	.L__unnamed_1(%rip), %rdi
	leaq	.L__unnamed_2(%rip), %rdx
	movq	_ZN4core9panicking5panic17h90e84101c01877efE@GOTPCREL(%rip), %rax
	movl	$73, %esi
	callq	*%rax
.LBB0_4:
	movb	$1, %al
	testb	$1, %al
	jne	.LBB0_5
	jmp	.LBB0_3
.LBB0_5:
	movq	16(%rsp), %rcx
	movq	8(%rsp), %rax
	subq	%rcx, %rax
	movl	$24, %ecx
	xorl	%edx, %edx
	divq	%rcx
	movq	%rax, 48(%rsp)
.LBB0_6:
	movq	40(%rsp), %rax
	movq	32(%rsp), %rcx
	movq	48(%rsp), %rdx
	movq	48(%rsp), %rsi
	movq	%rsi, 64(%rsp)
	movq	$1, 56(%rsp)
	movq	%rdx, (%rcx)
	movq	56(%rsp), %rsi
	movq	64(%rsp), %rdx
	movq	%rsi, 8(%rcx)
	movq	%rdx, 16(%rcx)
	addq	$72, %rsp
	.cfi_def_cfa_offset 8
	retq
.Lfunc_end0:
	.size	_ZN103_$LT$alloc..vec..into_iter..IntoIter$LT$T$C$A$GT$$u20$as$u20$core..iter..traits..iterator..Iterator$GT$9size_hint17h911b821274acffc9E, .Lfunc_end0-_ZN103_$LT$alloc..vec..into_iter..IntoIter$LT$T$C$A$GT$$u20$as$u20$core..iter..traits..iterator..Iterator$GT$9size_hint17h911b821274acffc9E
	.cfi_endproc

	.section	".text._ZN106_$LT$core..ops..range..Range$LT$usize$GT$$u20$as$u20$core..slice..index..SliceIndex$LT$$u5b$T$u5d$$GT$$GT$5index17h8c515b9aeaa4f5aaE","ax",@progbits
	.p2align	4, 0x90
	.type	_ZN106_$LT$core..ops..range..Range$LT$usize$GT$$u20$as$u20$core..slice..index..SliceIndex$LT$$u5b$T$u5d$$GT$$GT$5index17h8c515b9aeaa4f5aaE,@function
_ZN106_$LT$core..ops..range..Range$LT$usize$GT$$u20$as$u20$core..slice..index..SliceIndex$LT$$u5b$T$u5d$$GT$$GT$5index17h8c515b9aeaa4f5aaE:
	.cfi_startproc
	subq	$72, %rsp
	.cfi_def_cfa_offset 80
	movq	%rdi, (%rsp)
	movq	%rsi, 8(%rsp)
	movq	%rdx, 16(%rsp)
	movq	%rcx, 24(%rsp)
	movq	%r8, 32(%rsp)
	cmpq	%rsi, %rdi
	ja	.LBB1_2
	movq	8(%rsp), %rax
	movq	24(%rsp), %rcx
	cmpq	%rcx, %rax
	ja	.LBB1_4
	jmp	.LBB1_3
.LBB1_2:
	movq	32(%rsp), %rdx
	movq	8(%rsp), %rsi
	movq	(%rsp), %rdi
	movq	_ZN4core5slice5index22slice_index_order_fail17h4b03447ddded9b9bE@GOTPCREL(%rip), %rax
	callq	*%rax
.LBB1_3:
	movq	(%rsp), %rdx
	movq	16(%rsp), %rcx
	movq	8(%rsp), %rax
	subq	%rdx, %rax
	addq	%rdx, %rcx
	movq	%rcx, 56(%rsp)
	movq	%rax, 64(%rsp)
	movq	56(%rsp), %rcx
	movq	64(%rsp), %rax
	movq	%rcx, 40(%rsp)
	movq	%rax, 48(%rsp)
	movq	40(%rsp), %rax
	movq	48(%rsp), %rdx
	addq	$72, %rsp
	.cfi_def_cfa_offset 8
	retq
.LBB1_4:
	.cfi_def_cfa_offset 80
	movq	32(%rsp), %rdx
	movq	24(%rsp), %rsi
	movq	8(%rsp), %rdi
	movq	_ZN4core5slice5index24slice_end_index_len_fail17h332fde1d59776f82E@GOTPCREL(%rip), %rax
	callq	*%rax
.Lfunc_end1:
	.size	_ZN106_$LT$core..ops..range..Range$LT$usize$GT$$u20$as$u20$core..slice..index..SliceIndex$LT$$u5b$T$u5d$$GT$$GT$5index17h8c515b9aeaa4f5aaE, .Lfunc_end1-_ZN106_$LT$core..ops..range..Range$LT$usize$GT$$u20$as$u20$core..slice..index..SliceIndex$LT$$u5b$T$u5d$$GT$$GT$5index17h8c515b9aeaa4f5aaE
	.cfi_endproc

	.section	".text._ZN111_$LT$alloc..vec..Vec$LT$T$GT$$u20$as$u20$alloc..vec..spec_from_iter_nested..SpecFromIterNested$LT$T$C$I$GT$$GT$9from_iter17hec73a410055f37e2E","ax",@progbits
	.p2align	4, 0x90
	.type	_ZN111_$LT$alloc..vec..Vec$LT$T$GT$$u20$as$u20$alloc..vec..spec_from_iter_nested..SpecFromIterNested$LT$T$C$I$GT$$GT$9from_iter17hec73a410055f37e2E,@function
_ZN111_$LT$alloc..vec..Vec$LT$T$GT$$u20$as$u20$alloc..vec..spec_from_iter_nested..SpecFromIterNested$LT$T$C$I$GT$$GT$9from_iter17hec73a410055f37e2E:
.Lfunc_begin0:
	.cfi_startproc
	.cfi_personality 155, DW.ref.rust_eh_personality
	.cfi_lsda 27, .Lexception0
	subq	$280, %rsp
	.cfi_def_cfa_offset 288
	movq	%rsi, 24(%rsp)
	movq	%rdi, 32(%rsp)
	movq	%rdi, 40(%rsp)
	movb	$1, 255(%rsp)
.Ltmp0:
	movq	_ZN73_$LT$std..env..Args$u20$as$u20$core..iter..traits..iterator..Iterator$GT$4next17h535c671db2e5e21bE@GOTPCREL(%rip), %rax
	leaq	72(%rsp), %rdi
	callq	*%rax
.Ltmp1:
	jmp	.LBB2_3
.LBB2_1:
	testb	$1, 255(%rsp)
	jne	.LBB2_17
	jmp	.LBB2_16
.LBB2_2:
.Ltmp2:
	movq	%rax, %rcx
	movl	%edx, %eax
	movq	%rcx, 256(%rsp)
	movl	%eax, 264(%rsp)
	jmp	.LBB2_1
.LBB2_3:
	movabsq	$-9223372036854775808, %rdx
	movl	$1, %eax
	xorl	%ecx, %ecx
	cmpq	%rdx, 72(%rsp)
	cmoveq	%rcx, %rax
	cmpq	$0, %rax
	jne	.LBB2_5
	movq	24(%rsp), %rdi
	movq	32(%rsp), %rax
	movq	$0, (%rax)
	movl	$8, %ecx
	movq	%rcx, 8(%rax)
	movq	$0, 16(%rax)
	callq	_ZN4core3ptr35drop_in_place$LT$std..env..Args$GT$17hbef0acb943d3eb18E
	jmp	.LBB2_6
.LBB2_5:
	movq	24(%rsp), %rsi
	movq	88(%rsp), %rax
	movq	%rax, 112(%rsp)
	movups	72(%rsp), %xmm0
	movaps	%xmm0, 96(%rsp)
.Ltmp3:
	movq	_ZN73_$LT$std..env..Args$u20$as$u20$core..iter..traits..iterator..Iterator$GT$9size_hint17h1f179a76bfef4daaE@GOTPCREL(%rip), %rax
	leaq	128(%rsp), %rdi
	callq	*%rax
.Ltmp4:
	jmp	.LBB2_9
.LBB2_6:
	movq	40(%rsp), %rax
	addq	$280, %rsp
	.cfi_def_cfa_offset 8
	retq
.LBB2_7:
	.cfi_def_cfa_offset 288
.Ltmp10:
	leaq	96(%rsp), %rdi
	callq	_ZN4core3ptr42drop_in_place$LT$alloc..string..String$GT$17hbd640e9f4100243dE
.Ltmp11:
	jmp	.LBB2_1
.LBB2_8:
.Ltmp9:
	movq	%rax, %rcx
	movl	%edx, %eax
	movq	%rcx, 256(%rsp)
	movl	%eax, 264(%rsp)
	jmp	.LBB2_7
.LBB2_9:
	movq	128(%rsp), %rax
	incq	%rax
	movq	$-1, %rcx
	cmoveq	%rcx, %rax
	movq	%rax, 272(%rsp)
	movq	272(%rsp), %rsi
.Ltmp5:
	movl	$4, %edi
	callq	_ZN4core3cmp6max_by17h3a6b77d1f0d9f2c0E
.Ltmp6:
	movq	%rax, 16(%rsp)
	jmp	.LBB2_10
.LBB2_10:
.Ltmp7:
	movq	16(%rsp), %rdi
	xorl	%esi, %esi
	callq	_ZN5alloc7raw_vec19RawVec$LT$T$C$A$GT$11allocate_in17h6c967b053494c5faE
.Ltmp8:
	movq	%rdx, (%rsp)
	movq	%rax, 8(%rsp)
	jmp	.LBB2_11
.LBB2_11:
	movq	24(%rsp), %rax
	movq	(%rsp), %rcx
	movq	8(%rsp), %rdx
	movq	%rdx, 152(%rsp)
	movq	%rcx, 160(%rsp)
	movq	$0, 168(%rsp)
	movq	160(%rsp), %rcx
	movq	112(%rsp), %rdx
	movq	%rdx, 192(%rsp)
	movaps	96(%rsp), %xmm0
	movaps	%xmm0, 176(%rsp)
	movq	192(%rsp), %rdx
	movq	%rdx, 16(%rcx)
	movaps	176(%rsp), %xmm0
	movups	%xmm0, (%rcx)
	movq	$1, 168(%rsp)
	movq	168(%rsp), %rcx
	movq	%rcx, 64(%rsp)
	movups	152(%rsp), %xmm0
	movaps	%xmm0, 48(%rsp)
	movb	$0, 255(%rsp)
	movups	(%rax), %xmm0
	movups	16(%rax), %xmm1
	movaps	%xmm1, 224(%rsp)
	movaps	%xmm0, 208(%rsp)
.Ltmp12:
	leaq	48(%rsp), %rdi
	leaq	208(%rsp), %rsi
	callq	_ZN97_$LT$alloc..vec..Vec$LT$T$C$A$GT$$u20$as$u20$alloc..vec..spec_extend..SpecExtend$LT$T$C$I$GT$$GT$11spec_extend17hf0e3a0bd31ea6ea8E
.Ltmp13:
	jmp	.LBB2_14
.LBB2_12:
.Ltmp15:
	leaq	48(%rsp), %rdi
	callq	_ZN4core3ptr65drop_in_place$LT$alloc..vec..Vec$LT$alloc..string..String$GT$$GT$17hba13f3a7ddd1bdbaE
.Ltmp16:
	jmp	.LBB2_1
.LBB2_13:
.Ltmp14:
	movq	%rax, %rcx
	movl	%edx, %eax
	movq	%rcx, 256(%rsp)
	movl	%eax, 264(%rsp)
	jmp	.LBB2_12
.LBB2_14:
	movq	32(%rsp), %rax
	movq	48(%rsp), %rcx
	movq	%rcx, (%rax)
	movq	56(%rsp), %rcx
	movq	%rcx, 8(%rax)
	movq	64(%rsp), %rcx
	movq	%rcx, 16(%rax)
	jmp	.LBB2_6
.LBB2_15:
.Ltmp19:
	movq	_ZN4core9panicking16panic_in_cleanup17h76c6e1c84248d3ffE@GOTPCREL(%rip), %rax
	callq	*%rax
.LBB2_16:
	movq	256(%rsp), %rdi
	callq	_Unwind_Resume@PLT
.LBB2_17:
.Ltmp17:
	movq	24(%rsp), %rdi
	callq	_ZN4core3ptr35drop_in_place$LT$std..env..Args$GT$17hbef0acb943d3eb18E
.Ltmp18:
	jmp	.LBB2_16
.Lfunc_end2:
	.size	_ZN111_$LT$alloc..vec..Vec$LT$T$GT$$u20$as$u20$alloc..vec..spec_from_iter_nested..SpecFromIterNested$LT$T$C$I$GT$$GT$9from_iter17hec73a410055f37e2E, .Lfunc_end2-_ZN111_$LT$alloc..vec..Vec$LT$T$GT$$u20$as$u20$alloc..vec..spec_from_iter_nested..SpecFromIterNested$LT$T$C$I$GT$$GT$9from_iter17hec73a410055f37e2E
	.cfi_endproc
	.section	".gcc_except_table._ZN111_$LT$alloc..vec..Vec$LT$T$GT$$u20$as$u20$alloc..vec..spec_from_iter_nested..SpecFromIterNested$LT$T$C$I$GT$$GT$9from_iter17hec73a410055f37e2E","a",@progbits
	.p2align	2, 0x0
GCC_except_table2:
.Lexception0:
	.byte	255
	.byte	155
	.uleb128 .Lttbase0-.Lttbaseref0
.Lttbaseref0:
	.byte	1
	.uleb128 .Lcst_end0-.Lcst_begin0
.Lcst_begin0:
	.uleb128 .Ltmp0-.Lfunc_begin0
	.uleb128 .Ltmp1-.Ltmp0
	.uleb128 .Ltmp2-.Lfunc_begin0
	.byte	0
	.uleb128 .Ltmp1-.Lfunc_begin0
	.uleb128 .Ltmp3-.Ltmp1
	.byte	0
	.byte	0
	.uleb128 .Ltmp3-.Lfunc_begin0
	.uleb128 .Ltmp4-.Ltmp3
	.uleb128 .Ltmp9-.Lfunc_begin0
	.byte	0
	.uleb128 .Ltmp10-.Lfunc_begin0
	.uleb128 .Ltmp11-.Ltmp10
	.uleb128 .Ltmp19-.Lfunc_begin0
	.byte	1
	.uleb128 .Ltmp5-.Lfunc_begin0
	.uleb128 .Ltmp8-.Ltmp5
	.uleb128 .Ltmp9-.Lfunc_begin0
	.byte	0
	.uleb128 .Ltmp12-.Lfunc_begin0
	.uleb128 .Ltmp13-.Ltmp12
	.uleb128 .Ltmp14-.Lfunc_begin0
	.byte	0
	.uleb128 .Ltmp15-.Lfunc_begin0
	.uleb128 .Ltmp16-.Ltmp15
	.uleb128 .Ltmp19-.Lfunc_begin0
	.byte	1
	.uleb128 .Ltmp16-.Lfunc_begin0
	.uleb128 .Ltmp17-.Ltmp16
	.byte	0
	.byte	0
	.uleb128 .Ltmp17-.Lfunc_begin0
	.uleb128 .Ltmp18-.Ltmp17
	.uleb128 .Ltmp19-.Lfunc_begin0
	.byte	1
.Lcst_end0:
	.byte	127
	.byte	0
	.p2align	2, 0x0
.Lttbase0:
	.byte	0
	.p2align	2, 0x0

	.section	".text._ZN116_$LT$std..sys..pal..unix..kernel_copy..Copier$LT$R$C$W$GT$$u20$as$u20$std..sys..pal..unix..kernel_copy..SpecCopy$GT$4copy17hccd4d69d4cbc4037E","ax",@progbits
	.p2align	4, 0x90
	.type	_ZN116_$LT$std..sys..pal..unix..kernel_copy..Copier$LT$R$C$W$GT$$u20$as$u20$std..sys..pal..unix..kernel_copy..SpecCopy$GT$4copy17hccd4d69d4cbc4037E,@function
_ZN116_$LT$std..sys..pal..unix..kernel_copy..Copier$LT$R$C$W$GT$$u20$as$u20$std..sys..pal..unix..kernel_copy..SpecCopy$GT$4copy17hccd4d69d4cbc4037E:
.Lfunc_begin1:
	.cfi_startproc
	.cfi_personality 155, DW.ref.rust_eh_personality
	.cfi_lsda 27, .Lexception1
	subq	$1448, %rsp
	.cfi_def_cfa_offset 1456
	movq	%rdi, 72(%rsp)
	movq	%rdi, 80(%rsp)
	movq	%rsi, 88(%rsp)
	movq	%rdx, 96(%rsp)
	movq	88(%rsp), %rsi
	leaq	104(%rsp), %rdi
	callq	*_ZN76_$LT$std..fs..File$u20$as$u20$std..sys..pal..unix..kernel_copy..CopyRead$GT$10properties17h5eb882be9dc8450eE@GOTPCREL(%rip)
	movq	96(%rsp), %rsi
	leaq	288(%rsp), %rdi
	callq	*_ZN77_$LT$std..fs..File$u20$as$u20$std..sys..pal..unix..kernel_copy..CopyWrite$GT$10properties17ha5462aac0c66d080E@GOTPCREL(%rip)
	movq	88(%rsp), %rcx
	movq	96(%rsp), %rax
	movq	%rcx, 472(%rsp)
	movq	%rax, 480(%rsp)
	movq	$0, 488(%rsp)
	leaq	1064(%rsp), %rdi
	leaq	104(%rsp), %rsi
	movl	$176, %edx
	callq	memcpy@PLT
	movl	280(%rsp), %ecx
	movl	284(%rsp), %eax
	movl	%ecx, 1240(%rsp)
	movl	%eax, 1244(%rsp)
	leaq	1248(%rsp), %rdi
	leaq	288(%rsp), %rsi
	movl	$176, %edx
	callq	memcpy@PLT
	movl	464(%rsp), %ecx
	movl	468(%rsp), %eax
	movl	%ecx, 1424(%rsp)
	movl	%eax, 1428(%rsp)
	movl	1240(%rsp), %eax
	cmpq	$1, %rax
	jne	.LBB3_2
	movl	1424(%rsp), %eax
	cmpq	$1, %rax
	je	.LBB3_3
.LBB3_2:
	movq	88(%rsp), %rsi
	movq	96(%rsp), %rdx
	movb	$1, 1055(%rsp)
	leaq	1016(%rsp), %rdi
	callq	_ZN3std2io4copy12generic_copy17hf004de1970ea6610E
	cmpq	$0, 1016(%rsp)
	je	.LBB3_57
	jmp	.LBB3_58
.LBB3_3:
	leaq	496(%rsp), %rdi
	leaq	1064(%rsp), %rsi
	movl	$176, %edx
	callq	memcpy@PLT
	leaq	672(%rsp), %rdi
	leaq	1248(%rsp), %rsi
	movl	$176, %edx
	callq	memcpy@PLT
	movl	1244(%rsp), %eax
	movl	%eax, 64(%rsp)
	movl	1428(%rsp), %eax
	movl	%eax, 68(%rsp)
	leaq	864(%rsp), %rdi
	leaq	472(%rsp), %rsi
	callq	_ZN116_$LT$std..sys..pal..unix..kernel_copy..Copier$LT$R$C$W$GT$$u20$as$u20$std..sys..pal..unix..kernel_copy..SpecCopy$GT$4copy28_$u7b$$u7b$closure$u7d$$u7d$17h2023ee9f416a148eE
	cmpq	$0, 864(%rsp)
	jne	.LBB3_5
	movq	872(%rsp), %rax
	movq	%rax, 856(%rsp)
	movq	$0, 848(%rsp)
	jmp	.LBB3_6
.LBB3_5:
	movq	872(%rsp), %rax
	movq	%rax, 1056(%rsp)
	movq	1056(%rsp), %rax
	movq	%rax, 856(%rsp)
	movq	$1, 848(%rsp)
.LBB3_6:
	cmpq	$0, 848(%rsp)
	jne	.LBB3_8
	movq	856(%rsp), %rax
	addq	488(%rsp), %rax
	movq	%rax, 488(%rsp)
	movq	88(%rsp), %rdi
	callq	_ZN3std3sys3pal4unix11kernel_copy8CopyRead9min_limit17hb8680cb828537b00E
	movq	%rax, 56(%rsp)
	leaq	496(%rsp), %rdi
	xorl	%esi, %esi
	callq	_ZN3std3sys3pal4unix11kernel_copy6FdMeta25copy_file_range_candidate17h36b80ee8a6c84a2bE
	testb	$1, %al
	jne	.LBB3_10
	jmp	.LBB3_9
.LBB3_8:
	movq	72(%rsp), %rax
	movq	856(%rsp), %rcx
	movq	%rcx, 880(%rsp)
	movq	880(%rsp), %rcx
	movq	%rcx, 8(%rax)
	movq	$1, (%rax)
	jmp	.LBB3_22
.LBB3_9:
	jmp	.LBB3_11
.LBB3_10:
	leaq	672(%rsp), %rdi
	movl	$1, %esi
	callq	_ZN3std3sys3pal4unix11kernel_copy6FdMeta25copy_file_range_candidate17h36b80ee8a6c84a2bE
	testb	$1, %al
	jne	.LBB3_13
	jmp	.LBB3_12
.LBB3_11:
	leaq	496(%rsp), %rdi
	callq	_ZN3std3sys3pal4unix11kernel_copy6FdMeta25potential_sendfile_source17he59172390964f607E
	testb	$1, %al
	jne	.LBB3_24
	jmp	.LBB3_23
.LBB3_12:
	jmp	.LBB3_11
.LBB3_13:
	movq	56(%rsp), %rcx
	movl	68(%rsp), %edx
	movl	64(%rsp), %esi
	movq	_ZN3std3sys3pal4unix11kernel_copy18copy_regular_files17h4d002b4514a36da6E@GOTPCREL(%rip), %rax
	leaq	888(%rsp), %rdi
	movq	%rdi, 48(%rsp)
	callq	*%rax
	movq	48(%rsp), %rdi
	movq	88(%rsp), %rsi
.Ltmp20:
	callq	_ZN3std3sys3pal4unix11kernel_copy10CopyResult11update_take17h29b74f5c06be53dcE
.Ltmp21:
	jmp	.LBB3_16
.LBB3_14:
.Ltmp23:
	leaq	888(%rsp), %rdi
	callq	_ZN4core3ptr65drop_in_place$LT$std..sys..pal..unix..kernel_copy..CopyResult$GT$17h2ecf052a2f3e2c81E
.Ltmp24:
	jmp	.LBB3_54
.LBB3_15:
.Ltmp22:
	movq	%rax, %rcx
	movl	%edx, %eax
	movq	%rcx, 1432(%rsp)
	movl	%eax, 1440(%rsp)
	jmp	.LBB3_14
.LBB3_16:
	movq	888(%rsp), %rax
	movq	%rax, 40(%rsp)
	testq	%rax, %rax
	je	.LBB3_18
	jmp	.LBB3_62
.LBB3_62:
	movq	40(%rsp), %rax
	subq	$1, %rax
	je	.LBB3_19
	jmp	.LBB3_63
.LBB3_63:
	jmp	.LBB3_20
	.cfi_def_cfa_offset 8
	ud2
.LBB3_18:
	.cfi_def_cfa_offset 1456
	movq	72(%rsp), %rax
	movq	896(%rsp), %rcx
	addq	488(%rsp), %rcx
	movq	%rcx, 8(%rax)
	movq	$0, (%rax)
	jmp	.LBB3_21
.LBB3_19:
	movq	72(%rsp), %rax
	movq	904(%rsp), %rcx
	movq	%rcx, 8(%rax)
	movq	$1, (%rax)
	jmp	.LBB3_21
.LBB3_20:
	movq	896(%rsp), %rax
	addq	488(%rsp), %rax
	movq	%rax, 488(%rsp)
	jmp	.LBB3_11
.LBB3_21:
	jmp	.LBB3_22
.LBB3_22:
	jmp	.LBB3_56
.LBB3_23:
	jmp	.LBB3_25
.LBB3_24:
	leaq	496(%rsp), %rdi
	leaq	672(%rsp), %rsi
	callq	_ZN3std3sys3pal4unix11kernel_copy16safe_kernel_copy17h3325a7c5946387e6E
	testb	$1, %al
	jne	.LBB3_27
	jmp	.LBB3_26
.LBB3_25:
	leaq	496(%rsp), %rdi
	callq	_ZN3std3sys3pal4unix11kernel_copy6FdMeta10maybe_fifo17h39e9235d3d756970E
	testb	$1, %al
	jne	.LBB3_36
	jmp	.LBB3_35
.LBB3_26:
	jmp	.LBB3_25
.LBB3_27:
	movq	56(%rsp), %r8
	movl	68(%rsp), %ecx
	movl	64(%rsp), %edx
	movq	_ZN3std3sys3pal4unix11kernel_copy15sendfile_splice17h00813f4de639ab59E@GOTPCREL(%rip), %rax
	leaq	912(%rsp), %rdi
	movq	%rdi, 32(%rsp)
	xorl	%esi, %esi
	callq	*%rax
	movq	32(%rsp), %rdi
	movq	88(%rsp), %rsi
.Ltmp25:
	callq	_ZN3std3sys3pal4unix11kernel_copy10CopyResult11update_take17h29b74f5c06be53dcE
.Ltmp26:
	jmp	.LBB3_30
.LBB3_28:
.Ltmp28:
	leaq	912(%rsp), %rdi
	callq	_ZN4core3ptr65drop_in_place$LT$std..sys..pal..unix..kernel_copy..CopyResult$GT$17h2ecf052a2f3e2c81E
.Ltmp29:
	jmp	.LBB3_54
.LBB3_29:
.Ltmp27:
	movq	%rax, %rcx
	movl	%edx, %eax
	movq	%rcx, 1432(%rsp)
	movl	%eax, 1440(%rsp)
	jmp	.LBB3_28
.LBB3_30:
	movq	912(%rsp), %rax
	movq	%rax, 24(%rsp)
	testq	%rax, %rax
	je	.LBB3_31
	jmp	.LBB3_64
.LBB3_64:
	movq	24(%rsp), %rax
	subq	$1, %rax
	je	.LBB3_32
	jmp	.LBB3_65
.LBB3_65:
	jmp	.LBB3_33
.LBB3_31:
	movq	72(%rsp), %rax
	movq	920(%rsp), %rcx
	addq	488(%rsp), %rcx
	movq	%rcx, 8(%rax)
	movq	$0, (%rax)
	jmp	.LBB3_34
.LBB3_32:
	movq	72(%rsp), %rax
	movq	928(%rsp), %rcx
	movq	%rcx, 8(%rax)
	movq	$1, (%rax)
	jmp	.LBB3_34
.LBB3_33:
	movq	920(%rsp), %rax
	addq	488(%rsp), %rax
	movq	%rax, 488(%rsp)
	jmp	.LBB3_25
.LBB3_34:
	jmp	.LBB3_22
.LBB3_35:
	leaq	672(%rsp), %rdi
	callq	_ZN3std3sys3pal4unix11kernel_copy6FdMeta10maybe_fifo17h39e9235d3d756970E
	testb	$1, %al
	jne	.LBB3_38
	jmp	.LBB3_37
.LBB3_36:
	jmp	.LBB3_38
.LBB3_37:
	jmp	.LBB3_39
.LBB3_38:
	leaq	496(%rsp), %rdi
	leaq	672(%rsp), %rsi
	callq	_ZN3std3sys3pal4unix11kernel_copy16safe_kernel_copy17h3325a7c5946387e6E
	testb	$1, %al
	jne	.LBB3_41
	jmp	.LBB3_40
.LBB3_39:
	jmp	.LBB3_2
.LBB3_40:
	jmp	.LBB3_39
.LBB3_41:
	movq	56(%rsp), %r8
	movl	68(%rsp), %ecx
	movl	64(%rsp), %edx
	movq	_ZN3std3sys3pal4unix11kernel_copy15sendfile_splice17h00813f4de639ab59E@GOTPCREL(%rip), %rax
	leaq	936(%rsp), %rdi
	movq	%rdi, 16(%rsp)
	movl	$1, %esi
	callq	*%rax
	movq	16(%rsp), %rdi
	movq	88(%rsp), %rsi
.Ltmp30:
	callq	_ZN3std3sys3pal4unix11kernel_copy10CopyResult11update_take17h29b74f5c06be53dcE
.Ltmp31:
	jmp	.LBB3_44
.LBB3_42:
	cmpq	$1, 936(%rsp)
	je	.LBB3_53
	jmp	.LBB3_54
.LBB3_43:
.Ltmp36:
	movq	%rax, %rcx
	movl	%edx, %eax
	movq	%rcx, 1432(%rsp)
	movl	%eax, 1440(%rsp)
	jmp	.LBB3_42
.LBB3_44:
	movq	936(%rsp), %rax
	movq	%rax, 8(%rsp)
	testq	%rax, %rax
	je	.LBB3_45
	jmp	.LBB3_66
.LBB3_66:
	movq	8(%rsp), %rax
	subq	$1, %rax
	je	.LBB3_46
	jmp	.LBB3_67
.LBB3_67:
	jmp	.LBB3_47
.LBB3_45:
	movq	72(%rsp), %rax
	movq	944(%rsp), %rcx
	addq	488(%rsp), %rcx
	movq	%rcx, 8(%rax)
	movq	$0, (%rax)
	jmp	.LBB3_48
.LBB3_46:
	movq	72(%rsp), %rax
	movq	952(%rsp), %rcx
	movq	%rcx, 8(%rax)
	movq	$1, (%rax)
	jmp	.LBB3_48
.LBB3_47:
	cmpq	$0, 944(%rsp)
	je	.LBB3_49
	jmp	.LBB3_50
.LBB3_48:
	jmp	.LBB3_22
.LBB3_49:
	jmp	.LBB3_39
.LBB3_50:
.Ltmp32:
	leaq	.L__unnamed_3(%rip), %rsi
	xorl	%eax, %eax
	movl	%eax, %r8d
	leaq	960(%rsp), %rdi
	movl	$1, %edx
	leaq	1008(%rsp), %rcx
	callq	_ZN4core3fmt9Arguments6new_v117h37dde68bf1674cc8E
.Ltmp33:
	jmp	.LBB3_51
.LBB3_51:
.Ltmp34:
	leaq	.L__unnamed_4(%rip), %rsi
	movq	_ZN4core9panicking9panic_fmt17hc69c4d258fe11477E@GOTPCREL(%rip), %rax
	leaq	960(%rsp), %rdi
	callq	*%rax
.Ltmp35:
	jmp	.LBB3_52
.LBB3_52:
	ud2
.LBB3_53:
	leaq	952(%rsp), %rdi
.Ltmp37:
	callq	_ZN4core3ptr42drop_in_place$LT$std..io..error..Error$GT$17h08f9bdf5567baf6eE
.Ltmp38:
	jmp	.LBB3_54
.LBB3_54:
	movq	1432(%rsp), %rdi
	callq	_Unwind_Resume@PLT
.LBB3_55:
.Ltmp39:
	movq	_ZN4core9panicking16panic_in_cleanup17h76c6e1c84248d3ffE@GOTPCREL(%rip), %rax
	callq	*%rax
.LBB3_56:
	movq	80(%rsp), %rax
	addq	$1448, %rsp
	.cfi_def_cfa_offset 8
	retq
.LBB3_57:
	.cfi_def_cfa_offset 1456
	movq	72(%rsp), %rax
	movq	1024(%rsp), %rcx
	addq	488(%rsp), %rcx
	movq	%rcx, 8(%rax)
	movq	$0, (%rax)
	jmp	.LBB3_59
.LBB3_58:
	movq	72(%rsp), %rax
	movb	$0, 1055(%rsp)
	movq	1016(%rsp), %rcx
	movq	%rcx, 1032(%rsp)
	movq	1024(%rsp), %rcx
	movq	%rcx, 1040(%rsp)
	movq	1032(%rsp), %rcx
	movq	%rcx, (%rax)
	movq	1040(%rsp), %rcx
	movq	%rcx, 8(%rax)
.LBB3_59:
	testb	$1, 1055(%rsp)
	jne	.LBB3_61
.LBB3_60:
	jmp	.LBB3_56
.LBB3_61:
	leaq	1016(%rsp), %rdi
	callq	_ZN4core3ptr76drop_in_place$LT$core..result..Result$LT$u64$C$std..io..error..Error$GT$$GT$17h526e33b79d1053a8E
	jmp	.LBB3_60
.Lfunc_end3:
	.size	_ZN116_$LT$std..sys..pal..unix..kernel_copy..Copier$LT$R$C$W$GT$$u20$as$u20$std..sys..pal..unix..kernel_copy..SpecCopy$GT$4copy17hccd4d69d4cbc4037E, .Lfunc_end3-_ZN116_$LT$std..sys..pal..unix..kernel_copy..Copier$LT$R$C$W$GT$$u20$as$u20$std..sys..pal..unix..kernel_copy..SpecCopy$GT$4copy17hccd4d69d4cbc4037E
	.cfi_endproc
	.section	".gcc_except_table._ZN116_$LT$std..sys..pal..unix..kernel_copy..Copier$LT$R$C$W$GT$$u20$as$u20$std..sys..pal..unix..kernel_copy..SpecCopy$GT$4copy17hccd4d69d4cbc4037E","a",@progbits
	.p2align	2, 0x0
GCC_except_table3:
.Lexception1:
	.byte	255
	.byte	155
	.uleb128 .Lttbase1-.Lttbaseref1
.Lttbaseref1:
	.byte	1
	.uleb128 .Lcst_end1-.Lcst_begin1
.Lcst_begin1:
	.uleb128 .Lfunc_begin1-.Lfunc_begin1
	.uleb128 .Ltmp20-.Lfunc_begin1
	.byte	0
	.byte	0
	.uleb128 .Ltmp20-.Lfunc_begin1
	.uleb128 .Ltmp21-.Ltmp20
	.uleb128 .Ltmp22-.Lfunc_begin1
	.byte	0
	.uleb128 .Ltmp23-.Lfunc_begin1
	.uleb128 .Ltmp24-.Ltmp23
	.uleb128 .Ltmp39-.Lfunc_begin1
	.byte	1
	.uleb128 .Ltmp24-.Lfunc_begin1
	.uleb128 .Ltmp25-.Ltmp24
	.byte	0
	.byte	0
	.uleb128 .Ltmp25-.Lfunc_begin1
	.uleb128 .Ltmp26-.Ltmp25
	.uleb128 .Ltmp27-.Lfunc_begin1
	.byte	0
	.uleb128 .Ltmp28-.Lfunc_begin1
	.uleb128 .Ltmp29-.Ltmp28
	.uleb128 .Ltmp39-.Lfunc_begin1
	.byte	1
	.uleb128 .Ltmp29-.Lfunc_begin1
	.uleb128 .Ltmp30-.Ltmp29
	.byte	0
	.byte	0
	.uleb128 .Ltmp30-.Lfunc_begin1
	.uleb128 .Ltmp35-.Ltmp30
	.uleb128 .Ltmp36-.Lfunc_begin1
	.byte	0
	.uleb128 .Ltmp37-.Lfunc_begin1
	.uleb128 .Ltmp38-.Ltmp37
	.uleb128 .Ltmp39-.Lfunc_begin1
	.byte	1
	.uleb128 .Ltmp38-.Lfunc_begin1
	.uleb128 .Lfunc_end3-.Ltmp38
	.byte	0
	.byte	0
.Lcst_end1:
	.byte	127
	.byte	0
	.p2align	2, 0x0
.Lttbase1:
	.byte	0
	.p2align	2, 0x0

	.section	".text._ZN116_$LT$std..sys..pal..unix..kernel_copy..Copier$LT$R$C$W$GT$$u20$as$u20$std..sys..pal..unix..kernel_copy..SpecCopy$GT$4copy28_$u7b$$u7b$closure$u7d$$u7d$17h2023ee9f416a148eE","ax",@progbits
	.p2align	4, 0x90
	.type	_ZN116_$LT$std..sys..pal..unix..kernel_copy..Copier$LT$R$C$W$GT$$u20$as$u20$std..sys..pal..unix..kernel_copy..SpecCopy$GT$4copy28_$u7b$$u7b$closure$u7d$$u7d$17h2023ee9f416a148eE,@function
_ZN116_$LT$std..sys..pal..unix..kernel_copy..Copier$LT$R$C$W$GT$$u20$as$u20$std..sys..pal..unix..kernel_copy..SpecCopy$GT$4copy28_$u7b$$u7b$closure$u7d$$u7d$17h2023ee9f416a148eE:
	.cfi_startproc
	subq	$120, %rsp
	.cfi_def_cfa_offset 128
	movq	%rsi, %rax
	movq	%rax, 16(%rsp)
	movq	%rdi, 24(%rsp)
	movq	%rdi, 32(%rsp)
	movq	(%rax), %rsi
	movq	8(%rax), %rdx
	leaq	56(%rsp), %rdi
	movq	$-1, %rcx
	callq	_ZN3std3sys3pal4unix11kernel_copy8CopyRead8drain_to17h034db53cc2c5e058E
	cmpq	$0, 56(%rsp)
	jne	.LBB4_2
	movq	64(%rsp), %rax
	movq	%rax, 48(%rsp)
	movq	$0, 40(%rsp)
	jmp	.LBB4_3
.LBB4_2:
	movq	64(%rsp), %rax
	movq	%rax, 104(%rsp)
	movq	104(%rsp), %rax
	movq	%rax, 48(%rsp)
	movq	$1, 40(%rsp)
.LBB4_3:
	cmpq	$0, 40(%rsp)
	jne	.LBB4_5
	movq	16(%rsp), %rax
	movq	48(%rsp), %rcx
	movq	%rcx, 8(%rsp)
	movq	8(%rax), %rdi
	callq	_ZN48_$LT$std..fs..File$u20$as$u20$std..io..Write$GT$5flush17h8780e1b614259fecE
	movq	%rax, 88(%rsp)
	movq	88(%rsp), %rdx
	movl	$1, %eax
	xorl	%ecx, %ecx
	cmpq	$0, %rdx
	cmoveq	%rcx, %rax
	cmpq	$0, %rax
	je	.LBB4_6
	jmp	.LBB4_7
.LBB4_5:
	movq	24(%rsp), %rax
	movq	48(%rsp), %rcx
	movq	%rcx, 72(%rsp)
	movq	72(%rsp), %rcx
	movq	%rcx, 8(%rax)
	movq	$1, (%rax)
	jmp	.LBB4_12
.LBB4_6:
	movq	$0, 80(%rsp)
	jmp	.LBB4_8
.LBB4_7:
	movq	88(%rsp), %rax
	movq	%rax, 112(%rsp)
	movq	112(%rsp), %rax
	movq	%rax, 80(%rsp)
.LBB4_8:
	movq	80(%rsp), %rdx
	movl	$1, %eax
	xorl	%ecx, %ecx
	cmpq	$0, %rdx
	cmoveq	%rcx, %rax
	cmpq	$0, %rax
	jne	.LBB4_10
	movq	24(%rsp), %rax
	movq	8(%rsp), %rcx
	movq	%rcx, 8(%rax)
	movq	$0, (%rax)
	jmp	.LBB4_11
.LBB4_10:
	movq	24(%rsp), %rax
	movq	80(%rsp), %rcx
	movq	%rcx, 96(%rsp)
	movq	96(%rsp), %rcx
	movq	%rcx, 8(%rax)
	movq	$1, (%rax)
	jmp	.LBB4_12
.LBB4_11:
	movq	32(%rsp), %rax
	addq	$120, %rsp
	.cfi_def_cfa_offset 8
	retq
.LBB4_12:
	.cfi_def_cfa_offset 128
	jmp	.LBB4_11
.Lfunc_end4:
	.size	_ZN116_$LT$std..sys..pal..unix..kernel_copy..Copier$LT$R$C$W$GT$$u20$as$u20$std..sys..pal..unix..kernel_copy..SpecCopy$GT$4copy28_$u7b$$u7b$closure$u7d$$u7d$17h2023ee9f416a148eE, .Lfunc_end4-_ZN116_$LT$std..sys..pal..unix..kernel_copy..Copier$LT$R$C$W$GT$$u20$as$u20$std..sys..pal..unix..kernel_copy..SpecCopy$GT$4copy28_$u7b$$u7b$closure$u7d$$u7d$17h2023ee9f416a148eE
	.cfi_endproc

	.section	".text._ZN153_$LT$core..result..Result$LT$T$C$F$GT$$u20$as$u20$core..ops..try_trait..FromResidual$LT$core..result..Result$LT$core..convert..Infallible$C$E$GT$$GT$$GT$13from_residual17h00a0db889cd26343E","ax",@progbits
	.p2align	4, 0x90
	.type	_ZN153_$LT$core..result..Result$LT$T$C$F$GT$$u20$as$u20$core..ops..try_trait..FromResidual$LT$core..result..Result$LT$core..convert..Infallible$C$E$GT$$GT$$GT$13from_residual17h00a0db889cd26343E,@function
_ZN153_$LT$core..result..Result$LT$T$C$F$GT$$u20$as$u20$core..ops..try_trait..FromResidual$LT$core..result..Result$LT$core..convert..Infallible$C$E$GT$$GT$$GT$13from_residual17h00a0db889cd26343E:
	.cfi_startproc
	movq	%rdi, -16(%rsp)
	movq	-16(%rsp), %rax
	movq	%rax, -8(%rsp)
	movq	-8(%rsp), %rax
	retq
.Lfunc_end5:
	.size	_ZN153_$LT$core..result..Result$LT$T$C$F$GT$$u20$as$u20$core..ops..try_trait..FromResidual$LT$core..result..Result$LT$core..convert..Infallible$C$E$GT$$GT$$GT$13from_residual17h00a0db889cd26343E, .Lfunc_end5-_ZN153_$LT$core..result..Result$LT$T$C$F$GT$$u20$as$u20$core..ops..try_trait..FromResidual$LT$core..result..Result$LT$core..convert..Infallible$C$E$GT$$GT$$GT$13from_residual17h00a0db889cd26343E
	.cfi_endproc

	.section	".text._ZN157_$LT$$LT$alloc..vec..into_iter..IntoIter$LT$T$C$A$GT$$u20$as$u20$core..ops..drop..Drop$GT$..drop..DropGuard$LT$T$C$A$GT$$u20$as$u20$core..ops..drop..Drop$GT$4drop17hed1fa341ba5c5d66E","ax",@progbits
	.p2align	4, 0x90
	.type	_ZN157_$LT$$LT$alloc..vec..into_iter..IntoIter$LT$T$C$A$GT$$u20$as$u20$core..ops..drop..Drop$GT$..drop..DropGuard$LT$T$C$A$GT$$u20$as$u20$core..ops..drop..Drop$GT$4drop17hed1fa341ba5c5d66E,@function
_ZN157_$LT$$LT$alloc..vec..into_iter..IntoIter$LT$T$C$A$GT$$u20$as$u20$core..ops..drop..Drop$GT$..drop..DropGuard$LT$T$C$A$GT$$u20$as$u20$core..ops..drop..Drop$GT$4drop17hed1fa341ba5c5d66E:
	.cfi_startproc
	subq	$56, %rsp
	.cfi_def_cfa_offset 64
	movq	(%rdi), %rax
	movq	(%rax), %rax
	movq	%rax, (%rsp)
	movq	(%rdi), %rax
	movq	16(%rax), %rax
	movq	%rax, 8(%rsp)
	xorl	%eax, %eax
	testb	$1, %al
	jne	.LBB6_2
	movq	8(%rsp), %rax
	movq	%rax, 32(%rsp)
	jmp	.LBB6_3
.LBB6_2:
	movq	$0, 32(%rsp)
.LBB6_3:
	movq	(%rsp), %rax
	movq	%rax, 48(%rsp)
	movq	48(%rsp), %rax
	movq	%rax, 40(%rsp)
	movq	32(%rsp), %rax
	movq	40(%rsp), %rcx
	movq	%rcx, 24(%rsp)
	movq	%rax, 16(%rsp)
	leaq	16(%rsp), %rdi
	callq	_ZN4core3ptr77drop_in_place$LT$alloc..raw_vec..RawVec$LT$std..ffi..os_str..OsString$GT$$GT$17hd5fed94c639c0e7aE
	addq	$56, %rsp
	.cfi_def_cfa_offset 8
	retq
.Lfunc_end6:
	.size	_ZN157_$LT$$LT$alloc..vec..into_iter..IntoIter$LT$T$C$A$GT$$u20$as$u20$core..ops..drop..Drop$GT$..drop..DropGuard$LT$T$C$A$GT$$u20$as$u20$core..ops..drop..Drop$GT$4drop17hed1fa341ba5c5d66E, .Lfunc_end6-_ZN157_$LT$$LT$alloc..vec..into_iter..IntoIter$LT$T$C$A$GT$$u20$as$u20$core..ops..drop..Drop$GT$..drop..DropGuard$LT$T$C$A$GT$$u20$as$u20$core..ops..drop..Drop$GT$4drop17hed1fa341ba5c5d66E
	.cfi_endproc

	.section	.text._ZN3std10sys_common9backtrace28__rust_begin_short_backtrace17hfb2863b8b954a8fdE,"ax",@progbits
	.p2align	4, 0x90
	.type	_ZN3std10sys_common9backtrace28__rust_begin_short_backtrace17hfb2863b8b954a8fdE,@function
_ZN3std10sys_common9backtrace28__rust_begin_short_backtrace17hfb2863b8b954a8fdE:
	.cfi_startproc
	pushq	%rax
	.cfi_def_cfa_offset 16
	callq	_ZN4core3ops8function6FnOnce9call_once17hbfb9e1f55525b1eeE
	#APP
	#NO_APP
	popq	%rcx
	.cfi_def_cfa_offset 8
	retq
.Lfunc_end7:
	.size	_ZN3std10sys_common9backtrace28__rust_begin_short_backtrace17hfb2863b8b954a8fdE, .Lfunc_end7-_ZN3std10sys_common9backtrace28__rust_begin_short_backtrace17hfb2863b8b954a8fdE
	.cfi_endproc

	.section	.text._ZN3std2fs11OpenOptions4open17he4cc304f20ae3ac7E,"ax",@progbits
	.p2align	4, 0x90
	.type	_ZN3std2fs11OpenOptions4open17he4cc304f20ae3ac7E,@function
_ZN3std2fs11OpenOptions4open17he4cc304f20ae3ac7E:
.Lfunc_begin2:
	.cfi_startproc
	.cfi_personality 155, DW.ref.rust_eh_personality
	.cfi_lsda 27, .Lexception2
	subq	$72, %rsp
	.cfi_def_cfa_offset 80
	movq	%rsi, (%rsp)
	movq	%rdi, 8(%rsp)
	movq	%rdi, 16(%rsp)
	movq	%rdx, 40(%rsp)
	movq	%rcx, 48(%rsp)
.Ltmp40:
	leaq	40(%rsp), %rdi
	callq	_ZN55_$LT$$RF$T$u20$as$u20$core..convert..AsRef$LT$U$GT$$GT$6as_ref17h0efb68d29c21871fE
.Ltmp41:
	movq	%rdx, 24(%rsp)
	movq	%rax, 32(%rsp)
	jmp	.LBB8_3
.LBB8_1:
	movq	56(%rsp), %rdi
	callq	_Unwind_Resume@PLT
.LBB8_2:
.Ltmp44:
	movq	%rax, %rcx
	movl	%edx, %eax
	movq	%rcx, 56(%rsp)
	movl	%eax, 64(%rsp)
	jmp	.LBB8_1
.LBB8_3:
.Ltmp42:
	movq	24(%rsp), %rcx
	movq	32(%rsp), %rdx
	movq	(%rsp), %rsi
	movq	8(%rsp), %rdi
	movq	_ZN3std2fs11OpenOptions5_open17hb8f7674b6534c64eE@GOTPCREL(%rip), %rax
	callq	*%rax
.Ltmp43:
	jmp	.LBB8_4
.LBB8_4:
	movq	16(%rsp), %rax
	addq	$72, %rsp
	.cfi_def_cfa_offset 8
	retq
.Lfunc_end8:
	.size	_ZN3std2fs11OpenOptions4open17he4cc304f20ae3ac7E, .Lfunc_end8-_ZN3std2fs11OpenOptions4open17he4cc304f20ae3ac7E
	.cfi_endproc
	.section	.gcc_except_table._ZN3std2fs11OpenOptions4open17he4cc304f20ae3ac7E,"a",@progbits
	.p2align	2, 0x0
GCC_except_table8:
.Lexception2:
	.byte	255
	.byte	255
	.byte	1
	.uleb128 .Lcst_end2-.Lcst_begin2
.Lcst_begin2:
	.uleb128 .Ltmp40-.Lfunc_begin2
	.uleb128 .Ltmp41-.Ltmp40
	.uleb128 .Ltmp44-.Lfunc_begin2
	.byte	0
	.uleb128 .Ltmp41-.Lfunc_begin2
	.uleb128 .Ltmp42-.Ltmp41
	.byte	0
	.byte	0
	.uleb128 .Ltmp42-.Lfunc_begin2
	.uleb128 .Ltmp43-.Ltmp42
	.uleb128 .Ltmp44-.Lfunc_begin2
	.byte	0
.Lcst_end2:
	.p2align	2, 0x0

	.section	.text._ZN3std2fs4File4open17h7bd72538cfa40190E,"ax",@progbits
	.p2align	4, 0x90
	.type	_ZN3std2fs4File4open17h7bd72538cfa40190E,@function
_ZN3std2fs4File4open17h7bd72538cfa40190E:
.Lfunc_begin3:
	.cfi_startproc
	.cfi_personality 155, DW.ref.rust_eh_personality
	.cfi_lsda 27, .Lexception3
	subq	$104, %rsp
	.cfi_def_cfa_offset 112
	movq	%rdi, 8(%rsp)
	movq	%rdi, 16(%rsp)
	movq	%rsi, 40(%rsp)
	movb	$0, 80(%rsp)
	movb	$0, 81(%rsp)
	movb	$0, 82(%rsp)
	movb	$0, 83(%rsp)
	movb	$0, 84(%rsp)
	movb	$0, 85(%rsp)
	movl	$0, 72(%rsp)
	movl	$438, 76(%rsp)
	movups	72(%rsp), %xmm0
	movaps	%xmm0, 48(%rsp)
	movb	$1, 56(%rsp)
.Ltmp45:
	leaq	40(%rsp), %rdi
	callq	_ZN55_$LT$$RF$T$u20$as$u20$core..convert..AsRef$LT$U$GT$$GT$6as_ref17hf11f9ac6d30034a5E
.Ltmp46:
	movq	%rdx, 24(%rsp)
	movq	%rax, 32(%rsp)
	jmp	.LBB9_3
.LBB9_1:
	movq	88(%rsp), %rdi
	callq	_Unwind_Resume@PLT
.LBB9_2:
.Ltmp49:
	movq	%rax, %rcx
	movl	%edx, %eax
	movq	%rcx, 88(%rsp)
	movl	%eax, 96(%rsp)
	jmp	.LBB9_1
.LBB9_3:
.Ltmp47:
	movq	24(%rsp), %rcx
	movq	32(%rsp), %rdx
	movq	8(%rsp), %rdi
	leaq	48(%rsp), %rsi
	callq	_ZN3std2fs11OpenOptions4open17he4cc304f20ae3ac7E
.Ltmp48:
	jmp	.LBB9_4
.LBB9_4:
	movq	16(%rsp), %rax
	addq	$104, %rsp
	.cfi_def_cfa_offset 8
	retq
.Lfunc_end9:
	.size	_ZN3std2fs4File4open17h7bd72538cfa40190E, .Lfunc_end9-_ZN3std2fs4File4open17h7bd72538cfa40190E
	.cfi_endproc
	.section	.gcc_except_table._ZN3std2fs4File4open17h7bd72538cfa40190E,"a",@progbits
	.p2align	2, 0x0
GCC_except_table9:
.Lexception3:
	.byte	255
	.byte	255
	.byte	1
	.uleb128 .Lcst_end3-.Lcst_begin3
.Lcst_begin3:
	.uleb128 .Ltmp45-.Lfunc_begin3
	.uleb128 .Ltmp46-.Ltmp45
	.uleb128 .Ltmp49-.Lfunc_begin3
	.byte	0
	.uleb128 .Ltmp46-.Lfunc_begin3
	.uleb128 .Ltmp47-.Ltmp46
	.byte	0
	.byte	0
	.uleb128 .Ltmp47-.Lfunc_begin3
	.uleb128 .Ltmp48-.Ltmp47
	.uleb128 .Ltmp49-.Lfunc_begin3
	.byte	0
.Lcst_end3:
	.p2align	2, 0x0

	.section	.text._ZN3std2fs4File6create17h21a3c9157ee1a94eE,"ax",@progbits
	.p2align	4, 0x90
	.type	_ZN3std2fs4File6create17h21a3c9157ee1a94eE,@function
_ZN3std2fs4File6create17h21a3c9157ee1a94eE:
.Lfunc_begin4:
	.cfi_startproc
	.cfi_personality 155, DW.ref.rust_eh_personality
	.cfi_lsda 27, .Lexception4
	subq	$104, %rsp
	.cfi_def_cfa_offset 112
	movq	%rdi, 8(%rsp)
	movq	%rdi, 16(%rsp)
	movq	%rsi, 40(%rsp)
	movb	$0, 80(%rsp)
	movb	$0, 81(%rsp)
	movb	$0, 82(%rsp)
	movb	$0, 83(%rsp)
	movb	$0, 84(%rsp)
	movb	$0, 85(%rsp)
	movl	$0, 72(%rsp)
	movl	$438, 76(%rsp)
	movups	72(%rsp), %xmm0
	movaps	%xmm0, 48(%rsp)
	movb	$1, 57(%rsp)
	movb	$1, 60(%rsp)
	movb	$1, 59(%rsp)
.Ltmp50:
	leaq	40(%rsp), %rdi
	callq	_ZN55_$LT$$RF$T$u20$as$u20$core..convert..AsRef$LT$U$GT$$GT$6as_ref17hf11f9ac6d30034a5E
.Ltmp51:
	movq	%rdx, 24(%rsp)
	movq	%rax, 32(%rsp)
	jmp	.LBB10_3
.LBB10_1:
	movq	88(%rsp), %rdi
	callq	_Unwind_Resume@PLT
.LBB10_2:
.Ltmp54:
	movq	%rax, %rcx
	movl	%edx, %eax
	movq	%rcx, 88(%rsp)
	movl	%eax, 96(%rsp)
	jmp	.LBB10_1
.LBB10_3:
.Ltmp52:
	movq	24(%rsp), %rcx
	movq	32(%rsp), %rdx
	movq	8(%rsp), %rdi
	leaq	48(%rsp), %rsi
	callq	_ZN3std2fs11OpenOptions4open17he4cc304f20ae3ac7E
.Ltmp53:
	jmp	.LBB10_4
.LBB10_4:
	movq	16(%rsp), %rax
	addq	$104, %rsp
	.cfi_def_cfa_offset 8
	retq
.Lfunc_end10:
	.size	_ZN3std2fs4File6create17h21a3c9157ee1a94eE, .Lfunc_end10-_ZN3std2fs4File6create17h21a3c9157ee1a94eE
	.cfi_endproc
	.section	.gcc_except_table._ZN3std2fs4File6create17h21a3c9157ee1a94eE,"a",@progbits
	.p2align	2, 0x0
GCC_except_table10:
.Lexception4:
	.byte	255
	.byte	255
	.byte	1
	.uleb128 .Lcst_end4-.Lcst_begin4
.Lcst_begin4:
	.uleb128 .Ltmp50-.Lfunc_begin4
	.uleb128 .Ltmp51-.Ltmp50
	.uleb128 .Ltmp54-.Lfunc_begin4
	.byte	0
	.uleb128 .Ltmp51-.Lfunc_begin4
	.uleb128 .Ltmp52-.Ltmp51
	.byte	0
	.byte	0
	.uleb128 .Ltmp52-.Lfunc_begin4
	.uleb128 .Ltmp53-.Ltmp52
	.uleb128 .Ltmp54-.Lfunc_begin4
	.byte	0
.Lcst_end4:
	.p2align	2, 0x0

	.section	.text._ZN3std2io4copy12generic_copy17hf004de1970ea6610E,"ax",@progbits
	.p2align	4, 0x90
	.type	_ZN3std2io4copy12generic_copy17hf004de1970ea6610E,@function
_ZN3std2io4copy12generic_copy17hf004de1970ea6610E:
	.cfi_startproc
	subq	$56, %rsp
	.cfi_def_cfa_offset 64
	movq	%rdx, 32(%rsp)
	movq	%rsi, 8(%rsp)
	movq	%rdi, %rax
	movq	8(%rsp), %rdi
	movq	%rax, 16(%rsp)
	movq	%rax, 24(%rsp)
	callq	_ZN55_$LT$T$u20$as$u20$std..io..copy..BufferedReaderSpec$GT$11buffer_size17h98d0cd93d7660c8fE
	movq	32(%rsp), %rdi
	movq	%rax, 40(%rsp)
	callq	_ZN55_$LT$W$u20$as$u20$std..io..copy..BufferedWriterSpec$GT$11buffer_size17h6bb0e8278eba88a1E
	movq	%rax, %rcx
	movq	40(%rsp), %rax
	movq	%rcx, 48(%rsp)
	cmpq	$8192, %rax
	jae	.LBB11_2
.LBB11_1:
	movq	8(%rsp), %rdx
	movq	32(%rsp), %rsi
	movq	16(%rsp), %rdi
	callq	_ZN55_$LT$W$u20$as$u20$std..io..copy..BufferedWriterSpec$GT$9copy_from17h43f694c628b24c9fE
	jmp	.LBB11_4
.LBB11_2:
	movq	40(%rsp), %rax
	movq	48(%rsp), %rcx
	cmpq	%rcx, %rax
	jb	.LBB11_1
	movq	32(%rsp), %rdx
	movq	8(%rsp), %rsi
	movq	16(%rsp), %rdi
	callq	_ZN55_$LT$T$u20$as$u20$std..io..copy..BufferedReaderSpec$GT$7copy_to17hed2d830b4b095a9eE
.LBB11_4:
	movq	24(%rsp), %rax
	addq	$56, %rsp
	.cfi_def_cfa_offset 8
	retq
.Lfunc_end11:
	.size	_ZN3std2io4copy12generic_copy17hf004de1970ea6610E, .Lfunc_end11-_ZN3std2io4copy12generic_copy17hf004de1970ea6610E
	.cfi_endproc

	.section	.text._ZN3std2io4copy17stack_buffer_copy17h907e06980f3ae83dE,"ax",@progbits
	.p2align	4, 0x90
	.type	_ZN3std2io4copy17stack_buffer_copy17h907e06980f3ae83dE,@function
_ZN3std2io4copy17stack_buffer_copy17h907e06980f3ae83dE:
.Lfunc_begin5:
	.cfi_startproc
	.cfi_personality 155, DW.ref.rust_eh_personality
	.cfi_lsda 27, .Lexception5
	subq	$4096, %rsp
	.cfi_adjust_cfa_offset 4096
	movq	$0, (%rsp)
	subq	$4096, %rsp
	.cfi_adjust_cfa_offset 4096
	movq	$0, (%rsp)
	subq	$232, %rsp
	.cfi_def_cfa_offset 8432
	movq	%rdx, 16(%rsp)
	movq	%rsi, 24(%rsp)
	movq	%rdi, 32(%rsp)
	movq	%rdi, 40(%rsp)
	movb	8247(%rsp), %al
	leaq	55(%rsp), %rdi
	movl	$8192, %edx
	movzbl	%al, %esi
	callq	memset@PLT
	leaq	55(%rsp), %rax
	movq	%rax, 8248(%rsp)
	movq	$8192, 8256(%rsp)
	movq	$0, 8264(%rsp)
	movq	$0, 8272(%rsp)
	movq	$0, 8280(%rsp)
.LBB12_1:
	movq	24(%rsp), %rdi
	movq	8264(%rsp), %rax
	leaq	8248(%rsp), %rcx
	movq	%rcx, 8296(%rsp)
	movq	%rax, 8304(%rsp)
	movb	$1, 8351(%rsp)
	movq	8296(%rsp), %rsi
	movq	8304(%rsp), %rdx
	callq	*_ZN47_$LT$std..fs..File$u20$as$u20$std..io..Read$GT$8read_buf17h99c56ac75b937dddE@GOTPCREL(%rip)
	movq	%rax, 8288(%rsp)
	movq	8288(%rsp), %rdx
	movl	$1, %eax
	xorl	%ecx, %ecx
	cmpq	$0, %rdx
	cmoveq	%rcx, %rax
	cmpq	$0, %rax
	jne	.LBB12_3
	movq	8248(%rsp), %rdx
	movq	8256(%rsp), %rcx
	movq	8264(%rsp), %rax
	movq	$0, 8352(%rsp)
	movq	%rax, 8360(%rsp)
	movq	8352(%rsp), %rdi
	movq	8360(%rsp), %rsi
	leaq	.L__unnamed_5(%rip), %r8
	callq	_ZN106_$LT$core..ops..range..Range$LT$usize$GT$$u20$as$u20$core..slice..index..SliceIndex$LT$$u5b$T$u5d$$GT$$GT$5index17h8c515b9aeaa4f5aaE
	cmpq	$0, %rdx
	je	.LBB12_4
	jmp	.LBB12_5
.LBB12_3:
.Ltmp55:
	leaq	8288(%rsp), %rdi
	callq	_ZN3std2io5error5Error14is_interrupted17h7cfece5e6a413c87E
.Ltmp56:
	movb	%al, 15(%rsp)
	jmp	.LBB12_15
.LBB12_4:
	movq	32(%rsp), %rax
	movq	8280(%rsp), %rcx
	movq	%rcx, 8(%rax)
	movq	$0, (%rax)
	jmp	.LBB12_6
.LBB12_5:
	movq	8248(%rsp), %rdx
	movq	8256(%rsp), %rcx
	movq	8264(%rsp), %rax
	movq	$0, 8368(%rsp)
	movq	%rax, 8376(%rsp)
	movq	8368(%rsp), %rdi
	movq	8376(%rsp), %rsi
	leaq	.L__unnamed_5(%rip), %r8
	callq	_ZN106_$LT$core..ops..range..Range$LT$usize$GT$$u20$as$u20$core..slice..index..SliceIndex$LT$$u5b$T$u5d$$GT$$GT$5index17h8c515b9aeaa4f5aaE
	addq	8280(%rsp), %rdx
	movq	%rdx, 8280(%rsp)
	movq	8248(%rsp), %rdx
	movq	8256(%rsp), %rcx
	movq	8264(%rsp), %rax
	movq	$0, 8384(%rsp)
	movq	%rax, 8392(%rsp)
	movq	8384(%rsp), %rdi
	movq	8392(%rsp), %rsi
	leaq	.L__unnamed_5(%rip), %r8
	callq	_ZN106_$LT$core..ops..range..Range$LT$usize$GT$$u20$as$u20$core..slice..index..SliceIndex$LT$$u5b$T$u5d$$GT$$GT$5index17h8c515b9aeaa4f5aaE
	movq	16(%rsp), %rdi
	movq	%rax, %rsi
	callq	_ZN3std2io5Write9write_all17h574a24553d2f640dE
	movq	%rax, 8328(%rsp)
	movq	8328(%rsp), %rdx
	movl	$1, %eax
	xorl	%ecx, %ecx
	cmpq	$0, %rdx
	cmoveq	%rcx, %rax
	cmpq	$0, %rax
	je	.LBB12_7
	jmp	.LBB12_8
.LBB12_6:
	movq	40(%rsp), %rax
	addq	$8424, %rsp
	.cfi_def_cfa_offset 8
	retq
.LBB12_7:
	.cfi_def_cfa_offset 8432
	movq	$0, 8320(%rsp)
	jmp	.LBB12_9
.LBB12_8:
	movq	8328(%rsp), %rax
	movq	%rax, 8400(%rsp)
	movq	8400(%rsp), %rax
	movq	%rax, 8320(%rsp)
.LBB12_9:
	movq	8320(%rsp), %rdx
	movl	$1, %eax
	xorl	%ecx, %ecx
	cmpq	$0, %rdx
	cmoveq	%rcx, %rax
	cmpq	$0, %rax
	jne	.LBB12_11
	movq	$0, 8264(%rsp)
	jmp	.LBB12_1
.LBB12_11:
	movq	32(%rsp), %rax
	movq	8320(%rsp), %rcx
	movq	%rcx, 8336(%rsp)
	movq	8336(%rsp), %rcx
	movq	%rcx, 8(%rax)
	movq	$1, (%rax)
.LBB12_12:
	jmp	.LBB12_6
.LBB12_13:
	movq	8288(%rsp), %rdx
	movl	$1, %eax
	xorl	%ecx, %ecx
	cmpq	$0, %rdx
	cmoveq	%rcx, %rax
	cmpq	$1, %rax
	je	.LBB12_19
	jmp	.LBB12_20
.LBB12_14:
.Ltmp59:
	movq	%rax, %rcx
	movl	%edx, %eax
	movq	%rcx, 8408(%rsp)
	movl	%eax, 8416(%rsp)
	jmp	.LBB12_13
.LBB12_15:
	movb	15(%rsp), %al
	testb	$1, %al
	jne	.LBB12_17
	jmp	.LBB12_16
.LBB12_16:
	movq	32(%rsp), %rax
	movq	8288(%rsp), %rcx
	movq	%rcx, 8(%rax)
	movq	$1, (%rax)
	jmp	.LBB12_12
.LBB12_17:
	movb	$0, 8351(%rsp)
	movq	8288(%rsp), %rax
	movq	%rax, 8312(%rsp)
.Ltmp57:
	leaq	8312(%rsp), %rdi
	callq	_ZN4core3ptr42drop_in_place$LT$std..io..error..Error$GT$17h08f9bdf5567baf6eE
.Ltmp58:
	jmp	.LBB12_18
.LBB12_18:
	jmp	.LBB12_1
.LBB12_19:
	testb	$1, 8351(%rsp)
	jne	.LBB12_21
.LBB12_20:
	movq	8408(%rsp), %rdi
	callq	_Unwind_Resume@PLT
.LBB12_21:
.Ltmp60:
	leaq	8288(%rsp), %rdi
	callq	_ZN4core3ptr42drop_in_place$LT$std..io..error..Error$GT$17h08f9bdf5567baf6eE
.Ltmp61:
	jmp	.LBB12_20
.LBB12_22:
.Ltmp62:
	movq	_ZN4core9panicking16panic_in_cleanup17h76c6e1c84248d3ffE@GOTPCREL(%rip), %rax
	callq	*%rax
.Lfunc_end12:
	.size	_ZN3std2io4copy17stack_buffer_copy17h907e06980f3ae83dE, .Lfunc_end12-_ZN3std2io4copy17stack_buffer_copy17h907e06980f3ae83dE
	.cfi_endproc
	.section	.gcc_except_table._ZN3std2io4copy17stack_buffer_copy17h907e06980f3ae83dE,"a",@progbits
	.p2align	2, 0x0
GCC_except_table12:
.Lexception5:
	.byte	255
	.byte	155
	.uleb128 .Lttbase2-.Lttbaseref2
.Lttbaseref2:
	.byte	1
	.uleb128 .Lcst_end5-.Lcst_begin5
.Lcst_begin5:
	.uleb128 .Lfunc_begin5-.Lfunc_begin5
	.uleb128 .Ltmp55-.Lfunc_begin5
	.byte	0
	.byte	0
	.uleb128 .Ltmp55-.Lfunc_begin5
	.uleb128 .Ltmp56-.Ltmp55
	.uleb128 .Ltmp59-.Lfunc_begin5
	.byte	0
	.uleb128 .Ltmp56-.Lfunc_begin5
	.uleb128 .Ltmp57-.Ltmp56
	.byte	0
	.byte	0
	.uleb128 .Ltmp57-.Lfunc_begin5
	.uleb128 .Ltmp58-.Ltmp57
	.uleb128 .Ltmp59-.Lfunc_begin5
	.byte	0
	.uleb128 .Ltmp58-.Lfunc_begin5
	.uleb128 .Ltmp60-.Ltmp58
	.byte	0
	.byte	0
	.uleb128 .Ltmp60-.Lfunc_begin5
	.uleb128 .Ltmp61-.Ltmp60
	.uleb128 .Ltmp62-.Lfunc_begin5
	.byte	1
	.uleb128 .Ltmp61-.Lfunc_begin5
	.uleb128 .Lfunc_end12-.Ltmp61
	.byte	0
	.byte	0
.Lcst_end5:
	.byte	127
	.byte	0
	.p2align	2, 0x0
.Lttbase2:
	.byte	0
	.p2align	2, 0x0

	.section	.text._ZN3std2io4copy4copy17hc8f286ed3f855be8E,"ax",@progbits
	.p2align	4, 0x90
	.type	_ZN3std2io4copy4copy17hc8f286ed3f855be8E,@function
_ZN3std2io4copy4copy17hc8f286ed3f855be8E:
	.cfi_startproc
	subq	$24, %rsp
	.cfi_def_cfa_offset 32
	movq	%rdi, %rax
	movq	%rax, (%rsp)
	movq	%rsi, 8(%rsp)
	movq	%rdx, 16(%rsp)
	movq	8(%rsp), %rsi
	movq	16(%rsp), %rdx
	callq	_ZN116_$LT$std..sys..pal..unix..kernel_copy..Copier$LT$R$C$W$GT$$u20$as$u20$std..sys..pal..unix..kernel_copy..SpecCopy$GT$4copy17hccd4d69d4cbc4037E
	movq	(%rsp), %rax
	addq	$24, %rsp
	.cfi_def_cfa_offset 8
	retq
.Lfunc_end13:
	.size	_ZN3std2io4copy4copy17hc8f286ed3f855be8E, .Lfunc_end13-_ZN3std2io4copy4copy17hc8f286ed3f855be8E
	.cfi_endproc

	.section	.text._ZN3std2io5Write9write_all17h574a24553d2f640dE,"ax",@progbits
	.p2align	4, 0x90
	.type	_ZN3std2io5Write9write_all17h574a24553d2f640dE,@function
_ZN3std2io5Write9write_all17h574a24553d2f640dE:
.Lfunc_begin6:
	.cfi_startproc
	.cfi_personality 155, DW.ref.rust_eh_personality
	.cfi_lsda 27, .Lexception6
	subq	$184, %rsp
	.cfi_def_cfa_offset 192
	movq	%rdi, 40(%rsp)
	movq	%rsi, 48(%rsp)
	movq	%rdx, 56(%rsp)
.LBB14_1:
	cmpq	$0, 56(%rsp)
	jne	.LBB14_3
	movq	$0, 64(%rsp)
	jmp	.LBB14_4
.LBB14_3:
	movq	40(%rsp), %rsi
	movq	48(%rsp), %rdx
	movq	56(%rsp), %rcx
	leaq	72(%rsp), %rdi
	callq	*_ZN48_$LT$std..fs..File$u20$as$u20$std..io..Write$GT$5write17hb181c5c2f72ad783E@GOTPCREL(%rip)
	cmpq	$0, 72(%rsp)
	je	.LBB14_5
	jmp	.LBB14_6
.LBB14_4:
	movq	64(%rsp), %rax
	addq	$184, %rsp
	.cfi_def_cfa_offset 8
	retq
.LBB14_5:
	.cfi_def_cfa_offset 192
	cmpq	$0, 80(%rsp)
	je	.LBB14_7
	jmp	.LBB14_8
.LBB14_6:
	leaq	80(%rsp), %rax
	movq	%rax, 96(%rsp)
	movq	96(%rsp), %rdi
.Ltmp63:
	callq	_ZN3std2io5error5Error14is_interrupted17h7cfece5e6a413c87E
.Ltmp64:
	movb	%al, 39(%rsp)
	jmp	.LBB14_16
.LBB14_7:
	leaq	.L__unnamed_6(%rip), %rax
	movq	%rax, 112(%rsp)
	movq	112(%rsp), %rax
	movq	%rax, 104(%rsp)
	movq	104(%rsp), %rax
	movq	%rax, 88(%rsp)
	movq	88(%rsp), %rax
	movq	%rax, 64(%rsp)
	jmp	.LBB14_9
.LBB14_8:
	movq	80(%rsp), %rax
	movq	%rax, 8(%rsp)
	movq	48(%rsp), %rcx
	movq	%rcx, 16(%rsp)
	movq	56(%rsp), %rcx
	movq	%rcx, 24(%rsp)
	cmpq	%rcx, %rax
	ja	.LBB14_11
	jmp	.LBB14_10
.LBB14_9:
	jmp	.LBB14_4
.LBB14_10:
	movq	8(%rsp), %rdx
	movq	16(%rsp), %rcx
	movq	24(%rsp), %rax
	movq	%rcx, 120(%rsp)
	movq	%rax, 128(%rsp)
	movq	128(%rsp), %rax
	subq	%rdx, %rax
	addq	%rdx, %rcx
	movq	%rcx, 152(%rsp)
	movq	%rax, 160(%rsp)
	movq	152(%rsp), %rcx
	movq	160(%rsp), %rax
	movq	%rcx, 136(%rsp)
	movq	%rax, 144(%rsp)
	movq	136(%rsp), %rcx
	movq	144(%rsp), %rax
	movq	%rcx, 48(%rsp)
	movq	%rax, 56(%rsp)
	jmp	.LBB14_12
.LBB14_11:
.Ltmp65:
	movq	24(%rsp), %rsi
	movq	8(%rsp), %rdi
	leaq	.L__unnamed_7(%rip), %rdx
	movq	_ZN4core5slice5index26slice_start_index_len_fail17hdaca407d67a34612E@GOTPCREL(%rip), %rax
	callq	*%rax
.Ltmp66:
	jmp	.LBB14_15
.LBB14_12:
	cmpq	$1, 72(%rsp)
	je	.LBB14_19
	jmp	.LBB14_20
.LBB14_13:
	cmpq	$1, 72(%rsp)
	je	.LBB14_21
	jmp	.LBB14_22
.LBB14_14:
.Ltmp67:
	movq	%rax, %rcx
	movl	%edx, %eax
	movq	%rcx, 168(%rsp)
	movl	%eax, 176(%rsp)
	jmp	.LBB14_13
.LBB14_15:
	ud2
.LBB14_16:
	movb	39(%rsp), %al
	testb	$1, %al
	jne	.LBB14_18
	jmp	.LBB14_17
.LBB14_17:
	movq	80(%rsp), %rax
	movq	%rax, 64(%rsp)
	jmp	.LBB14_9
.LBB14_18:
	jmp	.LBB14_12
.LBB14_19:
	leaq	72(%rsp), %rdi
	addq	$8, %rdi
	callq	_ZN4core3ptr42drop_in_place$LT$std..io..error..Error$GT$17h08f9bdf5567baf6eE
.LBB14_20:
	jmp	.LBB14_1
.LBB14_21:
	leaq	80(%rsp), %rdi
.Ltmp68:
	callq	_ZN4core3ptr42drop_in_place$LT$std..io..error..Error$GT$17h08f9bdf5567baf6eE
.Ltmp69:
	jmp	.LBB14_22
.LBB14_22:
	movq	168(%rsp), %rdi
	callq	_Unwind_Resume@PLT
.LBB14_23:
.Ltmp70:
	movq	_ZN4core9panicking16panic_in_cleanup17h76c6e1c84248d3ffE@GOTPCREL(%rip), %rax
	callq	*%rax
.Lfunc_end14:
	.size	_ZN3std2io5Write9write_all17h574a24553d2f640dE, .Lfunc_end14-_ZN3std2io5Write9write_all17h574a24553d2f640dE
	.cfi_endproc
	.section	.gcc_except_table._ZN3std2io5Write9write_all17h574a24553d2f640dE,"a",@progbits
	.p2align	2, 0x0
GCC_except_table14:
.Lexception6:
	.byte	255
	.byte	155
	.uleb128 .Lttbase3-.Lttbaseref3
.Lttbaseref3:
	.byte	1
	.uleb128 .Lcst_end6-.Lcst_begin6
.Lcst_begin6:
	.uleb128 .Lfunc_begin6-.Lfunc_begin6
	.uleb128 .Ltmp63-.Lfunc_begin6
	.byte	0
	.byte	0
	.uleb128 .Ltmp63-.Lfunc_begin6
	.uleb128 .Ltmp66-.Ltmp63
	.uleb128 .Ltmp67-.Lfunc_begin6
	.byte	0
	.uleb128 .Ltmp66-.Lfunc_begin6
	.uleb128 .Ltmp68-.Ltmp66
	.byte	0
	.byte	0
	.uleb128 .Ltmp68-.Lfunc_begin6
	.uleb128 .Ltmp69-.Ltmp68
	.uleb128 .Ltmp70-.Lfunc_begin6
	.byte	1
	.uleb128 .Ltmp69-.Lfunc_begin6
	.uleb128 .Lfunc_end14-.Ltmp69
	.byte	0
	.byte	0
.Lcst_end6:
	.byte	127
	.byte	0
	.p2align	2, 0x0
.Lttbase3:
	.byte	0
	.p2align	2, 0x0

	.section	.text._ZN3std2io5error14repr_bitpacked11decode_repr17h1f693d28a21b6ddeE,"ax",@progbits
	.p2align	4, 0x90
	.type	_ZN3std2io5error14repr_bitpacked11decode_repr17h1f693d28a21b6ddeE,@function
_ZN3std2io5error14repr_bitpacked11decode_repr17h1f693d28a21b6ddeE:
.Lfunc_begin7:
	.cfi_startproc
	.cfi_personality 155, DW.ref.rust_eh_personality
	.cfi_lsda 27, .Lexception7
	subq	$136, %rsp
	.cfi_def_cfa_offset 144
	movq	%rsi, 24(%rsp)
	movq	%rdi, 32(%rsp)
	movq	%rdi, 40(%rsp)
	movb	$1, 95(%rsp)
	movq	%rsi, 56(%rsp)
	movq	56(%rsp), %rax
	andl	$3, %eax
	movq	%rax, 48(%rsp)
	subq	$3, %rax
	ja	.LBB15_1
	movq	48(%rsp), %rax
	leaq	.LJTI15_0(%rip), %rcx
	movslq	(%rcx,%rax,4), %rax
	addq	%rcx, %rax
	jmpq	*%rax
.LBB15_1:
.Ltmp75:
	leaq	.L__unnamed_8(%rip), %rdi
	leaq	.L__unnamed_9(%rip), %rdx
	movq	_ZN4core9panicking5panic17h90e84101c01877efE@GOTPCREL(%rip), %rax
	movl	$40, %esi
	callq	*%rax
.Ltmp76:
	jmp	.LBB15_13
.LBB15_2:
	movq	32(%rsp), %rax
	movq	56(%rsp), %rcx
	sarq	$32, %rcx
	movl	%ecx, 4(%rax)
	movb	$0, (%rax)
	jmp	.LBB15_6
.LBB15_3:
	movl	60(%rsp), %edi
.Ltmp73:
	callq	_ZN3std2io5error14repr_bitpacked14kind_from_prim17he79e89737f4c8102E
.Ltmp74:
	movb	%al, 23(%rsp)
	jmp	.LBB15_9
.LBB15_4:
	movq	32(%rsp), %rax
	movq	24(%rsp), %rcx
	movq	%rcx, 72(%rsp)
	movq	%rcx, 8(%rax)
	movb	$2, (%rax)
	jmp	.LBB15_6
.LBB15_5:
	movq	24(%rsp), %rax
	decq	%rax
	movq	%rax, 128(%rsp)
	movq	128(%rsp), %rax
	movq	%rax, 104(%rsp)
	movq	104(%rsp), %rax
	movq	%rax, 96(%rsp)
	movq	96(%rsp), %rax
	movb	$0, 95(%rsp)
	movq	%rax, 80(%rsp)
	movq	80(%rsp), %rdi
.Ltmp71:
	callq	_ZN3std2io5error14repr_bitpacked4Repr4data28_$u7b$$u7b$closure$u7d$$u7d$17h90e936dce1ba68b0E
.Ltmp72:
	movq	%rax, 8(%rsp)
	jmp	.LBB15_10
.LBB15_6:
	testb	$1, 95(%rsp)
	jne	.LBB15_12
	jmp	.LBB15_11
.LBB15_7:
	testb	$1, 95(%rsp)
	jne	.LBB15_15
	jmp	.LBB15_14
.LBB15_8:
.Ltmp77:
	movq	%rax, %rcx
	movl	%edx, %eax
	movq	%rcx, 112(%rsp)
	movl	%eax, 120(%rsp)
	jmp	.LBB15_7
.LBB15_9:
	movq	32(%rsp), %rax
	movb	23(%rsp), %cl
	movb	%cl, 71(%rsp)
	movb	71(%rsp), %cl
	movb	%cl, 1(%rax)
	movb	$1, (%rax)
	jmp	.LBB15_6
.LBB15_10:
	movq	32(%rsp), %rax
	movq	8(%rsp), %rcx
	movq	%rcx, 8(%rax)
	movb	$3, (%rax)
	jmp	.LBB15_6
.LBB15_11:
	movq	40(%rsp), %rax
	addq	$136, %rsp
	.cfi_def_cfa_offset 8
	retq
.LBB15_12:
	.cfi_def_cfa_offset 144
	jmp	.LBB15_11
.LBB15_13:
	ud2
.LBB15_14:
	movq	112(%rsp), %rdi
	callq	_Unwind_Resume@PLT
.LBB15_15:
	jmp	.LBB15_14
.Lfunc_end15:
	.size	_ZN3std2io5error14repr_bitpacked11decode_repr17h1f693d28a21b6ddeE, .Lfunc_end15-_ZN3std2io5error14repr_bitpacked11decode_repr17h1f693d28a21b6ddeE
	.cfi_endproc
	.section	.rodata._ZN3std2io5error14repr_bitpacked11decode_repr17h1f693d28a21b6ddeE,"a",@progbits
	.p2align	2, 0x0
.LJTI15_0:
	.long	.LBB15_4-.LJTI15_0
	.long	.LBB15_5-.LJTI15_0
	.long	.LBB15_2-.LJTI15_0
	.long	.LBB15_3-.LJTI15_0
	.section	.gcc_except_table._ZN3std2io5error14repr_bitpacked11decode_repr17h1f693d28a21b6ddeE,"a",@progbits
	.p2align	2, 0x0
GCC_except_table15:
.Lexception7:
	.byte	255
	.byte	255
	.byte	1
	.uleb128 .Lcst_end7-.Lcst_begin7
.Lcst_begin7:
	.uleb128 .Ltmp75-.Lfunc_begin7
	.uleb128 .Ltmp72-.Ltmp75
	.uleb128 .Ltmp77-.Lfunc_begin7
	.byte	0
	.uleb128 .Ltmp72-.Lfunc_begin7
	.uleb128 .Lfunc_end15-.Ltmp72
	.byte	0
	.byte	0
.Lcst_end7:
	.p2align	2, 0x0

	.section	.text._ZN3std2io5error14repr_bitpacked11decode_repr17hbd6e9770ae1c7b82E,"ax",@progbits
	.p2align	4, 0x90
	.type	_ZN3std2io5error14repr_bitpacked11decode_repr17hbd6e9770ae1c7b82E,@function
_ZN3std2io5error14repr_bitpacked11decode_repr17hbd6e9770ae1c7b82E:
.Lfunc_begin8:
	.cfi_startproc
	.cfi_personality 155, DW.ref.rust_eh_personality
	.cfi_lsda 27, .Lexception8
	subq	$136, %rsp
	.cfi_def_cfa_offset 144
	movq	%rsi, 24(%rsp)
	movq	%rdi, 32(%rsp)
	movq	%rdi, 40(%rsp)
	movb	$1, 95(%rsp)
	movq	%rsi, 56(%rsp)
	movq	56(%rsp), %rax
	andl	$3, %eax
	movq	%rax, 48(%rsp)
	subq	$3, %rax
	ja	.LBB16_1
	movq	48(%rsp), %rax
	leaq	.LJTI16_0(%rip), %rcx
	movslq	(%rcx,%rax,4), %rax
	addq	%rcx, %rax
	jmpq	*%rax
.LBB16_1:
.Ltmp82:
	leaq	.L__unnamed_8(%rip), %rdi
	leaq	.L__unnamed_9(%rip), %rdx
	movq	_ZN4core9panicking5panic17h90e84101c01877efE@GOTPCREL(%rip), %rax
	movl	$40, %esi
	callq	*%rax
.Ltmp83:
	jmp	.LBB16_13
.LBB16_2:
	movq	32(%rsp), %rax
	movq	56(%rsp), %rcx
	sarq	$32, %rcx
	movl	%ecx, 4(%rax)
	movb	$0, (%rax)
	jmp	.LBB16_6
.LBB16_3:
	movl	60(%rsp), %edi
.Ltmp80:
	callq	_ZN3std2io5error14repr_bitpacked14kind_from_prim17he79e89737f4c8102E
.Ltmp81:
	movb	%al, 23(%rsp)
	jmp	.LBB16_9
.LBB16_4:
	movq	32(%rsp), %rax
	movq	24(%rsp), %rcx
	movq	%rcx, 72(%rsp)
	movq	%rcx, 8(%rax)
	movb	$2, (%rax)
	jmp	.LBB16_6
.LBB16_5:
	movq	24(%rsp), %rax
	decq	%rax
	movq	%rax, 128(%rsp)
	movq	128(%rsp), %rax
	movq	%rax, 104(%rsp)
	movq	104(%rsp), %rax
	movq	%rax, 96(%rsp)
	movq	96(%rsp), %rax
	movb	$0, 95(%rsp)
	movq	%rax, 80(%rsp)
	movq	80(%rsp), %rdi
.Ltmp78:
	callq	_ZN78_$LT$std..io..error..repr_bitpacked..Repr$u20$as$u20$core..ops..drop..Drop$GT$4drop28_$u7b$$u7b$closure$u7d$$u7d$17he64226938d239bfeE
.Ltmp79:
	movq	%rax, 8(%rsp)
	jmp	.LBB16_10
.LBB16_6:
	testb	$1, 95(%rsp)
	jne	.LBB16_12
	jmp	.LBB16_11
.LBB16_7:
	testb	$1, 95(%rsp)
	jne	.LBB16_15
	jmp	.LBB16_14
.LBB16_8:
.Ltmp84:
	movq	%rax, %rcx
	movl	%edx, %eax
	movq	%rcx, 112(%rsp)
	movl	%eax, 120(%rsp)
	jmp	.LBB16_7
.LBB16_9:
	movq	32(%rsp), %rax
	movb	23(%rsp), %cl
	movb	%cl, 71(%rsp)
	movb	71(%rsp), %cl
	movb	%cl, 1(%rax)
	movb	$1, (%rax)
	jmp	.LBB16_6
.LBB16_10:
	movq	32(%rsp), %rax
	movq	8(%rsp), %rcx
	movq	%rcx, 8(%rax)
	movb	$3, (%rax)
	jmp	.LBB16_6
.LBB16_11:
	movq	40(%rsp), %rax
	addq	$136, %rsp
	.cfi_def_cfa_offset 8
	retq
.LBB16_12:
	.cfi_def_cfa_offset 144
	jmp	.LBB16_11
.LBB16_13:
	ud2
.LBB16_14:
	movq	112(%rsp), %rdi
	callq	_Unwind_Resume@PLT
.LBB16_15:
	jmp	.LBB16_14
.Lfunc_end16:
	.size	_ZN3std2io5error14repr_bitpacked11decode_repr17hbd6e9770ae1c7b82E, .Lfunc_end16-_ZN3std2io5error14repr_bitpacked11decode_repr17hbd6e9770ae1c7b82E
	.cfi_endproc
	.section	.rodata._ZN3std2io5error14repr_bitpacked11decode_repr17hbd6e9770ae1c7b82E,"a",@progbits
	.p2align	2, 0x0
.LJTI16_0:
	.long	.LBB16_4-.LJTI16_0
	.long	.LBB16_5-.LJTI16_0
	.long	.LBB16_2-.LJTI16_0
	.long	.LBB16_3-.LJTI16_0
	.section	.gcc_except_table._ZN3std2io5error14repr_bitpacked11decode_repr17hbd6e9770ae1c7b82E,"a",@progbits
	.p2align	2, 0x0
GCC_except_table16:
.Lexception8:
	.byte	255
	.byte	255
	.byte	1
	.uleb128 .Lcst_end8-.Lcst_begin8
.Lcst_begin8:
	.uleb128 .Ltmp82-.Lfunc_begin8
	.uleb128 .Ltmp79-.Ltmp82
	.uleb128 .Ltmp84-.Lfunc_begin8
	.byte	0
	.uleb128 .Ltmp79-.Lfunc_begin8
	.uleb128 .Lfunc_end16-.Ltmp79
	.byte	0
	.byte	0
.Lcst_end8:
	.p2align	2, 0x0

	.section	.text._ZN3std2io5error14repr_bitpacked14kind_from_prim17he79e89737f4c8102E,"ax",@progbits
	.p2align	4, 0x90
	.type	_ZN3std2io5error14repr_bitpacked14kind_from_prim17he79e89737f4c8102E,@function
_ZN3std2io5error14repr_bitpacked14kind_from_prim17he79e89737f4c8102E:
	.cfi_startproc
	movl	%edi, -8(%rsp)
	cmpl	$0, -8(%rsp)
	jne	.LBB17_2
	movb	$0, -1(%rsp)
	jmp	.LBB17_3
.LBB17_2:
	cmpl	$1, -8(%rsp)
	je	.LBB17_4
	jmp	.LBB17_5
.LBB17_3:
	movb	-1(%rsp), %al
	retq
.LBB17_4:
	movb	$1, -1(%rsp)
	jmp	.LBB17_3
.LBB17_5:
	cmpl	$2, -8(%rsp)
	jne	.LBB17_7
	movb	$2, -1(%rsp)
	jmp	.LBB17_3
.LBB17_7:
	cmpl	$3, -8(%rsp)
	jne	.LBB17_9
	movb	$3, -1(%rsp)
	jmp	.LBB17_3
.LBB17_9:
	cmpl	$4, -8(%rsp)
	jne	.LBB17_11
	movb	$4, -1(%rsp)
	jmp	.LBB17_3
.LBB17_11:
	cmpl	$5, -8(%rsp)
	jne	.LBB17_13
	movb	$5, -1(%rsp)
	jmp	.LBB17_3
.LBB17_13:
	cmpl	$6, -8(%rsp)
	jne	.LBB17_15
	movb	$6, -1(%rsp)
	jmp	.LBB17_3
.LBB17_15:
	cmpl	$7, -8(%rsp)
	jne	.LBB17_17
	movb	$7, -1(%rsp)
	jmp	.LBB17_3
.LBB17_17:
	cmpl	$8, -8(%rsp)
	jne	.LBB17_19
	movb	$8, -1(%rsp)
	jmp	.LBB17_3
.LBB17_19:
	cmpl	$9, -8(%rsp)
	jne	.LBB17_21
	movb	$9, -1(%rsp)
	jmp	.LBB17_3
.LBB17_21:
	cmpl	$10, -8(%rsp)
	jne	.LBB17_23
	movb	$10, -1(%rsp)
	jmp	.LBB17_3
.LBB17_23:
	cmpl	$11, -8(%rsp)
	jne	.LBB17_25
	movb	$11, -1(%rsp)
	jmp	.LBB17_3
.LBB17_25:
	cmpl	$12, -8(%rsp)
	jne	.LBB17_27
	movb	$12, -1(%rsp)
	jmp	.LBB17_3
.LBB17_27:
	cmpl	$13, -8(%rsp)
	jne	.LBB17_29
	movb	$13, -1(%rsp)
	jmp	.LBB17_3
.LBB17_29:
	cmpl	$14, -8(%rsp)
	jne	.LBB17_31
	movb	$14, -1(%rsp)
	jmp	.LBB17_3
.LBB17_31:
	cmpl	$15, -8(%rsp)
	jne	.LBB17_33
	movb	$15, -1(%rsp)
	jmp	.LBB17_3
.LBB17_33:
	cmpl	$16, -8(%rsp)
	jne	.LBB17_35
	movb	$16, -1(%rsp)
	jmp	.LBB17_3
.LBB17_35:
	cmpl	$17, -8(%rsp)
	jne	.LBB17_37
	movb	$17, -1(%rsp)
	jmp	.LBB17_3
.LBB17_37:
	cmpl	$18, -8(%rsp)
	jne	.LBB17_39
	movb	$18, -1(%rsp)
	jmp	.LBB17_3
.LBB17_39:
	cmpl	$19, -8(%rsp)
	jne	.LBB17_41
	movb	$19, -1(%rsp)
	jmp	.LBB17_3
.LBB17_41:
	cmpl	$20, -8(%rsp)
	jne	.LBB17_43
	movb	$20, -1(%rsp)
	jmp	.LBB17_3
.LBB17_43:
	cmpl	$21, -8(%rsp)
	jne	.LBB17_45
	movb	$21, -1(%rsp)
	jmp	.LBB17_3
.LBB17_45:
	cmpl	$22, -8(%rsp)
	jne	.LBB17_47
	movb	$22, -1(%rsp)
	jmp	.LBB17_3
.LBB17_47:
	cmpl	$23, -8(%rsp)
	jne	.LBB17_49
	movb	$23, -1(%rsp)
	jmp	.LBB17_3
.LBB17_49:
	cmpl	$24, -8(%rsp)
	jne	.LBB17_51
	movb	$24, -1(%rsp)
	jmp	.LBB17_3
.LBB17_51:
	cmpl	$25, -8(%rsp)
	jne	.LBB17_53
	movb	$25, -1(%rsp)
	jmp	.LBB17_3
.LBB17_53:
	cmpl	$26, -8(%rsp)
	jne	.LBB17_55
	movb	$26, -1(%rsp)
	jmp	.LBB17_3
.LBB17_55:
	cmpl	$27, -8(%rsp)
	jne	.LBB17_57
	movb	$27, -1(%rsp)
	jmp	.LBB17_3
.LBB17_57:
	cmpl	$28, -8(%rsp)
	jne	.LBB17_59
	movb	$28, -1(%rsp)
	jmp	.LBB17_3
.LBB17_59:
	cmpl	$29, -8(%rsp)
	jne	.LBB17_61
	movb	$29, -1(%rsp)
	jmp	.LBB17_3
.LBB17_61:
	cmpl	$30, -8(%rsp)
	jne	.LBB17_63
	movb	$30, -1(%rsp)
	jmp	.LBB17_3
.LBB17_63:
	cmpl	$31, -8(%rsp)
	jne	.LBB17_65
	movb	$31, -1(%rsp)
	jmp	.LBB17_3
.LBB17_65:
	cmpl	$32, -8(%rsp)
	jne	.LBB17_67
	movb	$32, -1(%rsp)
	jmp	.LBB17_3
.LBB17_67:
	cmpl	$33, -8(%rsp)
	jne	.LBB17_69
	movb	$33, -1(%rsp)
	jmp	.LBB17_3
.LBB17_69:
	cmpl	$34, -8(%rsp)
	jne	.LBB17_71
	movb	$34, -1(%rsp)
	jmp	.LBB17_3
.LBB17_71:
	cmpl	$35, -8(%rsp)
	jne	.LBB17_73
	movb	$35, -1(%rsp)
	jmp	.LBB17_3
.LBB17_73:
	cmpl	$39, -8(%rsp)
	jne	.LBB17_75
	movb	$39, -1(%rsp)
	jmp	.LBB17_3
.LBB17_75:
	cmpl	$37, -8(%rsp)
	jne	.LBB17_77
	movb	$37, -1(%rsp)
	jmp	.LBB17_3
.LBB17_77:
	cmpl	$36, -8(%rsp)
	jne	.LBB17_79
	movb	$36, -1(%rsp)
	jmp	.LBB17_3
.LBB17_79:
	cmpl	$38, -8(%rsp)
	jne	.LBB17_81
	movb	$38, -1(%rsp)
	jmp	.LBB17_3
.LBB17_81:
	cmpl	$40, -8(%rsp)
	jne	.LBB17_83
	movb	$40, -1(%rsp)
	jmp	.LBB17_3
.LBB17_83:
	movb	$41, -1(%rsp)
	jmp	.LBB17_3
.Lfunc_end17:
	.size	_ZN3std2io5error14repr_bitpacked14kind_from_prim17he79e89737f4c8102E, .Lfunc_end17-_ZN3std2io5error14repr_bitpacked14kind_from_prim17he79e89737f4c8102E
	.cfi_endproc

	.section	".text._ZN3std2io5error14repr_bitpacked4Repr4data28_$u7b$$u7b$closure$u7d$$u7d$17h90e936dce1ba68b0E","ax",@progbits
	.p2align	4, 0x90
	.type	_ZN3std2io5error14repr_bitpacked4Repr4data28_$u7b$$u7b$closure$u7d$$u7d$17h90e936dce1ba68b0E,@function
_ZN3std2io5error14repr_bitpacked4Repr4data28_$u7b$$u7b$closure$u7d$$u7d$17h90e936dce1ba68b0E:
	.cfi_startproc
	movq	%rdi, %rax
	retq
.Lfunc_end18:
	.size	_ZN3std2io5error14repr_bitpacked4Repr4data28_$u7b$$u7b$closure$u7d$$u7d$17h90e936dce1ba68b0E, .Lfunc_end18-_ZN3std2io5error14repr_bitpacked4Repr4data28_$u7b$$u7b$closure$u7d$$u7d$17h90e936dce1ba68b0E
	.cfi_endproc

	.section	.text._ZN3std2io5error5Error14is_interrupted17h7cfece5e6a413c87E,"ax",@progbits
	.p2align	4, 0x90
	.type	_ZN3std2io5error5Error14is_interrupted17h7cfece5e6a413c87E,@function
_ZN3std2io5error5Error14is_interrupted17h7cfece5e6a413c87E:
	.cfi_startproc
	subq	$40, %rsp
	.cfi_def_cfa_offset 48
	movq	(%rdi), %rsi
	leaq	16(%rsp), %rdi
	callq	_ZN3std2io5error14repr_bitpacked11decode_repr17h1f693d28a21b6ddeE
	movzbl	16(%rsp), %eax
	movq	%rax, (%rsp)
	movq	(%rsp), %rax
	leaq	.LJTI19_0(%rip), %rcx
	movslq	(%rcx,%rax,4), %rax
	addq	%rcx, %rax
	jmpq	*%rax
	.cfi_def_cfa_offset 8
	ud2
.LBB19_2:
	.cfi_def_cfa_offset 48
	cmpl	$4, 20(%rsp)
	sete	%al
	andb	$1, %al
	movb	%al, 15(%rsp)
	jmp	.LBB19_6
.LBB19_3:
	movb	17(%rsp), %al
	movb	%al, 39(%rsp)
	movzbl	39(%rsp), %eax
	cmpq	$35, %rax
	sete	%al
	andb	$1, %al
	movb	%al, 15(%rsp)
	jmp	.LBB19_6
.LBB19_4:
	movq	24(%rsp), %rax
	movzbl	16(%rax), %eax
	cmpq	$35, %rax
	sete	%al
	andb	$1, %al
	movb	%al, 15(%rsp)
	jmp	.LBB19_6
.LBB19_5:
	movq	24(%rsp), %rax
	movzbl	16(%rax), %eax
	cmpq	$35, %rax
	sete	%al
	andb	$1, %al
	movb	%al, 15(%rsp)
.LBB19_6:
	movb	15(%rsp), %al
	andb	$1, %al
	movzbl	%al, %eax
	addq	$40, %rsp
	.cfi_def_cfa_offset 8
	retq
.Lfunc_end19:
	.size	_ZN3std2io5error5Error14is_interrupted17h7cfece5e6a413c87E, .Lfunc_end19-_ZN3std2io5error5Error14is_interrupted17h7cfece5e6a413c87E
	.cfi_endproc
	.section	.rodata._ZN3std2io5error5Error14is_interrupted17h7cfece5e6a413c87E,"a",@progbits
	.p2align	2, 0x0
.LJTI19_0:
	.long	.LBB19_2-.LJTI19_0
	.long	.LBB19_3-.LJTI19_0
	.long	.LBB19_4-.LJTI19_0
	.long	.LBB19_5-.LJTI19_0

	.section	.text._ZN3std2rt10lang_start17h1719adfc618e3401E,"ax",@progbits
	.hidden	_ZN3std2rt10lang_start17h1719adfc618e3401E
	.globl	_ZN3std2rt10lang_start17h1719adfc618e3401E
	.p2align	4, 0x90
	.type	_ZN3std2rt10lang_start17h1719adfc618e3401E,@function
_ZN3std2rt10lang_start17h1719adfc618e3401E:
	.cfi_startproc
	subq	$24, %rsp
	.cfi_def_cfa_offset 32
	movl	%ecx, %eax
	movq	%rdx, %rcx
	movq	%rsi, %rdx
	movq	%rdi, 16(%rsp)
	leaq	16(%rsp), %rdi
	leaq	.L__unnamed_10(%rip), %rsi
	movzbl	%al, %r8d
	callq	*_ZN3std2rt19lang_start_internal17hdaf8b62dc8f7de54E@GOTPCREL(%rip)
	movq	%rax, 8(%rsp)
	movq	8(%rsp), %rax
	addq	$24, %rsp
	.cfi_def_cfa_offset 8
	retq
.Lfunc_end20:
	.size	_ZN3std2rt10lang_start17h1719adfc618e3401E, .Lfunc_end20-_ZN3std2rt10lang_start17h1719adfc618e3401E
	.cfi_endproc

	.section	".text._ZN3std2rt10lang_start28_$u7b$$u7b$closure$u7d$$u7d$17hc3b95e149f85e59cE","ax",@progbits
	.p2align	4, 0x90
	.type	_ZN3std2rt10lang_start28_$u7b$$u7b$closure$u7d$$u7d$17hc3b95e149f85e59cE,@function
_ZN3std2rt10lang_start28_$u7b$$u7b$closure$u7d$$u7d$17hc3b95e149f85e59cE:
	.cfi_startproc
	pushq	%rax
	.cfi_def_cfa_offset 16
	movq	(%rdi), %rdi
	callq	_ZN3std10sys_common9backtrace28__rust_begin_short_backtrace17hfb2863b8b954a8fdE
	movq	%rax, %rdi
	callq	_ZN79_$LT$core..result..Result$LT$T$C$E$GT$$u20$as$u20$std..process..Termination$GT$6report17h87b3dea198ac2596E
	movb	%al, 7(%rsp)
	movzbl	7(%rsp), %eax
	popq	%rcx
	.cfi_def_cfa_offset 8
	retq
.Lfunc_end21:
	.size	_ZN3std2rt10lang_start28_$u7b$$u7b$closure$u7d$$u7d$17hc3b95e149f85e59cE, .Lfunc_end21-_ZN3std2rt10lang_start28_$u7b$$u7b$closure$u7d$$u7d$17hc3b95e149f85e59cE
	.cfi_endproc

	.section	.text._ZN3std3sys3pal4unix11kernel_copy10CopyResult11update_take17h29b74f5c06be53dcE,"ax",@progbits
	.p2align	4, 0x90
	.type	_ZN3std3sys3pal4unix11kernel_copy10CopyResult11update_take17h29b74f5c06be53dcE,@function
_ZN3std3sys3pal4unix11kernel_copy10CopyResult11update_take17h29b74f5c06be53dcE:
	.cfi_startproc
	subq	$40, %rsp
	.cfi_def_cfa_offset 48
	movq	%rdi, 8(%rsp)
	movq	%rsi, 16(%rsp)
	movq	(%rdi), %rax
	movq	%rax, 24(%rsp)
	testq	%rax, %rax
	je	.LBB22_2
	jmp	.LBB22_6
.LBB22_6:
	movq	24(%rsp), %rax
	subq	$1, %rax
	je	.LBB22_3
	jmp	.LBB22_7
.LBB22_7:
	jmp	.LBB22_4
	.cfi_def_cfa_offset 8
	ud2
.LBB22_2:
	.cfi_def_cfa_offset 48
	movq	8(%rsp), %rax
	movq	8(%rax), %rax
	movq	%rax, 32(%rsp)
	jmp	.LBB22_5
.LBB22_3:
	movq	8(%rsp), %rax
	movq	8(%rax), %rax
	movq	%rax, 32(%rsp)
	jmp	.LBB22_5
.LBB22_4:
	movq	8(%rsp), %rax
	movq	8(%rax), %rax
	movq	%rax, 32(%rsp)
.LBB22_5:
	movq	16(%rsp), %rdi
	movq	32(%rsp), %rsi
	callq	_ZN3std3sys3pal4unix11kernel_copy8CopyRead5taken17h95b9f2dcb14e0a09E
	addq	$40, %rsp
	.cfi_def_cfa_offset 8
	retq
.Lfunc_end22:
	.size	_ZN3std3sys3pal4unix11kernel_copy10CopyResult11update_take17h29b74f5c06be53dcE, .Lfunc_end22-_ZN3std3sys3pal4unix11kernel_copy10CopyResult11update_take17h29b74f5c06be53dcE
	.cfi_endproc

	.section	.text._ZN3std3sys3pal4unix11kernel_copy16safe_kernel_copy17h3325a7c5946387e6E,"ax",@progbits
	.p2align	4, 0x90
	.type	_ZN3std3sys3pal4unix11kernel_copy16safe_kernel_copy17h3325a7c5946387e6E,@function
_ZN3std3sys3pal4unix11kernel_copy16safe_kernel_copy17h3325a7c5946387e6E:
	.cfi_startproc
	movq	%rdi, -80(%rsp)
	movq	%rsi, -72(%rsp)
	movq	(%rdi), %rcx
	movq	%rcx, %rdx
	addq	$-2, %rdx
	decq	%rcx
	xorl	%eax, %eax
	subq	$3, %rdx
	cmovbq	%rcx, %rax
	movq	%rax, -64(%rsp)
	testq	%rax, %rax
	je	.LBB23_2
	jmp	.LBB23_17
.LBB23_17:
	movq	-64(%rsp), %rax
	subq	$1, %rax
	je	.LBB23_3
	jmp	.LBB23_18
.LBB23_18:
	movq	-64(%rsp), %rax
	subq	$2, %rax
	je	.LBB23_4
	jmp	.LBB23_1
.LBB23_1:
	movq	-72(%rsp), %rax
	movq	(%rax), %rdx
	subq	$2, %rdx
	movq	%rdx, %rcx
	addq	$1, %rcx
	xorl	%eax, %eax
	cmpq	$2, %rdx
	cmovbeq	%rcx, %rax
	cmpq	$0, %rax
	je	.LBB23_10
	jmp	.LBB23_11
.LBB23_2:
	movq	-80(%rsp), %rax
	movq	%rax, -48(%rsp)
	movq	-48(%rsp), %rax
	movl	56(%rax), %eax
	movl	%eax, -16(%rsp)
	movl	-16(%rsp), %eax
	movl	%eax, -40(%rsp)
	movl	-40(%rsp), %eax
	andl	$61440, %eax
	cmpl	$4096, %eax
	je	.LBB23_5
	jmp	.LBB23_6
.LBB23_3:
	movb	$1, -49(%rsp)
	jmp	.LBB23_9
.LBB23_4:
	movb	$1, -49(%rsp)
	jmp	.LBB23_9
.LBB23_5:
	jmp	.LBB23_7
.LBB23_6:
	movq	-48(%rsp), %rax
	movl	56(%rax), %eax
	movl	%eax, -12(%rsp)
	movl	-12(%rsp), %eax
	movl	%eax, -36(%rsp)
	movl	-36(%rsp), %eax
	andl	$61440, %eax
	cmpl	$49152, %eax
	jne	.LBB23_8
.LBB23_7:
	movb	$1, -49(%rsp)
	jmp	.LBB23_9
.LBB23_8:
	jmp	.LBB23_1
.LBB23_9:
	movb	-49(%rsp), %al
	andb	$1, %al
	movzbl	%al, %eax
	retq
.LBB23_10:
	movq	-72(%rsp), %rax
	movq	%rax, -32(%rsp)
	movq	-32(%rsp), %rax
	movl	56(%rax), %eax
	movl	%eax, -8(%rsp)
	movl	-8(%rsp), %eax
	movl	%eax, -24(%rsp)
	movl	-24(%rsp), %eax
	andl	$61440, %eax
	cmpl	$4096, %eax
	je	.LBB23_12
	jmp	.LBB23_13
.LBB23_11:
	movb	$0, -49(%rsp)
	jmp	.LBB23_9
.LBB23_12:
	jmp	.LBB23_14
.LBB23_13:
	movq	-32(%rsp), %rax
	movl	56(%rax), %eax
	movl	%eax, -4(%rsp)
	movl	-4(%rsp), %eax
	movl	%eax, -20(%rsp)
	movl	-20(%rsp), %eax
	andl	$61440, %eax
	cmpl	$49152, %eax
	je	.LBB23_15
	jmp	.LBB23_16
.LBB23_14:
	jmp	.LBB23_11
.LBB23_15:
	jmp	.LBB23_14
.LBB23_16:
	movb	$1, -49(%rsp)
	jmp	.LBB23_9
.Lfunc_end23:
	.size	_ZN3std3sys3pal4unix11kernel_copy16safe_kernel_copy17h3325a7c5946387e6E, .Lfunc_end23-_ZN3std3sys3pal4unix11kernel_copy16safe_kernel_copy17h3325a7c5946387e6E
	.cfi_endproc

	.section	.text._ZN3std3sys3pal4unix11kernel_copy6FdMeta10maybe_fifo17h39e9235d3d756970E,"ax",@progbits
	.p2align	4, 0x90
	.type	_ZN3std3sys3pal4unix11kernel_copy6FdMeta10maybe_fifo17h39e9235d3d756970E,@function
_ZN3std3sys3pal4unix11kernel_copy6FdMeta10maybe_fifo17h39e9235d3d756970E:
	.cfi_startproc
	movq	%rdi, -32(%rsp)
	movq	(%rdi), %rcx
	movq	%rcx, %rdx
	addq	$-2, %rdx
	decq	%rcx
	xorl	%eax, %eax
	subq	$3, %rdx
	cmovbq	%rcx, %rax
	movq	%rax, -24(%rsp)
	movq	-24(%rsp), %rax
	leaq	.LJTI24_0(%rip), %rcx
	movslq	(%rcx,%rax,4), %rax
	addq	%rcx, %rax
	jmpq	*%rax
	ud2
.LBB24_2:
	movq	-32(%rsp), %rax
	movl	56(%rax), %eax
	movl	%eax, -4(%rsp)
	movl	-4(%rsp), %eax
	movl	%eax, -8(%rsp)
	movl	-8(%rsp), %eax
	andl	$61440, %eax
	cmpl	$4096, %eax
	sete	%al
	andb	$1, %al
	movb	%al, -9(%rsp)
	jmp	.LBB24_6
.LBB24_3:
	movb	$0, -9(%rsp)
	jmp	.LBB24_6
.LBB24_4:
	movb	$1, -9(%rsp)
	jmp	.LBB24_6
.LBB24_5:
	movb	$1, -9(%rsp)
.LBB24_6:
	movb	-9(%rsp), %al
	andb	$1, %al
	movzbl	%al, %eax
	retq
.Lfunc_end24:
	.size	_ZN3std3sys3pal4unix11kernel_copy6FdMeta10maybe_fifo17h39e9235d3d756970E, .Lfunc_end24-_ZN3std3sys3pal4unix11kernel_copy6FdMeta10maybe_fifo17h39e9235d3d756970E
	.cfi_endproc
	.section	.rodata._ZN3std3sys3pal4unix11kernel_copy6FdMeta10maybe_fifo17h39e9235d3d756970E,"a",@progbits
	.p2align	2, 0x0
.LJTI24_0:
	.long	.LBB24_2-.LJTI24_0
	.long	.LBB24_3-.LJTI24_0
	.long	.LBB24_4-.LJTI24_0
	.long	.LBB24_5-.LJTI24_0

	.section	.text._ZN3std3sys3pal4unix11kernel_copy6FdMeta25copy_file_range_candidate17h36b80ee8a6c84a2bE,"ax",@progbits
	.p2align	4, 0x90
	.type	_ZN3std3sys3pal4unix11kernel_copy6FdMeta25copy_file_range_candidate17h36b80ee8a6c84a2bE,@function
_ZN3std3sys3pal4unix11kernel_copy6FdMeta25copy_file_range_candidate17h36b80ee8a6c84a2bE:
	.cfi_startproc
	movq	%rdi, -48(%rsp)
	movb	%sil, %al
	andb	$1, %al
	movb	%al, -34(%rsp)
	movq	(%rdi), %rdx
	subq	$2, %rdx
	movq	%rdx, %rcx
	addq	$1, %rcx
	xorl	%eax, %eax
	cmpq	$2, %rdx
	cmovbeq	%rcx, %rax
	cmpq	$0, %rax
	jne	.LBB25_2
	movq	-48(%rsp), %rax
	movq	%rax, -32(%rsp)
	movb	-34(%rsp), %al
	andb	$1, %al
	movzbl	%al, %eax
	cmpq	$0, %rax
	je	.LBB25_3
	jmp	.LBB25_4
.LBB25_2:
	movb	$0, -33(%rsp)
	jmp	.LBB25_10
.LBB25_3:
	movq	-32(%rsp), %rax
	movl	56(%rax), %eax
	movl	%eax, -12(%rsp)
	movl	-12(%rsp), %eax
	movl	%eax, -16(%rsp)
	movl	-16(%rsp), %eax
	andl	$61440, %eax
	cmpl	$32768, %eax
	je	.LBB25_5
	jmp	.LBB25_6
.LBB25_4:
	jmp	.LBB25_9
.LBB25_5:
	movq	-32(%rsp), %rax
	cmpq	$0, 80(%rax)
	ja	.LBB25_8
	jmp	.LBB25_7
.LBB25_6:
	jmp	.LBB25_9
.LBB25_7:
	jmp	.LBB25_9
.LBB25_8:
	movb	$1, -33(%rsp)
	jmp	.LBB25_10
.LBB25_9:
	movq	-48(%rsp), %rax
	movq	%rax, -24(%rsp)
	movb	-34(%rsp), %al
	andb	$1, %al
	movzbl	%al, %eax
	cmpq	$1, %rax
	je	.LBB25_11
	jmp	.LBB25_12
.LBB25_10:
	movb	-33(%rsp), %al
	andb	$1, %al
	movzbl	%al, %eax
	retq
.LBB25_11:
	movq	-24(%rsp), %rax
	movl	56(%rax), %eax
	movl	%eax, -4(%rsp)
	movl	-4(%rsp), %eax
	movl	%eax, -8(%rsp)
	movl	-8(%rsp), %eax
	andl	$61440, %eax
	cmpl	$32768, %eax
	je	.LBB25_13
	jmp	.LBB25_14
.LBB25_12:
	jmp	.LBB25_15
.LBB25_13:
	movb	$1, -33(%rsp)
	jmp	.LBB25_10
.LBB25_14:
	jmp	.LBB25_15
.LBB25_15:
	jmp	.LBB25_2
.Lfunc_end25:
	.size	_ZN3std3sys3pal4unix11kernel_copy6FdMeta25copy_file_range_candidate17h36b80ee8a6c84a2bE, .Lfunc_end25-_ZN3std3sys3pal4unix11kernel_copy6FdMeta25copy_file_range_candidate17h36b80ee8a6c84a2bE
	.cfi_endproc

	.section	.text._ZN3std3sys3pal4unix11kernel_copy6FdMeta25potential_sendfile_source17he59172390964f607E,"ax",@progbits
	.p2align	4, 0x90
	.type	_ZN3std3sys3pal4unix11kernel_copy6FdMeta25potential_sendfile_source17he59172390964f607E,@function
_ZN3std3sys3pal4unix11kernel_copy6FdMeta25potential_sendfile_source17he59172390964f607E:
	.cfi_startproc
	movq	%rdi, -40(%rsp)
	movq	(%rdi), %rdx
	subq	$2, %rdx
	movq	%rdx, %rcx
	addq	$1, %rcx
	xorl	%eax, %eax
	cmpq	$2, %rdx
	cmovbeq	%rcx, %rax
	cmpq	$0, %rax
	jne	.LBB26_2
	movq	-40(%rsp), %rax
	movq	%rax, -24(%rsp)
	movq	-24(%rsp), %rax
	movl	56(%rax), %eax
	movl	%eax, -8(%rsp)
	movl	-8(%rsp), %eax
	movl	%eax, -16(%rsp)
	movl	-16(%rsp), %eax
	andl	$61440, %eax
	cmpl	$32768, %eax
	je	.LBB26_3
	jmp	.LBB26_4
.LBB26_2:
	movb	$0, -25(%rsp)
	jmp	.LBB26_10
.LBB26_3:
	movq	-24(%rsp), %rax
	cmpq	$0, 80(%rax)
	ja	.LBB26_6
	jmp	.LBB26_5
.LBB26_4:
	jmp	.LBB26_7
.LBB26_5:
	jmp	.LBB26_7
.LBB26_6:
	jmp	.LBB26_8
.LBB26_7:
	movq	-24(%rsp), %rax
	movl	56(%rax), %eax
	movl	%eax, -4(%rsp)
	movl	-4(%rsp), %eax
	movl	%eax, -12(%rsp)
	movl	-12(%rsp), %eax
	andl	$61440, %eax
	cmpl	$24576, %eax
	jne	.LBB26_9
.LBB26_8:
	movb	$1, -25(%rsp)
	jmp	.LBB26_10
.LBB26_9:
	jmp	.LBB26_2
.LBB26_10:
	movb	-25(%rsp), %al
	andb	$1, %al
	movzbl	%al, %eax
	retq
.Lfunc_end26:
	.size	_ZN3std3sys3pal4unix11kernel_copy6FdMeta25potential_sendfile_source17he59172390964f607E, .Lfunc_end26-_ZN3std3sys3pal4unix11kernel_copy6FdMeta25potential_sendfile_source17he59172390964f607E
	.cfi_endproc

	.section	.text._ZN3std3sys3pal4unix11kernel_copy8CopyRead5taken17h95b9f2dcb14e0a09E,"ax",@progbits
	.p2align	4, 0x90
	.type	_ZN3std3sys3pal4unix11kernel_copy8CopyRead5taken17h95b9f2dcb14e0a09E,@function
_ZN3std3sys3pal4unix11kernel_copy8CopyRead5taken17h95b9f2dcb14e0a09E:
	.cfi_startproc
	retq
.Lfunc_end27:
	.size	_ZN3std3sys3pal4unix11kernel_copy8CopyRead5taken17h95b9f2dcb14e0a09E, .Lfunc_end27-_ZN3std3sys3pal4unix11kernel_copy8CopyRead5taken17h95b9f2dcb14e0a09E
	.cfi_endproc

	.section	.text._ZN3std3sys3pal4unix11kernel_copy8CopyRead8drain_to17h034db53cc2c5e058E,"ax",@progbits
	.p2align	4, 0x90
	.type	_ZN3std3sys3pal4unix11kernel_copy8CopyRead8drain_to17h034db53cc2c5e058E,@function
_ZN3std3sys3pal4unix11kernel_copy8CopyRead8drain_to17h034db53cc2c5e058E:
	.cfi_startproc
	movq	%rdi, %rax
	movq	$0, 8(%rdi)
	movq	$0, (%rdi)
	retq
.Lfunc_end28:
	.size	_ZN3std3sys3pal4unix11kernel_copy8CopyRead8drain_to17h034db53cc2c5e058E, .Lfunc_end28-_ZN3std3sys3pal4unix11kernel_copy8CopyRead8drain_to17h034db53cc2c5e058E
	.cfi_endproc

	.section	.text._ZN3std3sys3pal4unix11kernel_copy8CopyRead9min_limit17hb8680cb828537b00E,"ax",@progbits
	.p2align	4, 0x90
	.type	_ZN3std3sys3pal4unix11kernel_copy8CopyRead9min_limit17hb8680cb828537b00E,@function
_ZN3std3sys3pal4unix11kernel_copy8CopyRead9min_limit17hb8680cb828537b00E:
	.cfi_startproc
	movq	$-1, %rax
	retq
.Lfunc_end29:
	.size	_ZN3std3sys3pal4unix11kernel_copy8CopyRead9min_limit17hb8680cb828537b00E, .Lfunc_end29-_ZN3std3sys3pal4unix11kernel_copy8CopyRead9min_limit17hb8680cb828537b00E
	.cfi_endproc

	.section	".text._ZN3std4path95_$LT$impl$u20$core..convert..AsRef$LT$std..path..Path$GT$$u20$for$u20$alloc..string..String$GT$6as_ref17h9cd1d2aff8ce4e03E","ax",@progbits
	.p2align	4, 0x90
	.type	_ZN3std4path95_$LT$impl$u20$core..convert..AsRef$LT$std..path..Path$GT$$u20$for$u20$alloc..string..String$GT$6as_ref17h9cd1d2aff8ce4e03E,@function
_ZN3std4path95_$LT$impl$u20$core..convert..AsRef$LT$std..path..Path$GT$$u20$for$u20$alloc..string..String$GT$6as_ref17h9cd1d2aff8ce4e03E:
	.cfi_startproc
	movq	8(%rdi), %rcx
	movq	16(%rdi), %rax
	movq	%rcx, -16(%rsp)
	movq	%rax, -8(%rsp)
	movq	-16(%rsp), %rcx
	movq	-8(%rsp), %rax
	movq	%rcx, -32(%rsp)
	movq	%rax, -24(%rsp)
	movq	-32(%rsp), %rax
	movq	-24(%rsp), %rdx
	retq
.Lfunc_end30:
	.size	_ZN3std4path95_$LT$impl$u20$core..convert..AsRef$LT$std..path..Path$GT$$u20$for$u20$alloc..string..String$GT$6as_ref17h9cd1d2aff8ce4e03E, .Lfunc_end30-_ZN3std4path95_$LT$impl$u20$core..convert..AsRef$LT$std..path..Path$GT$$u20$for$u20$alloc..string..String$GT$6as_ref17h9cd1d2aff8ce4e03E
	.cfi_endproc

	.section	".text._ZN42_$LT$$RF$T$u20$as$u20$core..fmt..Debug$GT$3fmt17h45287504caf7022fE","ax",@progbits
	.p2align	4, 0x90
	.type	_ZN42_$LT$$RF$T$u20$as$u20$core..fmt..Debug$GT$3fmt17h45287504caf7022fE,@function
_ZN42_$LT$$RF$T$u20$as$u20$core..fmt..Debug$GT$3fmt17h45287504caf7022fE:
	.cfi_startproc
	pushq	%rax
	.cfi_def_cfa_offset 16
	movq	(%rdi), %rdi
	callq	_ZN66_$LT$core..option..Option$LT$T$GT$$u20$as$u20$core..fmt..Debug$GT$3fmt17h27e79a8e10bedd61E
	andb	$1, %al
	movzbl	%al, %eax
	popq	%rcx
	.cfi_def_cfa_offset 8
	retq
.Lfunc_end31:
	.size	_ZN42_$LT$$RF$T$u20$as$u20$core..fmt..Debug$GT$3fmt17h45287504caf7022fE, .Lfunc_end31-_ZN42_$LT$$RF$T$u20$as$u20$core..fmt..Debug$GT$3fmt17h45287504caf7022fE
	.cfi_endproc

	.section	".text._ZN42_$LT$$RF$T$u20$as$u20$core..fmt..Debug$GT$3fmt17h9ce51080d038cf92E","ax",@progbits
	.p2align	4, 0x90
	.type	_ZN42_$LT$$RF$T$u20$as$u20$core..fmt..Debug$GT$3fmt17h9ce51080d038cf92E,@function
_ZN42_$LT$$RF$T$u20$as$u20$core..fmt..Debug$GT$3fmt17h9ce51080d038cf92E:
	.cfi_startproc
	pushq	%rax
	.cfi_def_cfa_offset 16
	movq	(%rdi), %rdi
	callq	_ZN4core3fmt3num52_$LT$impl$u20$core..fmt..Debug$u20$for$u20$usize$GT$3fmt17h7792937e66ef858cE
	andb	$1, %al
	movzbl	%al, %eax
	popq	%rcx
	.cfi_def_cfa_offset 8
	retq
.Lfunc_end32:
	.size	_ZN42_$LT$$RF$T$u20$as$u20$core..fmt..Debug$GT$3fmt17h9ce51080d038cf92E, .Lfunc_end32-_ZN42_$LT$$RF$T$u20$as$u20$core..fmt..Debug$GT$3fmt17h9ce51080d038cf92E
	.cfi_endproc

	.section	".text._ZN44_$LT$$RF$T$u20$as$u20$core..fmt..Display$GT$3fmt17hff0645f98a8dc8bfE","ax",@progbits
	.p2align	4, 0x90
	.type	_ZN44_$LT$$RF$T$u20$as$u20$core..fmt..Display$GT$3fmt17hff0645f98a8dc8bfE,@function
_ZN44_$LT$$RF$T$u20$as$u20$core..fmt..Display$GT$3fmt17hff0645f98a8dc8bfE:
	.cfi_startproc
	pushq	%rax
	.cfi_def_cfa_offset 16
	movq	(%rdi), %rdi
	callq	_ZN60_$LT$alloc..string..String$u20$as$u20$core..fmt..Display$GT$3fmt17hdc1769c9ca8a6302E
	andb	$1, %al
	movzbl	%al, %eax
	popq	%rcx
	.cfi_def_cfa_offset 8
	retq
.Lfunc_end33:
	.size	_ZN44_$LT$$RF$T$u20$as$u20$core..fmt..Display$GT$3fmt17hff0645f98a8dc8bfE, .Lfunc_end33-_ZN44_$LT$$RF$T$u20$as$u20$core..fmt..Display$GT$3fmt17hff0645f98a8dc8bfE
	.cfi_endproc

	.section	".text._ZN48_$LT$std..fs..File$u20$as$u20$std..io..Write$GT$5flush17h8780e1b614259fecE","ax",@progbits
	.p2align	4, 0x90
	.type	_ZN48_$LT$std..fs..File$u20$as$u20$std..io..Write$GT$5flush17h8780e1b614259fecE,@function
_ZN48_$LT$std..fs..File$u20$as$u20$std..io..Write$GT$5flush17h8780e1b614259fecE:
	.cfi_startproc
	movq	%rdi, -8(%rsp)
	xorl	%eax, %eax
	retq
.Lfunc_end34:
	.size	_ZN48_$LT$std..fs..File$u20$as$u20$std..io..Write$GT$5flush17h8780e1b614259fecE, .Lfunc_end34-_ZN48_$LT$std..fs..File$u20$as$u20$std..io..Write$GT$5flush17h8780e1b614259fecE
	.cfi_endproc

	.section	".text._ZN4core3cmp5impls50_$LT$impl$u20$core..cmp..Ord$u20$for$u20$usize$GT$3cmp17h5df40ff70462898aE","ax",@progbits
	.p2align	4, 0x90
	.type	_ZN4core3cmp5impls50_$LT$impl$u20$core..cmp..Ord$u20$for$u20$usize$GT$3cmp17h5df40ff70462898aE,@function
_ZN4core3cmp5impls50_$LT$impl$u20$core..cmp..Ord$u20$for$u20$usize$GT$3cmp17h5df40ff70462898aE:
	.cfi_startproc
	movq	(%rdi), %rax
	movq	%rax, -24(%rsp)
	movq	(%rsi), %rcx
	movq	%rcx, -16(%rsp)
	cmpq	%rcx, %rax
	jb	.LBB35_2
	movq	-24(%rsp), %rax
	movq	-16(%rsp), %rcx
	cmpq	%rcx, %rax
	je	.LBB35_4
	jmp	.LBB35_3
.LBB35_2:
	movb	$-1, -1(%rsp)
	jmp	.LBB35_6
.LBB35_3:
	movb	$1, -1(%rsp)
	jmp	.LBB35_5
.LBB35_4:
	movb	$0, -1(%rsp)
.LBB35_5:
	jmp	.LBB35_6
.LBB35_6:
	movb	-1(%rsp), %al
	retq
.Lfunc_end35:
	.size	_ZN4core3cmp5impls50_$LT$impl$u20$core..cmp..Ord$u20$for$u20$usize$GT$3cmp17h5df40ff70462898aE, .Lfunc_end35-_ZN4core3cmp5impls50_$LT$impl$u20$core..cmp..Ord$u20$for$u20$usize$GT$3cmp17h5df40ff70462898aE
	.cfi_endproc

	.section	.text._ZN4core3cmp6max_by17h3a6b77d1f0d9f2c0E,"ax",@progbits
	.p2align	4, 0x90
	.type	_ZN4core3cmp6max_by17h3a6b77d1f0d9f2c0E,@function
_ZN4core3cmp6max_by17h3a6b77d1f0d9f2c0E:
.Lfunc_begin9:
	.cfi_startproc
	.cfi_personality 155, DW.ref.rust_eh_personality
	.cfi_lsda 27, .Lexception9
	subq	$88, %rsp
	.cfi_def_cfa_offset 96
	movq	%rdi, 16(%rsp)
	movq	%rsi, 24(%rsp)
	movb	$1, 71(%rsp)
	movb	$1, 70(%rsp)
	leaq	16(%rsp), %rax
	movq	%rax, 48(%rsp)
	leaq	24(%rsp), %rax
	movq	%rax, 56(%rsp)
	movq	48(%rsp), %rdi
	movq	56(%rsp), %rsi
.Ltmp85:
	callq	_ZN4core3ops8function6FnOnce9call_once17hdcaa9b4c7b38a161E
.Ltmp86:
	movb	%al, 15(%rsp)
	jmp	.LBB36_3
.LBB36_1:
	jmp	.LBB36_12
.LBB36_2:
.Ltmp87:
	movq	%rax, %rcx
	movl	%edx, %eax
	movq	%rcx, 72(%rsp)
	movl	%eax, 80(%rsp)
	jmp	.LBB36_1
.LBB36_3:
	movb	15(%rsp), %al
	movb	%al, 47(%rsp)
	movb	47(%rsp), %al
	incb	%al
	subb	$2, %al
	jb	.LBB36_5
	jmp	.LBB36_15
.LBB36_15:
	jmp	.LBB36_6
	.cfi_def_cfa_offset 8
	ud2
.LBB36_5:
	.cfi_def_cfa_offset 96
	movb	$0, 70(%rsp)
	movq	24(%rsp), %rax
	movq	%rax, 32(%rsp)
	jmp	.LBB36_7
.LBB36_6:
	movb	$0, 71(%rsp)
	movq	16(%rsp), %rax
	movq	%rax, 32(%rsp)
.LBB36_7:
	testb	$1, 70(%rsp)
	jne	.LBB36_9
.LBB36_8:
	testb	$1, 71(%rsp)
	jne	.LBB36_11
	jmp	.LBB36_10
.LBB36_9:
	jmp	.LBB36_8
.LBB36_10:
	movq	32(%rsp), %rax
	addq	$88, %rsp
	.cfi_def_cfa_offset 8
	retq
.LBB36_11:
	.cfi_def_cfa_offset 96
	jmp	.LBB36_10
.LBB36_12:
	testb	$1, 71(%rsp)
	jne	.LBB36_14
.LBB36_13:
	movq	72(%rsp), %rdi
	callq	_Unwind_Resume@PLT
.LBB36_14:
	jmp	.LBB36_13
.Lfunc_end36:
	.size	_ZN4core3cmp6max_by17h3a6b77d1f0d9f2c0E, .Lfunc_end36-_ZN4core3cmp6max_by17h3a6b77d1f0d9f2c0E
	.cfi_endproc
	.section	.gcc_except_table._ZN4core3cmp6max_by17h3a6b77d1f0d9f2c0E,"a",@progbits
	.p2align	2, 0x0
GCC_except_table36:
.Lexception9:
	.byte	255
	.byte	255
	.byte	1
	.uleb128 .Lcst_end9-.Lcst_begin9
.Lcst_begin9:
	.uleb128 .Ltmp85-.Lfunc_begin9
	.uleb128 .Ltmp86-.Ltmp85
	.uleb128 .Ltmp87-.Lfunc_begin9
	.byte	0
	.uleb128 .Ltmp86-.Lfunc_begin9
	.uleb128 .Lfunc_end36-.Ltmp86
	.byte	0
	.byte	0
.Lcst_end9:
	.p2align	2, 0x0

	.section	".text._ZN4core3fmt3num52_$LT$impl$u20$core..fmt..Debug$u20$for$u20$usize$GT$3fmt17h7792937e66ef858cE","ax",@progbits
	.p2align	4, 0x90
	.type	_ZN4core3fmt3num52_$LT$impl$u20$core..fmt..Debug$u20$for$u20$usize$GT$3fmt17h7792937e66ef858cE,@function
_ZN4core3fmt3num52_$LT$impl$u20$core..fmt..Debug$u20$for$u20$usize$GT$3fmt17h7792937e66ef858cE:
	.cfi_startproc
	subq	$24, %rsp
	.cfi_def_cfa_offset 32
	movq	%rdi, (%rsp)
	movq	%rsi, 8(%rsp)
	movl	52(%rsi), %eax
	andl	$16, %eax
	cmpl	$0, %eax
	jne	.LBB37_2
	movq	8(%rsp), %rax
	movl	52(%rax), %eax
	andl	$32, %eax
	cmpl	$0, %eax
	je	.LBB37_3
	jmp	.LBB37_4
.LBB37_2:
	movq	8(%rsp), %rsi
	movq	(%rsp), %rdi
	callq	*_ZN4core3fmt3num55_$LT$impl$u20$core..fmt..LowerHex$u20$for$u20$usize$GT$3fmt17h56c519c4637bcd89E@GOTPCREL(%rip)
	andb	$1, %al
	movb	%al, 23(%rsp)
	jmp	.LBB37_6
.LBB37_3:
	movq	8(%rsp), %rsi
	movq	(%rsp), %rdi
	callq	*_ZN4core3fmt3num3imp54_$LT$impl$u20$core..fmt..Display$u20$for$u20$usize$GT$3fmt17he756d3674ca19dc2E@GOTPCREL(%rip)
	andb	$1, %al
	movb	%al, 23(%rsp)
	jmp	.LBB37_5
.LBB37_4:
	movq	8(%rsp), %rsi
	movq	(%rsp), %rdi
	callq	*_ZN4core3fmt3num55_$LT$impl$u20$core..fmt..UpperHex$u20$for$u20$usize$GT$3fmt17h4907d9e86356b691E@GOTPCREL(%rip)
	andb	$1, %al
	movb	%al, 23(%rsp)
.LBB37_5:
	jmp	.LBB37_6
.LBB37_6:
	movb	23(%rsp), %al
	andb	$1, %al
	movzbl	%al, %eax
	addq	$24, %rsp
	.cfi_def_cfa_offset 8
	retq
.Lfunc_end37:
	.size	_ZN4core3fmt3num52_$LT$impl$u20$core..fmt..Debug$u20$for$u20$usize$GT$3fmt17h7792937e66ef858cE, .Lfunc_end37-_ZN4core3fmt3num52_$LT$impl$u20$core..fmt..Debug$u20$for$u20$usize$GT$3fmt17h7792937e66ef858cE
	.cfi_endproc

	.section	.text._ZN4core3fmt9Arguments6new_v117h37dde68bf1674cc8E,"ax",@progbits
	.p2align	4, 0x90
	.type	_ZN4core3fmt9Arguments6new_v117h37dde68bf1674cc8E,@function
_ZN4core3fmt9Arguments6new_v117h37dde68bf1674cc8E:
	.cfi_startproc
	subq	$152, %rsp
	.cfi_def_cfa_offset 160
	movq	%r8, 8(%rsp)
	movq	%rcx, 16(%rsp)
	movq	%rdx, 24(%rsp)
	movq	%rsi, 32(%rsp)
	movq	%rdi, 40(%rsp)
	movq	%rdi, 48(%rsp)
	cmpq	%r8, %rdx
	jb	.LBB38_2
	movq	24(%rsp), %rax
	movq	8(%rsp), %rcx
	addq	$1, %rcx
	cmpq	%rcx, %rax
	jbe	.LBB38_3
.LBB38_2:
	xorl	%eax, %eax
	testb	$1, %al
	jne	.LBB38_5
	jmp	.LBB38_4
.LBB38_3:
	movq	48(%rsp), %rax
	movq	40(%rsp), %rcx
	movq	8(%rsp), %rdx
	movq	16(%rsp), %rsi
	movq	24(%rsp), %rdi
	movq	32(%rsp), %r8
	movq	%r8, (%rcx)
	movq	%rdi, 8(%rcx)
	movq	.L__unnamed_11(%rip), %r8
	movq	.L__unnamed_11+8(%rip), %rdi
	movq	%r8, 32(%rcx)
	movq	%rdi, 40(%rcx)
	movq	%rsi, 16(%rcx)
	movq	%rdx, 24(%rcx)
	addq	$152, %rsp
	.cfi_def_cfa_offset 8
	retq
.LBB38_4:
	.cfi_def_cfa_offset 160
	leaq	.L__unnamed_12(%rip), %rax
	movq	%rax, 56(%rsp)
	movq	$1, 64(%rsp)
	movq	.L__unnamed_11(%rip), %rcx
	movq	.L__unnamed_11+8(%rip), %rax
	movq	%rcx, 88(%rsp)
	movq	%rax, 96(%rsp)
	leaq	.L__unnamed_13(%rip), %rax
	movq	%rax, 72(%rsp)
	movq	$0, 80(%rsp)
	leaq	.L__unnamed_14(%rip), %rsi
	movq	_ZN4core9panicking9panic_fmt17hc69c4d258fe11477E@GOTPCREL(%rip), %rax
	leaq	56(%rsp), %rdi
	callq	*%rax
.LBB38_5:
	leaq	.L__unnamed_12(%rip), %rsi
	leaq	104(%rsp), %rdi
	movq	%rdi, (%rsp)
	movl	$1, %edx
	callq	_ZN4core3fmt9Arguments9new_const17h77eeaeb11ba320b0E
	movq	(%rsp), %rdi
	leaq	.L__unnamed_15(%rip), %rsi
	movq	_ZN4core9panicking9panic_fmt17hc69c4d258fe11477E@GOTPCREL(%rip), %rax
	callq	*%rax
.Lfunc_end38:
	.size	_ZN4core3fmt9Arguments6new_v117h37dde68bf1674cc8E, .Lfunc_end38-_ZN4core3fmt9Arguments6new_v117h37dde68bf1674cc8E
	.cfi_endproc

	.section	.text._ZN4core3fmt9Arguments9new_const17h77eeaeb11ba320b0E,"ax",@progbits
	.p2align	4, 0x90
	.type	_ZN4core3fmt9Arguments9new_const17h77eeaeb11ba320b0E,@function
_ZN4core3fmt9Arguments9new_const17h77eeaeb11ba320b0E:
	.cfi_startproc
	subq	$88, %rsp
	.cfi_def_cfa_offset 96
	movq	%rdx, 8(%rsp)
	movq	%rsi, 16(%rsp)
	movq	%rdi, 24(%rsp)
	movq	%rdi, 32(%rsp)
	cmpq	$1, %rdx
	ja	.LBB39_2
	movq	32(%rsp), %rax
	movq	24(%rsp), %rcx
	movq	8(%rsp), %rdx
	movq	16(%rsp), %rsi
	movq	%rsi, (%rcx)
	movq	%rdx, 8(%rcx)
	movq	.L__unnamed_11(%rip), %rsi
	movq	.L__unnamed_11+8(%rip), %rdx
	movq	%rsi, 32(%rcx)
	movq	%rdx, 40(%rcx)
	leaq	.L__unnamed_13(%rip), %rdx
	movq	%rdx, 16(%rcx)
	movq	$0, 24(%rcx)
	addq	$88, %rsp
	.cfi_def_cfa_offset 8
	retq
.LBB39_2:
	.cfi_def_cfa_offset 96
	leaq	.L__unnamed_12(%rip), %rsi
	leaq	40(%rsp), %rdi
	movq	%rdi, (%rsp)
	movl	$1, %edx
	callq	_ZN4core3fmt9Arguments9new_const17h77eeaeb11ba320b0E
	movq	(%rsp), %rdi
	leaq	.L__unnamed_15(%rip), %rsi
	movq	_ZN4core9panicking9panic_fmt17hc69c4d258fe11477E@GOTPCREL(%rip), %rax
	callq	*%rax
.Lfunc_end39:
	.size	_ZN4core3fmt9Arguments9new_const17h77eeaeb11ba320b0E, .Lfunc_end39-_ZN4core3fmt9Arguments9new_const17h77eeaeb11ba320b0E
	.cfi_endproc

	.section	".text._ZN4core3ops8function6FnOnce40call_once$u7b$$u7b$vtable.shim$u7d$$u7d$17hf3fb1280503034f0E","ax",@progbits
	.p2align	4, 0x90
	.type	_ZN4core3ops8function6FnOnce40call_once$u7b$$u7b$vtable.shim$u7d$$u7d$17hf3fb1280503034f0E,@function
_ZN4core3ops8function6FnOnce40call_once$u7b$$u7b$vtable.shim$u7d$$u7d$17hf3fb1280503034f0E:
	.cfi_startproc
	pushq	%rax
	.cfi_def_cfa_offset 16
	movq	(%rdi), %rdi
	callq	_ZN4core3ops8function6FnOnce9call_once17h90b2928e589c1d3eE
	popq	%rcx
	.cfi_def_cfa_offset 8
	retq
.Lfunc_end40:
	.size	_ZN4core3ops8function6FnOnce40call_once$u7b$$u7b$vtable.shim$u7d$$u7d$17hf3fb1280503034f0E, .Lfunc_end40-_ZN4core3ops8function6FnOnce40call_once$u7b$$u7b$vtable.shim$u7d$$u7d$17hf3fb1280503034f0E
	.cfi_endproc

	.section	.text._ZN4core3ops8function6FnOnce9call_once17h90b2928e589c1d3eE,"ax",@progbits
	.p2align	4, 0x90
	.type	_ZN4core3ops8function6FnOnce9call_once17h90b2928e589c1d3eE,@function
_ZN4core3ops8function6FnOnce9call_once17h90b2928e589c1d3eE:
.Lfunc_begin10:
	.cfi_startproc
	.cfi_personality 155, DW.ref.rust_eh_personality
	.cfi_lsda 27, .Lexception10
	subq	$40, %rsp
	.cfi_def_cfa_offset 48
	movq	%rdi, 8(%rsp)
.Ltmp88:
	leaq	8(%rsp), %rdi
	callq	_ZN3std2rt10lang_start28_$u7b$$u7b$closure$u7d$$u7d$17hc3b95e149f85e59cE
.Ltmp89:
	movl	%eax, 4(%rsp)
	jmp	.LBB41_3
.LBB41_1:
	movq	24(%rsp), %rdi
	callq	_Unwind_Resume@PLT
.LBB41_2:
.Ltmp90:
	movq	%rax, %rcx
	movl	%edx, %eax
	movq	%rcx, 24(%rsp)
	movl	%eax, 32(%rsp)
	jmp	.LBB41_1
.LBB41_3:
	movl	4(%rsp), %eax
	addq	$40, %rsp
	.cfi_def_cfa_offset 8
	retq
.Lfunc_end41:
	.size	_ZN4core3ops8function6FnOnce9call_once17h90b2928e589c1d3eE, .Lfunc_end41-_ZN4core3ops8function6FnOnce9call_once17h90b2928e589c1d3eE
	.cfi_endproc
	.section	.gcc_except_table._ZN4core3ops8function6FnOnce9call_once17h90b2928e589c1d3eE,"a",@progbits
	.p2align	2, 0x0
GCC_except_table41:
.Lexception10:
	.byte	255
	.byte	255
	.byte	1
	.uleb128 .Lcst_end10-.Lcst_begin10
.Lcst_begin10:
	.uleb128 .Ltmp88-.Lfunc_begin10
	.uleb128 .Ltmp89-.Ltmp88
	.uleb128 .Ltmp90-.Lfunc_begin10
	.byte	0
	.uleb128 .Ltmp89-.Lfunc_begin10
	.uleb128 .Lfunc_end41-.Ltmp89
	.byte	0
	.byte	0
.Lcst_end10:
	.p2align	2, 0x0

	.section	.text._ZN4core3ops8function6FnOnce9call_once17hbfb9e1f55525b1eeE,"ax",@progbits
	.p2align	4, 0x90
	.type	_ZN4core3ops8function6FnOnce9call_once17hbfb9e1f55525b1eeE,@function
_ZN4core3ops8function6FnOnce9call_once17hbfb9e1f55525b1eeE:
	.cfi_startproc
	pushq	%rax
	.cfi_def_cfa_offset 16
	callq	*%rdi
	popq	%rcx
	.cfi_def_cfa_offset 8
	retq
.Lfunc_end42:
	.size	_ZN4core3ops8function6FnOnce9call_once17hbfb9e1f55525b1eeE, .Lfunc_end42-_ZN4core3ops8function6FnOnce9call_once17hbfb9e1f55525b1eeE
	.cfi_endproc

	.section	.text._ZN4core3ops8function6FnOnce9call_once17hdcaa9b4c7b38a161E,"ax",@progbits
	.p2align	4, 0x90
	.type	_ZN4core3ops8function6FnOnce9call_once17hdcaa9b4c7b38a161E,@function
_ZN4core3ops8function6FnOnce9call_once17hdcaa9b4c7b38a161E:
	.cfi_startproc
	subq	$24, %rsp
	.cfi_def_cfa_offset 32
	movq	%rdi, 8(%rsp)
	movq	%rsi, 16(%rsp)
	movq	8(%rsp), %rdi
	movq	16(%rsp), %rsi
	callq	_ZN4core3cmp5impls50_$LT$impl$u20$core..cmp..Ord$u20$for$u20$usize$GT$3cmp17h5df40ff70462898aE
	addq	$24, %rsp
	.cfi_def_cfa_offset 8
	retq
.Lfunc_end43:
	.size	_ZN4core3ops8function6FnOnce9call_once17hdcaa9b4c7b38a161E, .Lfunc_end43-_ZN4core3ops8function6FnOnce9call_once17hdcaa9b4c7b38a161E
	.cfi_endproc

	.section	".text._ZN4core3ptr101drop_in_place$LT$std..io..error..ErrorData$LT$alloc..boxed..Box$LT$std..io..error..Custom$GT$$GT$$GT$17h3e1a6d67e7592762E","ax",@progbits
	.p2align	4, 0x90
	.type	_ZN4core3ptr101drop_in_place$LT$std..io..error..ErrorData$LT$alloc..boxed..Box$LT$std..io..error..Custom$GT$$GT$$GT$17h3e1a6d67e7592762E,@function
_ZN4core3ptr101drop_in_place$LT$std..io..error..ErrorData$LT$alloc..boxed..Box$LT$std..io..error..Custom$GT$$GT$$GT$17h3e1a6d67e7592762E:
	.cfi_startproc
	pushq	%rax
	.cfi_def_cfa_offset 16
	movq	%rdi, (%rsp)
	movb	(%rdi), %al
	subb	$3, %al
	jb	.LBB44_2
	jmp	.LBB44_1
.LBB44_1:
	movq	(%rsp), %rdi
	addq	$8, %rdi
	callq	_ZN4core3ptr68drop_in_place$LT$alloc..boxed..Box$LT$std..io..error..Custom$GT$$GT$17h32ac14cc90c0cf9eE
.LBB44_2:
	popq	%rax
	.cfi_def_cfa_offset 8
	retq
.Lfunc_end44:
	.size	_ZN4core3ptr101drop_in_place$LT$std..io..error..ErrorData$LT$alloc..boxed..Box$LT$std..io..error..Custom$GT$$GT$$GT$17h3e1a6d67e7592762E, .Lfunc_end44-_ZN4core3ptr101drop_in_place$LT$std..io..error..ErrorData$LT$alloc..boxed..Box$LT$std..io..error..Custom$GT$$GT$$GT$17h3e1a6d67e7592762E
	.cfi_endproc

	.section	".text._ZN4core3ptr118drop_in_place$LT$alloc..boxed..Box$LT$dyn$u20$core..error..Error$u2b$core..marker..Send$u2b$core..marker..Sync$GT$$GT$17h16bc90138614ed9bE","ax",@progbits
	.p2align	4, 0x90
	.type	_ZN4core3ptr118drop_in_place$LT$alloc..boxed..Box$LT$dyn$u20$core..error..Error$u2b$core..marker..Send$u2b$core..marker..Sync$GT$$GT$17h16bc90138614ed9bE,@function
_ZN4core3ptr118drop_in_place$LT$alloc..boxed..Box$LT$dyn$u20$core..error..Error$u2b$core..marker..Send$u2b$core..marker..Sync$GT$$GT$17h16bc90138614ed9bE:
.Lfunc_begin11:
	.cfi_startproc
	.cfi_personality 155, DW.ref.rust_eh_personality
	.cfi_lsda 27, .Lexception11
	subq	$24, %rsp
	.cfi_def_cfa_offset 32
	movq	%rdi, %rax
	movq	%rax, (%rsp)
	movq	(%rax), %rdi
	movq	8(%rax), %rax
	movq	(%rax), %rax
.Ltmp91:
	callq	*%rax
.Ltmp92:
	jmp	.LBB45_3
.LBB45_1:
.Ltmp94:
	movq	(%rsp), %rdi
	callq	_ZN72_$LT$alloc..boxed..Box$LT$T$C$A$GT$$u20$as$u20$core..ops..drop..Drop$GT$4drop17h7c96dd90579ef415E
.Ltmp95:
	jmp	.LBB45_5
.LBB45_2:
.Ltmp93:
	movq	%rax, %rcx
	movl	%edx, %eax
	movq	%rcx, 8(%rsp)
	movl	%eax, 16(%rsp)
	jmp	.LBB45_1
.LBB45_3:
	movq	(%rsp), %rdi
	callq	_ZN72_$LT$alloc..boxed..Box$LT$T$C$A$GT$$u20$as$u20$core..ops..drop..Drop$GT$4drop17h7c96dd90579ef415E
	addq	$24, %rsp
	.cfi_def_cfa_offset 8
	retq
.LBB45_4:
	.cfi_def_cfa_offset 32
.Ltmp96:
	movq	_ZN4core9panicking16panic_in_cleanup17h76c6e1c84248d3ffE@GOTPCREL(%rip), %rax
	callq	*%rax
.LBB45_5:
	movq	8(%rsp), %rdi
	callq	_Unwind_Resume@PLT
.Lfunc_end45:
	.size	_ZN4core3ptr118drop_in_place$LT$alloc..boxed..Box$LT$dyn$u20$core..error..Error$u2b$core..marker..Send$u2b$core..marker..Sync$GT$$GT$17h16bc90138614ed9bE, .Lfunc_end45-_ZN4core3ptr118drop_in_place$LT$alloc..boxed..Box$LT$dyn$u20$core..error..Error$u2b$core..marker..Send$u2b$core..marker..Sync$GT$$GT$17h16bc90138614ed9bE
	.cfi_endproc
	.section	".gcc_except_table._ZN4core3ptr118drop_in_place$LT$alloc..boxed..Box$LT$dyn$u20$core..error..Error$u2b$core..marker..Send$u2b$core..marker..Sync$GT$$GT$17h16bc90138614ed9bE","a",@progbits
	.p2align	2, 0x0
GCC_except_table45:
.Lexception11:
	.byte	255
	.byte	155
	.uleb128 .Lttbase4-.Lttbaseref4
.Lttbaseref4:
	.byte	1
	.uleb128 .Lcst_end11-.Lcst_begin11
.Lcst_begin11:
	.uleb128 .Ltmp91-.Lfunc_begin11
	.uleb128 .Ltmp92-.Ltmp91
	.uleb128 .Ltmp93-.Lfunc_begin11
	.byte	0
	.uleb128 .Ltmp94-.Lfunc_begin11
	.uleb128 .Ltmp95-.Ltmp94
	.uleb128 .Ltmp96-.Lfunc_begin11
	.byte	1
	.uleb128 .Ltmp95-.Lfunc_begin11
	.uleb128 .Lfunc_end45-.Ltmp95
	.byte	0
	.byte	0
.Lcst_end11:
	.byte	127
	.byte	0
	.p2align	2, 0x0
.Lttbase4:
	.byte	0
	.p2align	2, 0x0

	.section	".text._ZN4core3ptr137drop_in_place$LT$std..rt..lang_start$LT$core..result..Result$LT$$LP$$RP$$C$std..io..error..Error$GT$$GT$..$u7b$$u7b$closure$u7d$$u7d$$GT$17hde78ae101826632aE","ax",@progbits
	.p2align	4, 0x90
	.type	_ZN4core3ptr137drop_in_place$LT$std..rt..lang_start$LT$core..result..Result$LT$$LP$$RP$$C$std..io..error..Error$GT$$GT$..$u7b$$u7b$closure$u7d$$u7d$$GT$17hde78ae101826632aE,@function
_ZN4core3ptr137drop_in_place$LT$std..rt..lang_start$LT$core..result..Result$LT$$LP$$RP$$C$std..io..error..Error$GT$$GT$..$u7b$$u7b$closure$u7d$$u7d$$GT$17hde78ae101826632aE:
	.cfi_startproc
	retq
.Lfunc_end46:
	.size	_ZN4core3ptr137drop_in_place$LT$std..rt..lang_start$LT$core..result..Result$LT$$LP$$RP$$C$std..io..error..Error$GT$$GT$..$u7b$$u7b$closure$u7d$$u7d$$GT$17hde78ae101826632aE, .Lfunc_end46-_ZN4core3ptr137drop_in_place$LT$std..rt..lang_start$LT$core..result..Result$LT$$LP$$RP$$C$std..io..error..Error$GT$$GT$..$u7b$$u7b$closure$u7d$$u7d$$GT$17hde78ae101826632aE
	.cfi_endproc

	.section	".text._ZN4core3ptr180drop_in_place$LT$$LT$alloc..vec..into_iter..IntoIter$LT$T$C$A$GT$$u20$as$u20$core..ops..drop..Drop$GT$..drop..DropGuard$LT$std..ffi..os_str..OsString$C$alloc..alloc..Global$GT$$GT$17hd5699c5f4aec8c73E","ax",@progbits
	.p2align	4, 0x90
	.type	_ZN4core3ptr180drop_in_place$LT$$LT$alloc..vec..into_iter..IntoIter$LT$T$C$A$GT$$u20$as$u20$core..ops..drop..Drop$GT$..drop..DropGuard$LT$std..ffi..os_str..OsString$C$alloc..alloc..Global$GT$$GT$17hd5699c5f4aec8c73E,@function
_ZN4core3ptr180drop_in_place$LT$$LT$alloc..vec..into_iter..IntoIter$LT$T$C$A$GT$$u20$as$u20$core..ops..drop..Drop$GT$..drop..DropGuard$LT$std..ffi..os_str..OsString$C$alloc..alloc..Global$GT$$GT$17hd5699c5f4aec8c73E:
	.cfi_startproc
	pushq	%rax
	.cfi_def_cfa_offset 16
	callq	_ZN157_$LT$$LT$alloc..vec..into_iter..IntoIter$LT$T$C$A$GT$$u20$as$u20$core..ops..drop..Drop$GT$..drop..DropGuard$LT$T$C$A$GT$$u20$as$u20$core..ops..drop..Drop$GT$4drop17hed1fa341ba5c5d66E
	popq	%rax
	.cfi_def_cfa_offset 8
	retq
.Lfunc_end47:
	.size	_ZN4core3ptr180drop_in_place$LT$$LT$alloc..vec..into_iter..IntoIter$LT$T$C$A$GT$$u20$as$u20$core..ops..drop..Drop$GT$..drop..DropGuard$LT$std..ffi..os_str..OsString$C$alloc..alloc..Global$GT$$GT$17hd5699c5f4aec8c73E, .Lfunc_end47-_ZN4core3ptr180drop_in_place$LT$$LT$alloc..vec..into_iter..IntoIter$LT$T$C$A$GT$$u20$as$u20$core..ops..drop..Drop$GT$..drop..DropGuard$LT$std..ffi..os_str..OsString$C$alloc..alloc..Global$GT$$GT$17hd5699c5f4aec8c73E
	.cfi_endproc

	.section	".text._ZN4core3ptr30drop_in_place$LT$$RF$usize$GT$17h766f6ca9c768b258E","ax",@progbits
	.p2align	4, 0x90
	.type	_ZN4core3ptr30drop_in_place$LT$$RF$usize$GT$17h766f6ca9c768b258E,@function
_ZN4core3ptr30drop_in_place$LT$$RF$usize$GT$17h766f6ca9c768b258E:
	.cfi_startproc
	retq
.Lfunc_end48:
	.size	_ZN4core3ptr30drop_in_place$LT$$RF$usize$GT$17h766f6ca9c768b258E, .Lfunc_end48-_ZN4core3ptr30drop_in_place$LT$$RF$usize$GT$17h766f6ca9c768b258E
	.cfi_endproc

	.section	".text._ZN4core3ptr34drop_in_place$LT$std..fs..File$GT$17hea2b88791e99f236E","ax",@progbits
	.p2align	4, 0x90
	.type	_ZN4core3ptr34drop_in_place$LT$std..fs..File$GT$17hea2b88791e99f236E,@function
_ZN4core3ptr34drop_in_place$LT$std..fs..File$GT$17hea2b88791e99f236E:
	.cfi_startproc
	pushq	%rax
	.cfi_def_cfa_offset 16
	callq	_ZN4core3ptr50drop_in_place$LT$std..sys..pal..unix..fs..File$GT$17h25e6b874ecfc6f55E
	popq	%rax
	.cfi_def_cfa_offset 8
	retq
.Lfunc_end49:
	.size	_ZN4core3ptr34drop_in_place$LT$std..fs..File$GT$17hea2b88791e99f236E, .Lfunc_end49-_ZN4core3ptr34drop_in_place$LT$std..fs..File$GT$17hea2b88791e99f236E
	.cfi_endproc

	.section	".text._ZN4core3ptr35drop_in_place$LT$std..env..Args$GT$17hbef0acb943d3eb18E","ax",@progbits
	.p2align	4, 0x90
	.type	_ZN4core3ptr35drop_in_place$LT$std..env..Args$GT$17hbef0acb943d3eb18E,@function
_ZN4core3ptr35drop_in_place$LT$std..env..Args$GT$17hbef0acb943d3eb18E:
	.cfi_startproc
	pushq	%rax
	.cfi_def_cfa_offset 16
	callq	_ZN4core3ptr37drop_in_place$LT$std..env..ArgsOs$GT$17haf8b3a5456b9c200E
	popq	%rax
	.cfi_def_cfa_offset 8
	retq
.Lfunc_end50:
	.size	_ZN4core3ptr35drop_in_place$LT$std..env..Args$GT$17hbef0acb943d3eb18E, .Lfunc_end50-_ZN4core3ptr35drop_in_place$LT$std..env..Args$GT$17hbef0acb943d3eb18E
	.cfi_endproc

	.section	".text._ZN4core3ptr37drop_in_place$LT$std..env..ArgsOs$GT$17haf8b3a5456b9c200E","ax",@progbits
	.p2align	4, 0x90
	.type	_ZN4core3ptr37drop_in_place$LT$std..env..ArgsOs$GT$17haf8b3a5456b9c200E,@function
_ZN4core3ptr37drop_in_place$LT$std..env..ArgsOs$GT$17haf8b3a5456b9c200E:
	.cfi_startproc
	pushq	%rax
	.cfi_def_cfa_offset 16
	callq	_ZN4core3ptr52drop_in_place$LT$std..sys..pal..unix..args..Args$GT$17h83a2cd4fbc563a84E
	popq	%rax
	.cfi_def_cfa_offset 8
	retq
.Lfunc_end51:
	.size	_ZN4core3ptr37drop_in_place$LT$std..env..ArgsOs$GT$17haf8b3a5456b9c200E, .Lfunc_end51-_ZN4core3ptr37drop_in_place$LT$std..env..ArgsOs$GT$17haf8b3a5456b9c200E
	.cfi_endproc

	.section	".text._ZN4core3ptr42drop_in_place$LT$alloc..string..String$GT$17hbd640e9f4100243dE","ax",@progbits
	.p2align	4, 0x90
	.type	_ZN4core3ptr42drop_in_place$LT$alloc..string..String$GT$17hbd640e9f4100243dE,@function
_ZN4core3ptr42drop_in_place$LT$alloc..string..String$GT$17hbd640e9f4100243dE:
	.cfi_startproc
	pushq	%rax
	.cfi_def_cfa_offset 16
	callq	_ZN4core3ptr46drop_in_place$LT$alloc..vec..Vec$LT$u8$GT$$GT$17hfe8406d2ace6e81aE
	popq	%rax
	.cfi_def_cfa_offset 8
	retq
.Lfunc_end52:
	.size	_ZN4core3ptr42drop_in_place$LT$alloc..string..String$GT$17hbd640e9f4100243dE, .Lfunc_end52-_ZN4core3ptr42drop_in_place$LT$alloc..string..String$GT$17hbd640e9f4100243dE
	.cfi_endproc

	.section	".text._ZN4core3ptr42drop_in_place$LT$std..io..error..Error$GT$17h08f9bdf5567baf6eE","ax",@progbits
	.p2align	4, 0x90
	.type	_ZN4core3ptr42drop_in_place$LT$std..io..error..Error$GT$17h08f9bdf5567baf6eE,@function
_ZN4core3ptr42drop_in_place$LT$std..io..error..Error$GT$17h08f9bdf5567baf6eE:
	.cfi_startproc
	pushq	%rax
	.cfi_def_cfa_offset 16
	callq	_ZN4core3ptr57drop_in_place$LT$std..io..error..repr_bitpacked..Repr$GT$17h3382578503e088e9E
	popq	%rax
	.cfi_def_cfa_offset 8
	retq
.Lfunc_end53:
	.size	_ZN4core3ptr42drop_in_place$LT$std..io..error..Error$GT$17h08f9bdf5567baf6eE, .Lfunc_end53-_ZN4core3ptr42drop_in_place$LT$std..io..error..Error$GT$17h08f9bdf5567baf6eE
	.cfi_endproc

	.section	".text._ZN4core3ptr43drop_in_place$LT$std..io..error..Custom$GT$17h36ba99eef8b05302E","ax",@progbits
	.p2align	4, 0x90
	.type	_ZN4core3ptr43drop_in_place$LT$std..io..error..Custom$GT$17h36ba99eef8b05302E,@function
_ZN4core3ptr43drop_in_place$LT$std..io..error..Custom$GT$17h36ba99eef8b05302E:
	.cfi_startproc
	pushq	%rax
	.cfi_def_cfa_offset 16
	callq	_ZN4core3ptr118drop_in_place$LT$alloc..boxed..Box$LT$dyn$u20$core..error..Error$u2b$core..marker..Send$u2b$core..marker..Sync$GT$$GT$17h16bc90138614ed9bE
	popq	%rax
	.cfi_def_cfa_offset 8
	retq
.Lfunc_end54:
	.size	_ZN4core3ptr43drop_in_place$LT$std..io..error..Custom$GT$17h36ba99eef8b05302E, .Lfunc_end54-_ZN4core3ptr43drop_in_place$LT$std..io..error..Custom$GT$17h36ba99eef8b05302E
	.cfi_endproc

	.section	".text._ZN4core3ptr46drop_in_place$LT$alloc..vec..Vec$LT$u8$GT$$GT$17hfe8406d2ace6e81aE","ax",@progbits
	.p2align	4, 0x90
	.type	_ZN4core3ptr46drop_in_place$LT$alloc..vec..Vec$LT$u8$GT$$GT$17hfe8406d2ace6e81aE,@function
_ZN4core3ptr46drop_in_place$LT$alloc..vec..Vec$LT$u8$GT$$GT$17hfe8406d2ace6e81aE:
.Lfunc_begin12:
	.cfi_startproc
	.cfi_personality 155, DW.ref.rust_eh_personality
	.cfi_lsda 27, .Lexception12
	subq	$24, %rsp
	.cfi_def_cfa_offset 32
	movq	%rdi, (%rsp)
.Ltmp97:
	callq	_ZN70_$LT$alloc..vec..Vec$LT$T$C$A$GT$$u20$as$u20$core..ops..drop..Drop$GT$4drop17h17b1e6a97600d8a4E
.Ltmp98:
	jmp	.LBB55_3
.LBB55_1:
.Ltmp100:
	movq	(%rsp), %rdi
	callq	_ZN4core3ptr53drop_in_place$LT$alloc..raw_vec..RawVec$LT$u8$GT$$GT$17h52487ef6e8109359E
.Ltmp101:
	jmp	.LBB55_5
.LBB55_2:
.Ltmp99:
	movq	%rax, %rcx
	movl	%edx, %eax
	movq	%rcx, 8(%rsp)
	movl	%eax, 16(%rsp)
	jmp	.LBB55_1
.LBB55_3:
	movq	(%rsp), %rdi
	callq	_ZN4core3ptr53drop_in_place$LT$alloc..raw_vec..RawVec$LT$u8$GT$$GT$17h52487ef6e8109359E
	addq	$24, %rsp
	.cfi_def_cfa_offset 8
	retq
.LBB55_4:
	.cfi_def_cfa_offset 32
.Ltmp102:
	movq	_ZN4core9panicking16panic_in_cleanup17h76c6e1c84248d3ffE@GOTPCREL(%rip), %rax
	callq	*%rax
.LBB55_5:
	movq	8(%rsp), %rdi
	callq	_Unwind_Resume@PLT
.Lfunc_end55:
	.size	_ZN4core3ptr46drop_in_place$LT$alloc..vec..Vec$LT$u8$GT$$GT$17hfe8406d2ace6e81aE, .Lfunc_end55-_ZN4core3ptr46drop_in_place$LT$alloc..vec..Vec$LT$u8$GT$$GT$17hfe8406d2ace6e81aE
	.cfi_endproc
	.section	".gcc_except_table._ZN4core3ptr46drop_in_place$LT$alloc..vec..Vec$LT$u8$GT$$GT$17hfe8406d2ace6e81aE","a",@progbits
	.p2align	2, 0x0
GCC_except_table55:
.Lexception12:
	.byte	255
	.byte	155
	.uleb128 .Lttbase5-.Lttbaseref5
.Lttbaseref5:
	.byte	1
	.uleb128 .Lcst_end12-.Lcst_begin12
.Lcst_begin12:
	.uleb128 .Ltmp97-.Lfunc_begin12
	.uleb128 .Ltmp98-.Ltmp97
	.uleb128 .Ltmp99-.Lfunc_begin12
	.byte	0
	.uleb128 .Ltmp100-.Lfunc_begin12
	.uleb128 .Ltmp101-.Ltmp100
	.uleb128 .Ltmp102-.Lfunc_begin12
	.byte	1
	.uleb128 .Ltmp101-.Lfunc_begin12
	.uleb128 .Lfunc_end55-.Ltmp101
	.byte	0
	.byte	0
.Lcst_end12:
	.byte	127
	.byte	0
	.p2align	2, 0x0
.Lttbase5:
	.byte	0
	.p2align	2, 0x0

	.section	".text._ZN4core3ptr47drop_in_place$LT$std..ffi..os_str..OsString$GT$17h3478b2f592572161E","ax",@progbits
	.p2align	4, 0x90
	.type	_ZN4core3ptr47drop_in_place$LT$std..ffi..os_str..OsString$GT$17h3478b2f592572161E,@function
_ZN4core3ptr47drop_in_place$LT$std..ffi..os_str..OsString$GT$17h3478b2f592572161E:
	.cfi_startproc
	pushq	%rax
	.cfi_def_cfa_offset 16
	callq	_ZN4core3ptr49drop_in_place$LT$std..sys..os_str..bytes..Buf$GT$17h018e4b91233acdbcE
	popq	%rax
	.cfi_def_cfa_offset 8
	retq
.Lfunc_end56:
	.size	_ZN4core3ptr47drop_in_place$LT$std..ffi..os_str..OsString$GT$17h3478b2f592572161E, .Lfunc_end56-_ZN4core3ptr47drop_in_place$LT$std..ffi..os_str..OsString$GT$17h3478b2f592572161E
	.cfi_endproc

	.section	".text._ZN4core3ptr48drop_in_place$LT$std..os..fd..owned..OwnedFd$GT$17hc1769a6664b419f3E","ax",@progbits
	.p2align	4, 0x90
	.type	_ZN4core3ptr48drop_in_place$LT$std..os..fd..owned..OwnedFd$GT$17hc1769a6664b419f3E,@function
_ZN4core3ptr48drop_in_place$LT$std..os..fd..owned..OwnedFd$GT$17hc1769a6664b419f3E:
	.cfi_startproc
	pushq	%rax
	.cfi_def_cfa_offset 16
	callq	_ZN69_$LT$std..os..fd..owned..OwnedFd$u20$as$u20$core..ops..drop..Drop$GT$4drop17h5c7ba6c8d2126adcE
	popq	%rax
	.cfi_def_cfa_offset 8
	retq
.Lfunc_end57:
	.size	_ZN4core3ptr48drop_in_place$LT$std..os..fd..owned..OwnedFd$GT$17hc1769a6664b419f3E, .Lfunc_end57-_ZN4core3ptr48drop_in_place$LT$std..os..fd..owned..OwnedFd$GT$17hc1769a6664b419f3E
	.cfi_endproc

	.section	".text._ZN4core3ptr49drop_in_place$LT$std..sys..os_str..bytes..Buf$GT$17h018e4b91233acdbcE","ax",@progbits
	.p2align	4, 0x90
	.type	_ZN4core3ptr49drop_in_place$LT$std..sys..os_str..bytes..Buf$GT$17h018e4b91233acdbcE,@function
_ZN4core3ptr49drop_in_place$LT$std..sys..os_str..bytes..Buf$GT$17h018e4b91233acdbcE:
	.cfi_startproc
	pushq	%rax
	.cfi_def_cfa_offset 16
	callq	_ZN4core3ptr46drop_in_place$LT$alloc..vec..Vec$LT$u8$GT$$GT$17hfe8406d2ace6e81aE
	popq	%rax
	.cfi_def_cfa_offset 8
	retq
.Lfunc_end58:
	.size	_ZN4core3ptr49drop_in_place$LT$std..sys..os_str..bytes..Buf$GT$17h018e4b91233acdbcE, .Lfunc_end58-_ZN4core3ptr49drop_in_place$LT$std..sys..os_str..bytes..Buf$GT$17h018e4b91233acdbcE
	.cfi_endproc

	.section	".text._ZN4core3ptr50drop_in_place$LT$std..sys..pal..unix..fs..File$GT$17h25e6b874ecfc6f55E","ax",@progbits
	.p2align	4, 0x90
	.type	_ZN4core3ptr50drop_in_place$LT$std..sys..pal..unix..fs..File$GT$17h25e6b874ecfc6f55E,@function
_ZN4core3ptr50drop_in_place$LT$std..sys..pal..unix..fs..File$GT$17h25e6b874ecfc6f55E:
	.cfi_startproc
	pushq	%rax
	.cfi_def_cfa_offset 16
	callq	_ZN4core3ptr54drop_in_place$LT$std..sys..pal..unix..fd..FileDesc$GT$17h23446dd852c0d6abE
	popq	%rax
	.cfi_def_cfa_offset 8
	retq
.Lfunc_end59:
	.size	_ZN4core3ptr50drop_in_place$LT$std..sys..pal..unix..fs..File$GT$17h25e6b874ecfc6f55E, .Lfunc_end59-_ZN4core3ptr50drop_in_place$LT$std..sys..pal..unix..fs..File$GT$17h25e6b874ecfc6f55E
	.cfi_endproc

	.section	".text._ZN4core3ptr52drop_in_place$LT$$u5b$alloc..string..String$u5d$$GT$17hbd4bc016fb5c86d3E","ax",@progbits
	.p2align	4, 0x90
	.type	_ZN4core3ptr52drop_in_place$LT$$u5b$alloc..string..String$u5d$$GT$17hbd4bc016fb5c86d3E,@function
_ZN4core3ptr52drop_in_place$LT$$u5b$alloc..string..String$u5d$$GT$17hbd4bc016fb5c86d3E:
.Lfunc_begin13:
	.cfi_startproc
	.cfi_personality 155, DW.ref.rust_eh_personality
	.cfi_lsda 27, .Lexception13
	subq	$40, %rsp
	.cfi_def_cfa_offset 48
	movq	%rdi, (%rsp)
	movq	%rsi, 8(%rsp)
	movq	$0, 16(%rsp)
.LBB60_1:
	movq	8(%rsp), %rax
	cmpq	%rax, 16(%rsp)
	je	.LBB60_3
	movq	(%rsp), %rcx
	movq	16(%rsp), %rax
	leaq	(%rax,%rax,2), %rdx
	leaq	(%rcx,%rdx,8), %rdi
	incq	%rax
	movq	%rax, 16(%rsp)
.Ltmp103:
	callq	_ZN4core3ptr42drop_in_place$LT$alloc..string..String$GT$17hbd640e9f4100243dE
.Ltmp104:
	jmp	.LBB60_1
.LBB60_3:
	addq	$40, %rsp
	.cfi_def_cfa_offset 8
	retq
.LBB60_4:
	.cfi_def_cfa_offset 48
	movq	8(%rsp), %rax
	cmpq	%rax, 16(%rsp)
	je	.LBB60_7
	jmp	.LBB60_6
.LBB60_5:
.Ltmp105:
	movq	%rax, %rcx
	movl	%edx, %eax
	movq	%rcx, 24(%rsp)
	movl	%eax, 32(%rsp)
	jmp	.LBB60_4
.LBB60_6:
	movq	(%rsp), %rcx
	movq	16(%rsp), %rax
	leaq	(%rax,%rax,2), %rdx
	leaq	(%rcx,%rdx,8), %rdi
	incq	%rax
	movq	%rax, 16(%rsp)
.Ltmp106:
	callq	_ZN4core3ptr42drop_in_place$LT$alloc..string..String$GT$17hbd640e9f4100243dE
.Ltmp107:
	jmp	.LBB60_4
.LBB60_7:
	movq	24(%rsp), %rdi
	callq	_Unwind_Resume@PLT
.LBB60_8:
.Ltmp108:
	movq	_ZN4core9panicking16panic_in_cleanup17h76c6e1c84248d3ffE@GOTPCREL(%rip), %rax
	callq	*%rax
.Lfunc_end60:
	.size	_ZN4core3ptr52drop_in_place$LT$$u5b$alloc..string..String$u5d$$GT$17hbd4bc016fb5c86d3E, .Lfunc_end60-_ZN4core3ptr52drop_in_place$LT$$u5b$alloc..string..String$u5d$$GT$17hbd4bc016fb5c86d3E
	.cfi_endproc
	.section	".gcc_except_table._ZN4core3ptr52drop_in_place$LT$$u5b$alloc..string..String$u5d$$GT$17hbd4bc016fb5c86d3E","a",@progbits
	.p2align	2, 0x0
GCC_except_table60:
.Lexception13:
	.byte	255
	.byte	155
	.uleb128 .Lttbase6-.Lttbaseref6
.Lttbaseref6:
	.byte	1
	.uleb128 .Lcst_end13-.Lcst_begin13
.Lcst_begin13:
	.uleb128 .Ltmp103-.Lfunc_begin13
	.uleb128 .Ltmp104-.Ltmp103
	.uleb128 .Ltmp105-.Lfunc_begin13
	.byte	0
	.uleb128 .Ltmp106-.Lfunc_begin13
	.uleb128 .Ltmp107-.Ltmp106
	.uleb128 .Ltmp108-.Lfunc_begin13
	.byte	1
	.uleb128 .Ltmp107-.Lfunc_begin13
	.uleb128 .Lfunc_end60-.Ltmp107
	.byte	0
	.byte	0
.Lcst_end13:
	.byte	127
	.byte	0
	.p2align	2, 0x0
.Lttbase6:
	.byte	0
	.p2align	2, 0x0

	.section	".text._ZN4core3ptr52drop_in_place$LT$std..sys..pal..unix..args..Args$GT$17h83a2cd4fbc563a84E","ax",@progbits
	.p2align	4, 0x90
	.type	_ZN4core3ptr52drop_in_place$LT$std..sys..pal..unix..args..Args$GT$17h83a2cd4fbc563a84E,@function
_ZN4core3ptr52drop_in_place$LT$std..sys..pal..unix..args..Args$GT$17h83a2cd4fbc563a84E:
	.cfi_startproc
	pushq	%rax
	.cfi_def_cfa_offset 16
	callq	_ZN4core3ptr86drop_in_place$LT$alloc..vec..into_iter..IntoIter$LT$std..ffi..os_str..OsString$GT$$GT$17hc702a5a6b63ba371E
	popq	%rax
	.cfi_def_cfa_offset 8
	retq
.Lfunc_end61:
	.size	_ZN4core3ptr52drop_in_place$LT$std..sys..pal..unix..args..Args$GT$17h83a2cd4fbc563a84E, .Lfunc_end61-_ZN4core3ptr52drop_in_place$LT$std..sys..pal..unix..args..Args$GT$17h83a2cd4fbc563a84E
	.cfi_endproc

	.section	".text._ZN4core3ptr53drop_in_place$LT$alloc..raw_vec..RawVec$LT$u8$GT$$GT$17h52487ef6e8109359E","ax",@progbits
	.p2align	4, 0x90
	.type	_ZN4core3ptr53drop_in_place$LT$alloc..raw_vec..RawVec$LT$u8$GT$$GT$17h52487ef6e8109359E,@function
_ZN4core3ptr53drop_in_place$LT$alloc..raw_vec..RawVec$LT$u8$GT$$GT$17h52487ef6e8109359E:
	.cfi_startproc
	pushq	%rax
	.cfi_def_cfa_offset 16
	callq	_ZN77_$LT$alloc..raw_vec..RawVec$LT$T$C$A$GT$$u20$as$u20$core..ops..drop..Drop$GT$4drop17hc34110e4d353d0a0E
	popq	%rax
	.cfi_def_cfa_offset 8
	retq
.Lfunc_end62:
	.size	_ZN4core3ptr53drop_in_place$LT$alloc..raw_vec..RawVec$LT$u8$GT$$GT$17h52487ef6e8109359E, .Lfunc_end62-_ZN4core3ptr53drop_in_place$LT$alloc..raw_vec..RawVec$LT$u8$GT$$GT$17h52487ef6e8109359E
	.cfi_endproc

	.section	".text._ZN4core3ptr54drop_in_place$LT$std..sys..pal..unix..fd..FileDesc$GT$17h23446dd852c0d6abE","ax",@progbits
	.p2align	4, 0x90
	.type	_ZN4core3ptr54drop_in_place$LT$std..sys..pal..unix..fd..FileDesc$GT$17h23446dd852c0d6abE,@function
_ZN4core3ptr54drop_in_place$LT$std..sys..pal..unix..fd..FileDesc$GT$17h23446dd852c0d6abE:
	.cfi_startproc
	pushq	%rax
	.cfi_def_cfa_offset 16
	callq	_ZN4core3ptr48drop_in_place$LT$std..os..fd..owned..OwnedFd$GT$17hc1769a6664b419f3E
	popq	%rax
	.cfi_def_cfa_offset 8
	retq
.Lfunc_end63:
	.size	_ZN4core3ptr54drop_in_place$LT$std..sys..pal..unix..fd..FileDesc$GT$17h23446dd852c0d6abE, .Lfunc_end63-_ZN4core3ptr54drop_in_place$LT$std..sys..pal..unix..fd..FileDesc$GT$17h23446dd852c0d6abE
	.cfi_endproc

	.section	".text._ZN4core3ptr57drop_in_place$LT$$u5b$std..ffi..os_str..OsString$u5d$$GT$17hd728b86dd96954edE","ax",@progbits
	.p2align	4, 0x90
	.type	_ZN4core3ptr57drop_in_place$LT$$u5b$std..ffi..os_str..OsString$u5d$$GT$17hd728b86dd96954edE,@function
_ZN4core3ptr57drop_in_place$LT$$u5b$std..ffi..os_str..OsString$u5d$$GT$17hd728b86dd96954edE:
.Lfunc_begin14:
	.cfi_startproc
	.cfi_personality 155, DW.ref.rust_eh_personality
	.cfi_lsda 27, .Lexception14
	subq	$40, %rsp
	.cfi_def_cfa_offset 48
	movq	%rdi, (%rsp)
	movq	%rsi, 8(%rsp)
	movq	$0, 16(%rsp)
.LBB64_1:
	movq	8(%rsp), %rax
	cmpq	%rax, 16(%rsp)
	je	.LBB64_3
	movq	(%rsp), %rcx
	movq	16(%rsp), %rax
	leaq	(%rax,%rax,2), %rdx
	leaq	(%rcx,%rdx,8), %rdi
	incq	%rax
	movq	%rax, 16(%rsp)
.Ltmp109:
	callq	_ZN4core3ptr47drop_in_place$LT$std..ffi..os_str..OsString$GT$17h3478b2f592572161E
.Ltmp110:
	jmp	.LBB64_1
.LBB64_3:
	addq	$40, %rsp
	.cfi_def_cfa_offset 8
	retq
.LBB64_4:
	.cfi_def_cfa_offset 48
	movq	8(%rsp), %rax
	cmpq	%rax, 16(%rsp)
	je	.LBB64_7
	jmp	.LBB64_6
.LBB64_5:
.Ltmp111:
	movq	%rax, %rcx
	movl	%edx, %eax
	movq	%rcx, 24(%rsp)
	movl	%eax, 32(%rsp)
	jmp	.LBB64_4
.LBB64_6:
	movq	(%rsp), %rcx
	movq	16(%rsp), %rax
	leaq	(%rax,%rax,2), %rdx
	leaq	(%rcx,%rdx,8), %rdi
	incq	%rax
	movq	%rax, 16(%rsp)
.Ltmp112:
	callq	_ZN4core3ptr47drop_in_place$LT$std..ffi..os_str..OsString$GT$17h3478b2f592572161E
.Ltmp113:
	jmp	.LBB64_4
.LBB64_7:
	movq	24(%rsp), %rdi
	callq	_Unwind_Resume@PLT
.LBB64_8:
.Ltmp114:
	movq	_ZN4core9panicking16panic_in_cleanup17h76c6e1c84248d3ffE@GOTPCREL(%rip), %rax
	callq	*%rax
.Lfunc_end64:
	.size	_ZN4core3ptr57drop_in_place$LT$$u5b$std..ffi..os_str..OsString$u5d$$GT$17hd728b86dd96954edE, .Lfunc_end64-_ZN4core3ptr57drop_in_place$LT$$u5b$std..ffi..os_str..OsString$u5d$$GT$17hd728b86dd96954edE
	.cfi_endproc
	.section	".gcc_except_table._ZN4core3ptr57drop_in_place$LT$$u5b$std..ffi..os_str..OsString$u5d$$GT$17hd728b86dd96954edE","a",@progbits
	.p2align	2, 0x0
GCC_except_table64:
.Lexception14:
	.byte	255
	.byte	155
	.uleb128 .Lttbase7-.Lttbaseref7
.Lttbaseref7:
	.byte	1
	.uleb128 .Lcst_end14-.Lcst_begin14
.Lcst_begin14:
	.uleb128 .Ltmp109-.Lfunc_begin14
	.uleb128 .Ltmp110-.Ltmp109
	.uleb128 .Ltmp111-.Lfunc_begin14
	.byte	0
	.uleb128 .Ltmp112-.Lfunc_begin14
	.uleb128 .Ltmp113-.Ltmp112
	.uleb128 .Ltmp114-.Lfunc_begin14
	.byte	1
	.uleb128 .Ltmp113-.Lfunc_begin14
	.uleb128 .Lfunc_end64-.Ltmp113
	.byte	0
	.byte	0
.Lcst_end14:
	.byte	127
	.byte	0
	.p2align	2, 0x0
.Lttbase7:
	.byte	0
	.p2align	2, 0x0

	.section	".text._ZN4core3ptr57drop_in_place$LT$std..io..error..repr_bitpacked..Repr$GT$17h3382578503e088e9E","ax",@progbits
	.p2align	4, 0x90
	.type	_ZN4core3ptr57drop_in_place$LT$std..io..error..repr_bitpacked..Repr$GT$17h3382578503e088e9E,@function
_ZN4core3ptr57drop_in_place$LT$std..io..error..repr_bitpacked..Repr$GT$17h3382578503e088e9E:
	.cfi_startproc
	pushq	%rax
	.cfi_def_cfa_offset 16
	callq	_ZN78_$LT$std..io..error..repr_bitpacked..Repr$u20$as$u20$core..ops..drop..Drop$GT$4drop17h51155c6adb578f4eE
	popq	%rax
	.cfi_def_cfa_offset 8
	retq
.Lfunc_end65:
	.size	_ZN4core3ptr57drop_in_place$LT$std..io..error..repr_bitpacked..Repr$GT$17h3382578503e088e9E, .Lfunc_end65-_ZN4core3ptr57drop_in_place$LT$std..io..error..repr_bitpacked..Repr$GT$17h3382578503e088e9E
	.cfi_endproc

	.section	".text._ZN4core3ptr58drop_in_place$LT$$RF$core..option..Option$LT$usize$GT$$GT$17h9437f65745570cefE","ax",@progbits
	.p2align	4, 0x90
	.type	_ZN4core3ptr58drop_in_place$LT$$RF$core..option..Option$LT$usize$GT$$GT$17h9437f65745570cefE,@function
_ZN4core3ptr58drop_in_place$LT$$RF$core..option..Option$LT$usize$GT$$GT$17h9437f65745570cefE:
	.cfi_startproc
	retq
.Lfunc_end66:
	.size	_ZN4core3ptr58drop_in_place$LT$$RF$core..option..Option$LT$usize$GT$$GT$17h9437f65745570cefE, .Lfunc_end66-_ZN4core3ptr58drop_in_place$LT$$RF$core..option..Option$LT$usize$GT$$GT$17h9437f65745570cefE
	.cfi_endproc

	.section	".text._ZN4core3ptr65drop_in_place$LT$alloc..vec..Vec$LT$alloc..string..String$GT$$GT$17hba13f3a7ddd1bdbaE","ax",@progbits
	.p2align	4, 0x90
	.type	_ZN4core3ptr65drop_in_place$LT$alloc..vec..Vec$LT$alloc..string..String$GT$$GT$17hba13f3a7ddd1bdbaE,@function
_ZN4core3ptr65drop_in_place$LT$alloc..vec..Vec$LT$alloc..string..String$GT$$GT$17hba13f3a7ddd1bdbaE:
.Lfunc_begin15:
	.cfi_startproc
	.cfi_personality 155, DW.ref.rust_eh_personality
	.cfi_lsda 27, .Lexception15
	subq	$24, %rsp
	.cfi_def_cfa_offset 32
	movq	%rdi, (%rsp)
.Ltmp115:
	callq	_ZN70_$LT$alloc..vec..Vec$LT$T$C$A$GT$$u20$as$u20$core..ops..drop..Drop$GT$4drop17h38c744234ad4851cE
.Ltmp116:
	jmp	.LBB67_3
.LBB67_1:
.Ltmp118:
	movq	(%rsp), %rdi
	callq	_ZN4core3ptr72drop_in_place$LT$alloc..raw_vec..RawVec$LT$alloc..string..String$GT$$GT$17haba4841168e4d002E
.Ltmp119:
	jmp	.LBB67_5
.LBB67_2:
.Ltmp117:
	movq	%rax, %rcx
	movl	%edx, %eax
	movq	%rcx, 8(%rsp)
	movl	%eax, 16(%rsp)
	jmp	.LBB67_1
.LBB67_3:
	movq	(%rsp), %rdi
	callq	_ZN4core3ptr72drop_in_place$LT$alloc..raw_vec..RawVec$LT$alloc..string..String$GT$$GT$17haba4841168e4d002E
	addq	$24, %rsp
	.cfi_def_cfa_offset 8
	retq
.LBB67_4:
	.cfi_def_cfa_offset 32
.Ltmp120:
	movq	_ZN4core9panicking16panic_in_cleanup17h76c6e1c84248d3ffE@GOTPCREL(%rip), %rax
	callq	*%rax
.LBB67_5:
	movq	8(%rsp), %rdi
	callq	_Unwind_Resume@PLT
.Lfunc_end67:
	.size	_ZN4core3ptr65drop_in_place$LT$alloc..vec..Vec$LT$alloc..string..String$GT$$GT$17hba13f3a7ddd1bdbaE, .Lfunc_end67-_ZN4core3ptr65drop_in_place$LT$alloc..vec..Vec$LT$alloc..string..String$GT$$GT$17hba13f3a7ddd1bdbaE
	.cfi_endproc
	.section	".gcc_except_table._ZN4core3ptr65drop_in_place$LT$alloc..vec..Vec$LT$alloc..string..String$GT$$GT$17hba13f3a7ddd1bdbaE","a",@progbits
	.p2align	2, 0x0
GCC_except_table67:
.Lexception15:
	.byte	255
	.byte	155
	.uleb128 .Lttbase8-.Lttbaseref8
.Lttbaseref8:
	.byte	1
	.uleb128 .Lcst_end15-.Lcst_begin15
.Lcst_begin15:
	.uleb128 .Ltmp115-.Lfunc_begin15
	.uleb128 .Ltmp116-.Ltmp115
	.uleb128 .Ltmp117-.Lfunc_begin15
	.byte	0
	.uleb128 .Ltmp118-.Lfunc_begin15
	.uleb128 .Ltmp119-.Ltmp118
	.uleb128 .Ltmp120-.Lfunc_begin15
	.byte	1
	.uleb128 .Ltmp119-.Lfunc_begin15
	.uleb128 .Lfunc_end67-.Ltmp119
	.byte	0
	.byte	0
.Lcst_end15:
	.byte	127
	.byte	0
	.p2align	2, 0x0
.Lttbase8:
	.byte	0
	.p2align	2, 0x0

	.section	".text._ZN4core3ptr65drop_in_place$LT$std..sys..pal..unix..kernel_copy..CopyResult$GT$17h2ecf052a2f3e2c81E","ax",@progbits
	.p2align	4, 0x90
	.type	_ZN4core3ptr65drop_in_place$LT$std..sys..pal..unix..kernel_copy..CopyResult$GT$17h2ecf052a2f3e2c81E,@function
_ZN4core3ptr65drop_in_place$LT$std..sys..pal..unix..kernel_copy..CopyResult$GT$17h2ecf052a2f3e2c81E:
	.cfi_startproc
	subq	$24, %rsp
	.cfi_def_cfa_offset 32
	movq	%rdi, 8(%rsp)
	movq	(%rdi), %rax
	movq	%rax, 16(%rsp)
	testq	%rax, %rax
	je	.LBB68_1
	jmp	.LBB68_3
.LBB68_3:
	movq	16(%rsp), %rax
	subq	$1, %rax
	je	.LBB68_2
	jmp	.LBB68_1
.LBB68_1:
	addq	$24, %rsp
	.cfi_def_cfa_offset 8
	retq
.LBB68_2:
	.cfi_def_cfa_offset 32
	movq	8(%rsp), %rdi
	addq	$16, %rdi
	callq	_ZN4core3ptr42drop_in_place$LT$std..io..error..Error$GT$17h08f9bdf5567baf6eE
	jmp	.LBB68_1
.Lfunc_end68:
	.size	_ZN4core3ptr65drop_in_place$LT$std..sys..pal..unix..kernel_copy..CopyResult$GT$17h2ecf052a2f3e2c81E, .Lfunc_end68-_ZN4core3ptr65drop_in_place$LT$std..sys..pal..unix..kernel_copy..CopyResult$GT$17h2ecf052a2f3e2c81E
	.cfi_endproc

	.section	".text._ZN4core3ptr68drop_in_place$LT$alloc..boxed..Box$LT$std..io..error..Custom$GT$$GT$17h32ac14cc90c0cf9eE","ax",@progbits
	.p2align	4, 0x90
	.type	_ZN4core3ptr68drop_in_place$LT$alloc..boxed..Box$LT$std..io..error..Custom$GT$$GT$17h32ac14cc90c0cf9eE,@function
_ZN4core3ptr68drop_in_place$LT$alloc..boxed..Box$LT$std..io..error..Custom$GT$$GT$17h32ac14cc90c0cf9eE:
.Lfunc_begin16:
	.cfi_startproc
	.cfi_personality 155, DW.ref.rust_eh_personality
	.cfi_lsda 27, .Lexception16
	subq	$24, %rsp
	.cfi_def_cfa_offset 32
	movq	%rdi, (%rsp)
	movq	(%rdi), %rdi
.Ltmp121:
	callq	_ZN4core3ptr43drop_in_place$LT$std..io..error..Custom$GT$17h36ba99eef8b05302E
.Ltmp122:
	jmp	.LBB69_3
.LBB69_1:
.Ltmp124:
	movq	(%rsp), %rdi
	callq	_ZN72_$LT$alloc..boxed..Box$LT$T$C$A$GT$$u20$as$u20$core..ops..drop..Drop$GT$4drop17h88f17bfb5c8a020bE
.Ltmp125:
	jmp	.LBB69_5
.LBB69_2:
.Ltmp123:
	movq	%rax, %rcx
	movl	%edx, %eax
	movq	%rcx, 8(%rsp)
	movl	%eax, 16(%rsp)
	jmp	.LBB69_1
.LBB69_3:
	movq	(%rsp), %rdi
	callq	_ZN72_$LT$alloc..boxed..Box$LT$T$C$A$GT$$u20$as$u20$core..ops..drop..Drop$GT$4drop17h88f17bfb5c8a020bE
	addq	$24, %rsp
	.cfi_def_cfa_offset 8
	retq
.LBB69_4:
	.cfi_def_cfa_offset 32
.Ltmp126:
	movq	_ZN4core9panicking16panic_in_cleanup17h76c6e1c84248d3ffE@GOTPCREL(%rip), %rax
	callq	*%rax
.LBB69_5:
	movq	8(%rsp), %rdi
	callq	_Unwind_Resume@PLT
.Lfunc_end69:
	.size	_ZN4core3ptr68drop_in_place$LT$alloc..boxed..Box$LT$std..io..error..Custom$GT$$GT$17h32ac14cc90c0cf9eE, .Lfunc_end69-_ZN4core3ptr68drop_in_place$LT$alloc..boxed..Box$LT$std..io..error..Custom$GT$$GT$17h32ac14cc90c0cf9eE
	.cfi_endproc
	.section	".gcc_except_table._ZN4core3ptr68drop_in_place$LT$alloc..boxed..Box$LT$std..io..error..Custom$GT$$GT$17h32ac14cc90c0cf9eE","a",@progbits
	.p2align	2, 0x0
GCC_except_table69:
.Lexception16:
	.byte	255
	.byte	155
	.uleb128 .Lttbase9-.Lttbaseref9
.Lttbaseref9:
	.byte	1
	.uleb128 .Lcst_end16-.Lcst_begin16
.Lcst_begin16:
	.uleb128 .Ltmp121-.Lfunc_begin16
	.uleb128 .Ltmp122-.Ltmp121
	.uleb128 .Ltmp123-.Lfunc_begin16
	.byte	0
	.uleb128 .Ltmp124-.Lfunc_begin16
	.uleb128 .Ltmp125-.Ltmp124
	.uleb128 .Ltmp126-.Lfunc_begin16
	.byte	1
	.uleb128 .Ltmp125-.Lfunc_begin16
	.uleb128 .Lfunc_end69-.Ltmp125
	.byte	0
	.byte	0
.Lcst_end16:
	.byte	127
	.byte	0
	.p2align	2, 0x0
.Lttbase9:
	.byte	0
	.p2align	2, 0x0

	.section	".text._ZN4core3ptr70drop_in_place$LT$core..option..Option$LT$alloc..string..String$GT$$GT$17ha380bb944b01ca72E","ax",@progbits
	.p2align	4, 0x90
	.type	_ZN4core3ptr70drop_in_place$LT$core..option..Option$LT$alloc..string..String$GT$$GT$17ha380bb944b01ca72E,@function
_ZN4core3ptr70drop_in_place$LT$core..option..Option$LT$alloc..string..String$GT$$GT$17ha380bb944b01ca72E:
	.cfi_startproc
	pushq	%rax
	.cfi_def_cfa_offset 16
	movq	%rdi, (%rsp)
	movabsq	$-9223372036854775808, %rdx
	movl	$1, %eax
	xorl	%ecx, %ecx
	cmpq	%rdx, (%rdi)
	cmoveq	%rcx, %rax
	cmpq	$0, %rax
	jne	.LBB70_2
.LBB70_1:
	popq	%rax
	.cfi_def_cfa_offset 8
	retq
.LBB70_2:
	.cfi_def_cfa_offset 16
	movq	(%rsp), %rdi
	callq	_ZN4core3ptr42drop_in_place$LT$alloc..string..String$GT$17hbd640e9f4100243dE
	jmp	.LBB70_1
.Lfunc_end70:
	.size	_ZN4core3ptr70drop_in_place$LT$core..option..Option$LT$alloc..string..String$GT$$GT$17ha380bb944b01ca72E, .Lfunc_end70-_ZN4core3ptr70drop_in_place$LT$core..option..Option$LT$alloc..string..String$GT$$GT$17ha380bb944b01ca72E
	.cfi_endproc

	.section	".text._ZN4core3ptr72drop_in_place$LT$alloc..raw_vec..RawVec$LT$alloc..string..String$GT$$GT$17haba4841168e4d002E","ax",@progbits
	.p2align	4, 0x90
	.type	_ZN4core3ptr72drop_in_place$LT$alloc..raw_vec..RawVec$LT$alloc..string..String$GT$$GT$17haba4841168e4d002E,@function
_ZN4core3ptr72drop_in_place$LT$alloc..raw_vec..RawVec$LT$alloc..string..String$GT$$GT$17haba4841168e4d002E:
	.cfi_startproc
	pushq	%rax
	.cfi_def_cfa_offset 16
	callq	_ZN77_$LT$alloc..raw_vec..RawVec$LT$T$C$A$GT$$u20$as$u20$core..ops..drop..Drop$GT$4drop17h9708b8e6c8c8c330E
	popq	%rax
	.cfi_def_cfa_offset 8
	retq
.Lfunc_end71:
	.size	_ZN4core3ptr72drop_in_place$LT$alloc..raw_vec..RawVec$LT$alloc..string..String$GT$$GT$17haba4841168e4d002E, .Lfunc_end71-_ZN4core3ptr72drop_in_place$LT$alloc..raw_vec..RawVec$LT$alloc..string..String$GT$$GT$17haba4841168e4d002E
	.cfi_endproc

	.section	".text._ZN4core3ptr76drop_in_place$LT$core..result..Result$LT$u64$C$std..io..error..Error$GT$$GT$17h526e33b79d1053a8E","ax",@progbits
	.p2align	4, 0x90
	.type	_ZN4core3ptr76drop_in_place$LT$core..result..Result$LT$u64$C$std..io..error..Error$GT$$GT$17h526e33b79d1053a8E,@function
_ZN4core3ptr76drop_in_place$LT$core..result..Result$LT$u64$C$std..io..error..Error$GT$$GT$17h526e33b79d1053a8E:
	.cfi_startproc
	pushq	%rax
	.cfi_def_cfa_offset 16
	movq	%rdi, (%rsp)
	cmpq	$0, (%rdi)
	jne	.LBB72_2
.LBB72_1:
	popq	%rax
	.cfi_def_cfa_offset 8
	retq
.LBB72_2:
	.cfi_def_cfa_offset 16
	movq	(%rsp), %rdi
	addq	$8, %rdi
	callq	_ZN4core3ptr42drop_in_place$LT$std..io..error..Error$GT$17h08f9bdf5567baf6eE
	jmp	.LBB72_1
.Lfunc_end72:
	.size	_ZN4core3ptr76drop_in_place$LT$core..result..Result$LT$u64$C$std..io..error..Error$GT$$GT$17h526e33b79d1053a8E, .Lfunc_end72-_ZN4core3ptr76drop_in_place$LT$core..result..Result$LT$u64$C$std..io..error..Error$GT$$GT$17h526e33b79d1053a8E
	.cfi_endproc

	.section	".text._ZN4core3ptr77drop_in_place$LT$alloc..raw_vec..RawVec$LT$std..ffi..os_str..OsString$GT$$GT$17hd5fed94c639c0e7aE","ax",@progbits
	.p2align	4, 0x90
	.type	_ZN4core3ptr77drop_in_place$LT$alloc..raw_vec..RawVec$LT$std..ffi..os_str..OsString$GT$$GT$17hd5fed94c639c0e7aE,@function
_ZN4core3ptr77drop_in_place$LT$alloc..raw_vec..RawVec$LT$std..ffi..os_str..OsString$GT$$GT$17hd5fed94c639c0e7aE:
	.cfi_startproc
	pushq	%rax
	.cfi_def_cfa_offset 16
	callq	_ZN77_$LT$alloc..raw_vec..RawVec$LT$T$C$A$GT$$u20$as$u20$core..ops..drop..Drop$GT$4drop17hd30f900b42212861E
	popq	%rax
	.cfi_def_cfa_offset 8
	retq
.Lfunc_end73:
	.size	_ZN4core3ptr77drop_in_place$LT$alloc..raw_vec..RawVec$LT$std..ffi..os_str..OsString$GT$$GT$17hd5fed94c639c0e7aE, .Lfunc_end73-_ZN4core3ptr77drop_in_place$LT$alloc..raw_vec..RawVec$LT$std..ffi..os_str..OsString$GT$$GT$17hd5fed94c639c0e7aE
	.cfi_endproc

	.section	".text._ZN4core3ptr86drop_in_place$LT$alloc..vec..into_iter..IntoIter$LT$std..ffi..os_str..OsString$GT$$GT$17hc702a5a6b63ba371E","ax",@progbits
	.p2align	4, 0x90
	.type	_ZN4core3ptr86drop_in_place$LT$alloc..vec..into_iter..IntoIter$LT$std..ffi..os_str..OsString$GT$$GT$17hc702a5a6b63ba371E,@function
_ZN4core3ptr86drop_in_place$LT$alloc..vec..into_iter..IntoIter$LT$std..ffi..os_str..OsString$GT$$GT$17hc702a5a6b63ba371E:
	.cfi_startproc
	pushq	%rax
	.cfi_def_cfa_offset 16
	callq	_ZN86_$LT$alloc..vec..into_iter..IntoIter$LT$T$C$A$GT$$u20$as$u20$core..ops..drop..Drop$GT$4drop17h05f34eb45d0cfd07E
	popq	%rax
	.cfi_def_cfa_offset 8
	retq
.Lfunc_end74:
	.size	_ZN4core3ptr86drop_in_place$LT$alloc..vec..into_iter..IntoIter$LT$std..ffi..os_str..OsString$GT$$GT$17hc702a5a6b63ba371E, .Lfunc_end74-_ZN4core3ptr86drop_in_place$LT$alloc..vec..into_iter..IntoIter$LT$std..ffi..os_str..OsString$GT$$GT$17hc702a5a6b63ba371E
	.cfi_endproc

	.section	".text._ZN4core3ptr93drop_in_place$LT$dyn$u20$core..error..Error$u2b$core..marker..Send$u2b$core..marker..Sync$GT$17hc3814eef8d9ede6fE","ax",@progbits
	.p2align	4, 0x90
	.type	_ZN4core3ptr93drop_in_place$LT$dyn$u20$core..error..Error$u2b$core..marker..Send$u2b$core..marker..Sync$GT$17hc3814eef8d9ede6fE,@function
_ZN4core3ptr93drop_in_place$LT$dyn$u20$core..error..Error$u2b$core..marker..Send$u2b$core..marker..Sync$GT$17hc3814eef8d9ede6fE:
	.cfi_startproc
	pushq	%rax
	.cfi_def_cfa_offset 16
	callq	*(%rsi)
	popq	%rax
	.cfi_def_cfa_offset 8
	retq
.Lfunc_end75:
	.size	_ZN4core3ptr93drop_in_place$LT$dyn$u20$core..error..Error$u2b$core..marker..Send$u2b$core..marker..Sync$GT$17hc3814eef8d9ede6fE, .Lfunc_end75-_ZN4core3ptr93drop_in_place$LT$dyn$u20$core..error..Error$u2b$core..marker..Send$u2b$core..marker..Sync$GT$17hc3814eef8d9ede6fE
	.cfi_endproc

	.section	.text._ZN4core4iter6traits10exact_size17ExactSizeIterator3len17h18a9125a6ccd3babE,"ax",@progbits
	.p2align	4, 0x90
	.type	_ZN4core4iter6traits10exact_size17ExactSizeIterator3len17h18a9125a6ccd3babE,@function
_ZN4core4iter6traits10exact_size17ExactSizeIterator3len17h18a9125a6ccd3babE:
	.cfi_startproc
	subq	$120, %rsp
	.cfi_def_cfa_offset 128
	movq	%rdi, %rsi
	leaq	24(%rsp), %rdi
	callq	_ZN103_$LT$alloc..vec..into_iter..IntoIter$LT$T$C$A$GT$$u20$as$u20$core..iter..traits..iterator..Iterator$GT$9size_hint17h911b821274acffc9E
	movq	24(%rsp), %rax
	movq	%rax, (%rsp)
	movq	32(%rsp), %rdx
	movq	40(%rsp), %rcx
	movq	%rdx, 8(%rsp)
	movq	%rcx, 16(%rsp)
	movq	%rax, 56(%rsp)
	movq	$1, 48(%rsp)
	cmpq	$0, 8(%rsp)
	jne	.LBB76_2
	cmpq	$0, 48(%rsp)
	sete	%al
	andb	$1, %al
	movb	%al, 71(%rsp)
	jmp	.LBB76_3
.LBB76_2:
	cmpq	$1, 48(%rsp)
	je	.LBB76_4
	jmp	.LBB76_5
.LBB76_3:
	testb	$1, 71(%rsp)
	jne	.LBB76_7
	jmp	.LBB76_6
.LBB76_4:
	movq	16(%rsp), %rax
	cmpq	56(%rsp), %rax
	sete	%al
	andb	$1, %al
	movb	%al, 71(%rsp)
	jmp	.LBB76_3
.LBB76_5:
	movb	$0, 71(%rsp)
	jmp	.LBB76_3
.LBB76_6:
	movq	$0, 72(%rsp)
	leaq	.L__unnamed_16(%rip), %r8
	xorl	%edi, %edi
	leaq	8(%rsp), %rsi
	leaq	48(%rsp), %rdx
	leaq	72(%rsp), %rcx
	callq	_ZN4core9panicking13assert_failed17hb7b8d793cc6da166E
.LBB76_7:
	movq	(%rsp), %rax
	addq	$120, %rsp
	.cfi_def_cfa_offset 8
	retq
.Lfunc_end76:
	.size	_ZN4core4iter6traits10exact_size17ExactSizeIterator3len17h18a9125a6ccd3babE, .Lfunc_end76-_ZN4core4iter6traits10exact_size17ExactSizeIterator3len17h18a9125a6ccd3babE
	.cfi_endproc

	.section	.text._ZN4core4iter6traits8iterator8Iterator7collect17hd2993a51424569ffE,"ax",@progbits
	.p2align	4, 0x90
	.type	_ZN4core4iter6traits8iterator8Iterator7collect17hd2993a51424569ffE,@function
_ZN4core4iter6traits8iterator8Iterator7collect17hd2993a51424569ffE:
	.cfi_startproc
	pushq	%rax
	.cfi_def_cfa_offset 16
	movq	%rdi, %rax
	movq	%rax, (%rsp)
	callq	_ZN95_$LT$alloc..vec..Vec$LT$T$GT$$u20$as$u20$core..iter..traits..collect..FromIterator$LT$T$GT$$GT$9from_iter17hebc4b0c23f403a8fE
	movq	(%rsp), %rax
	popq	%rcx
	.cfi_def_cfa_offset 8
	retq
.Lfunc_end77:
	.size	_ZN4core4iter6traits8iterator8Iterator7collect17hd2993a51424569ffE, .Lfunc_end77-_ZN4core4iter6traits8iterator8Iterator7collect17hd2993a51424569ffE
	.cfi_endproc

	.section	.text._ZN4core5alloc6layout6Layout5array5inner17h5dda0d6e85a56d65E,"ax",@progbits
	.p2align	4, 0x90
	.type	_ZN4core5alloc6layout6Layout5array5inner17h5dda0d6e85a56d65E,@function
_ZN4core5alloc6layout6Layout5array5inner17h5dda0d6e85a56d65E:
	.cfi_startproc
	subq	$88, %rsp
	.cfi_def_cfa_offset 96
	movq	%rdi, 16(%rsp)
	movq	%rsi, 24(%rsp)
	movq	%rdx, 32(%rsp)
	cmpq	$0, %rdi
	jne	.LBB78_2
.LBB78_1:
	movq	24(%rsp), %rax
	movq	32(%rsp), %rdx
	movq	16(%rsp), %rcx
	imulq	%rdx, %rcx
	movq	%rax, 80(%rsp)
	movq	80(%rsp), %rax
	movq	%rcx, 64(%rsp)
	movq	%rax, 56(%rsp)
	movq	56(%rsp), %rcx
	movq	64(%rsp), %rax
	movq	%rcx, 40(%rsp)
	movq	%rax, 48(%rsp)
	jmp	.LBB78_7
.LBB78_2:
	movq	16(%rsp), %rax
	movq	24(%rsp), %rcx
	movq	%rcx, 72(%rsp)
	movq	72(%rsp), %rdx
	subq	$1, %rdx
	movabsq	$9223372036854775807, %rcx
	subq	%rdx, %rcx
	movq	%rcx, 8(%rsp)
	cmpq	$0, %rax
	sete	%al
	testb	$1, %al
	jne	.LBB78_4
	movq	16(%rsp), %rcx
	movq	8(%rsp), %rax
	xorl	%edx, %edx
	divq	%rcx
	movq	%rax, %rcx
	movq	32(%rsp), %rax
	cmpq	%rcx, %rax
	ja	.LBB78_6
	jmp	.LBB78_5
.LBB78_4:
	leaq	str.0(%rip), %rdi
	leaq	.L__unnamed_17(%rip), %rdx
	movq	_ZN4core9panicking5panic17h90e84101c01877efE@GOTPCREL(%rip), %rax
	movl	$25, %esi
	callq	*%rax
.LBB78_5:
	jmp	.LBB78_1
.LBB78_6:
	movq	.L__unnamed_11(%rip), %rcx
	movq	.L__unnamed_11+8(%rip), %rax
	movq	%rcx, 40(%rsp)
	movq	%rax, 48(%rsp)
.LBB78_7:
	movq	40(%rsp), %rax
	movq	48(%rsp), %rdx
	addq	$88, %rsp
	.cfi_def_cfa_offset 8
	retq
.Lfunc_end78:
	.size	_ZN4core5alloc6layout6Layout5array5inner17h5dda0d6e85a56d65E, .Lfunc_end78-_ZN4core5alloc6layout6Layout5array5inner17h5dda0d6e85a56d65E
	.cfi_endproc

	.section	".text._ZN4core6result19Result$LT$T$C$E$GT$7map_err17h69bd8b372537c4f5E","ax",@progbits
	.p2align	4, 0x90
	.type	_ZN4core6result19Result$LT$T$C$E$GT$7map_err17h69bd8b372537c4f5E,@function
_ZN4core6result19Result$LT$T$C$E$GT$7map_err17h69bd8b372537c4f5E:
	.cfi_startproc
	subq	$56, %rsp
	.cfi_def_cfa_offset 64
	movq	%rdi, (%rsp)
	movq	%rsi, 8(%rsp)
	movb	$1, 55(%rsp)
	movabsq	$-9223372036854775807, %rdx
	movl	$1, %eax
	xorl	%ecx, %ecx
	cmpq	%rdx, (%rsp)
	cmoveq	%rcx, %rax
	cmpq	$0, %rax
	jne	.LBB79_2
	movabsq	$-9223372036854775807, %rax
	movq	%rax, 16(%rsp)
	jmp	.LBB79_3
.LBB79_2:
	movq	(%rsp), %rcx
	movq	8(%rsp), %rax
	movb	$0, 55(%rsp)
	movq	%rcx, 32(%rsp)
	movq	%rax, 40(%rsp)
	movq	32(%rsp), %rdi
	movq	40(%rsp), %rsi
	callq	_ZN5alloc7raw_vec14handle_reserve28_$u7b$$u7b$closure$u7d$$u7d$17hcfd11568ecaa114cE
	movq	%rax, 16(%rsp)
	movq	%rdx, 24(%rsp)
.LBB79_3:
	testb	$1, 55(%rsp)
	jne	.LBB79_5
.LBB79_4:
	movq	16(%rsp), %rax
	movq	24(%rsp), %rdx
	addq	$56, %rsp
	.cfi_def_cfa_offset 8
	retq
.LBB79_5:
	.cfi_def_cfa_offset 64
	jmp	.LBB79_4
.Lfunc_end79:
	.size	_ZN4core6result19Result$LT$T$C$E$GT$7map_err17h69bd8b372537c4f5E, .Lfunc_end79-_ZN4core6result19Result$LT$T$C$E$GT$7map_err17h69bd8b372537c4f5E
	.cfi_endproc

	.section	".text._ZN4core6result19Result$LT$T$C$E$GT$7map_err17h69c700a490598e00E","ax",@progbits
	.p2align	4, 0x90
	.type	_ZN4core6result19Result$LT$T$C$E$GT$7map_err17h69c700a490598e00E,@function
_ZN4core6result19Result$LT$T$C$E$GT$7map_err17h69c700a490598e00E:
	.cfi_startproc
	subq	$56, %rsp
	.cfi_def_cfa_offset 64
	movq	%rcx, 8(%rsp)
	movq	%rdi, 16(%rsp)
	movq	%rdi, 24(%rsp)
	movq	%rsi, 32(%rsp)
	movq	%rdx, 40(%rsp)
	movb	$1, 55(%rsp)
	movq	32(%rsp), %rdx
	xorl	%eax, %eax
	movl	$1, %ecx
	cmpq	$0, %rdx
	cmoveq	%rcx, %rax
	cmpq	$0, %rax
	jne	.LBB80_2
	movq	16(%rsp), %rax
	movq	32(%rsp), %rdx
	movq	40(%rsp), %rcx
	movq	%rdx, 8(%rax)
	movq	%rcx, 16(%rax)
	movq	$0, (%rax)
	jmp	.LBB80_3
.LBB80_2:
	movq	8(%rsp), %rdi
	movb	$0, 55(%rsp)
	callq	_ZN5alloc7raw_vec11finish_grow28_$u7b$$u7b$closure$u7d$$u7d$17hdab8761c51094a31E
	movq	%rax, %rcx
	movq	16(%rsp), %rax
	movq	%rcx, 8(%rax)
	movq	%rdx, 16(%rax)
	movq	$1, (%rax)
.LBB80_3:
	testb	$1, 55(%rsp)
	jne	.LBB80_5
.LBB80_4:
	movq	24(%rsp), %rax
	addq	$56, %rsp
	.cfi_def_cfa_offset 8
	retq
.LBB80_5:
	.cfi_def_cfa_offset 64
	jmp	.LBB80_4
.Lfunc_end80:
	.size	_ZN4core6result19Result$LT$T$C$E$GT$7map_err17h69c700a490598e00E, .Lfunc_end80-_ZN4core6result19Result$LT$T$C$E$GT$7map_err17h69c700a490598e00E
	.cfi_endproc

	.section	".text._ZN4core6result19Result$LT$T$C$E$GT$7map_err17he9f6f655eb035e64E","ax",@progbits
	.p2align	4, 0x90
	.type	_ZN4core6result19Result$LT$T$C$E$GT$7map_err17he9f6f655eb035e64E,@function
_ZN4core6result19Result$LT$T$C$E$GT$7map_err17he9f6f655eb035e64E:
	.cfi_startproc
	subq	$40, %rsp
	.cfi_def_cfa_offset 48
	movq	%rdi, (%rsp)
	movq	%rdi, 8(%rsp)
	movq	%rsi, 16(%rsp)
	movq	%rdx, 24(%rsp)
	movb	$1, 39(%rsp)
	xorl	%eax, %eax
	movl	$1, %ecx
	cmpq	$0, 16(%rsp)
	cmoveq	%rcx, %rax
	cmpq	$0, %rax
	jne	.LBB81_2
	movq	(%rsp), %rax
	movq	16(%rsp), %rdx
	movq	24(%rsp), %rcx
	movq	%rdx, 8(%rax)
	movq	%rcx, 16(%rax)
	movq	$0, (%rax)
	jmp	.LBB81_3
.LBB81_2:
	movb	$0, 39(%rsp)
	callq	_ZN5alloc7raw_vec11finish_grow28_$u7b$$u7b$closure$u7d$$u7d$17hd7ea7034280dc93bE
	movq	%rax, %rcx
	movq	(%rsp), %rax
	movq	%rcx, 8(%rax)
	movq	%rdx, 16(%rax)
	movq	$1, (%rax)
.LBB81_3:
	testb	$1, 39(%rsp)
	jne	.LBB81_5
.LBB81_4:
	movq	8(%rsp), %rax
	addq	$40, %rsp
	.cfi_def_cfa_offset 8
	retq
.LBB81_5:
	.cfi_def_cfa_offset 48
	jmp	.LBB81_4
.Lfunc_end81:
	.size	_ZN4core6result19Result$LT$T$C$E$GT$7map_err17he9f6f655eb035e64E, .Lfunc_end81-_ZN4core6result19Result$LT$T$C$E$GT$7map_err17he9f6f655eb035e64E
	.cfi_endproc

	.section	.text._ZN4core9panicking13assert_failed17hb7b8d793cc6da166E,"ax",@progbits
	.p2align	4, 0x90
	.type	_ZN4core9panicking13assert_failed17hb7b8d793cc6da166E,@function
_ZN4core9panicking13assert_failed17hb7b8d793cc6da166E:
	.cfi_startproc
	subq	$24, %rsp
	.cfi_def_cfa_offset 32
	movq	%rcx, %r9
	movb	%dil, %al
	movq	%rsi, 8(%rsp)
	movq	%rdx, 16(%rsp)
	movq	%rsp, %rcx
	movq	%r8, (%rcx)
	movzbl	%al, %edi
	leaq	.L__unnamed_18(%rip), %r8
	movq	_ZN4core9panicking19assert_failed_inner17hf6c64d802c7353bcE@GOTPCREL(%rip), %rax
	leaq	8(%rsp), %rsi
	leaq	16(%rsp), %rcx
	movq	%r8, %rdx
	callq	*%rax
.Lfunc_end82:
	.size	_ZN4core9panicking13assert_failed17hb7b8d793cc6da166E, .Lfunc_end82-_ZN4core9panicking13assert_failed17hb7b8d793cc6da166E
	.cfi_endproc

	.section	".text._ZN54_$LT$$LP$$RP$$u20$as$u20$std..process..Termination$GT$6report17h88ce6bb63cf89200E","ax",@progbits
	.p2align	4, 0x90
	.type	_ZN54_$LT$$LP$$RP$$u20$as$u20$std..process..Termination$GT$6report17h88ce6bb63cf89200E,@function
_ZN54_$LT$$LP$$RP$$u20$as$u20$std..process..Termination$GT$6report17h88ce6bb63cf89200E:
	.cfi_startproc
	xorl	%eax, %eax
	retq
.Lfunc_end83:
	.size	_ZN54_$LT$$LP$$RP$$u20$as$u20$std..process..Termination$GT$6report17h88ce6bb63cf89200E, .Lfunc_end83-_ZN54_$LT$$LP$$RP$$u20$as$u20$std..process..Termination$GT$6report17h88ce6bb63cf89200E
	.cfi_endproc

	.section	".text._ZN55_$LT$$RF$T$u20$as$u20$core..convert..AsRef$LT$U$GT$$GT$6as_ref17h0efb68d29c21871fE","ax",@progbits
	.p2align	4, 0x90
	.type	_ZN55_$LT$$RF$T$u20$as$u20$core..convert..AsRef$LT$U$GT$$GT$6as_ref17h0efb68d29c21871fE,@function
_ZN55_$LT$$RF$T$u20$as$u20$core..convert..AsRef$LT$U$GT$$GT$6as_ref17h0efb68d29c21871fE:
	.cfi_startproc
	pushq	%rax
	.cfi_def_cfa_offset 16
	movq	%rdi, %rax
	movq	(%rax), %rdi
	movq	8(%rax), %rsi
	callq	_ZN79_$LT$std..path..Path$u20$as$u20$core..convert..AsRef$LT$std..path..Path$GT$$GT$6as_ref17h1e308051b7b2a5fbE
	popq	%rcx
	.cfi_def_cfa_offset 8
	retq
.Lfunc_end84:
	.size	_ZN55_$LT$$RF$T$u20$as$u20$core..convert..AsRef$LT$U$GT$$GT$6as_ref17h0efb68d29c21871fE, .Lfunc_end84-_ZN55_$LT$$RF$T$u20$as$u20$core..convert..AsRef$LT$U$GT$$GT$6as_ref17h0efb68d29c21871fE
	.cfi_endproc

	.section	".text._ZN55_$LT$$RF$T$u20$as$u20$core..convert..AsRef$LT$U$GT$$GT$6as_ref17hf11f9ac6d30034a5E","ax",@progbits
	.p2align	4, 0x90
	.type	_ZN55_$LT$$RF$T$u20$as$u20$core..convert..AsRef$LT$U$GT$$GT$6as_ref17hf11f9ac6d30034a5E,@function
_ZN55_$LT$$RF$T$u20$as$u20$core..convert..AsRef$LT$U$GT$$GT$6as_ref17hf11f9ac6d30034a5E:
	.cfi_startproc
	pushq	%rax
	.cfi_def_cfa_offset 16
	movq	(%rdi), %rdi
	callq	_ZN3std4path95_$LT$impl$u20$core..convert..AsRef$LT$std..path..Path$GT$$u20$for$u20$alloc..string..String$GT$6as_ref17h9cd1d2aff8ce4e03E
	popq	%rcx
	.cfi_def_cfa_offset 8
	retq
.Lfunc_end85:
	.size	_ZN55_$LT$$RF$T$u20$as$u20$core..convert..AsRef$LT$U$GT$$GT$6as_ref17hf11f9ac6d30034a5E, .Lfunc_end85-_ZN55_$LT$$RF$T$u20$as$u20$core..convert..AsRef$LT$U$GT$$GT$6as_ref17hf11f9ac6d30034a5E
	.cfi_endproc

	.section	".text._ZN55_$LT$T$u20$as$u20$std..io..copy..BufferedReaderSpec$GT$11buffer_size17h98d0cd93d7660c8fE","ax",@progbits
	.p2align	4, 0x90
	.type	_ZN55_$LT$T$u20$as$u20$std..io..copy..BufferedReaderSpec$GT$11buffer_size17h98d0cd93d7660c8fE,@function
_ZN55_$LT$T$u20$as$u20$std..io..copy..BufferedReaderSpec$GT$11buffer_size17h98d0cd93d7660c8fE:
	.cfi_startproc
	xorl	%eax, %eax
	retq
.Lfunc_end86:
	.size	_ZN55_$LT$T$u20$as$u20$std..io..copy..BufferedReaderSpec$GT$11buffer_size17h98d0cd93d7660c8fE, .Lfunc_end86-_ZN55_$LT$T$u20$as$u20$std..io..copy..BufferedReaderSpec$GT$11buffer_size17h98d0cd93d7660c8fE
	.cfi_endproc

	.section	".text._ZN55_$LT$T$u20$as$u20$std..io..copy..BufferedReaderSpec$GT$7copy_to17hed2d830b4b095a9eE","ax",@progbits
	.p2align	4, 0x90
	.type	_ZN55_$LT$T$u20$as$u20$std..io..copy..BufferedReaderSpec$GT$7copy_to17hed2d830b4b095a9eE,@function
_ZN55_$LT$T$u20$as$u20$std..io..copy..BufferedReaderSpec$GT$7copy_to17hed2d830b4b095a9eE:
	.cfi_startproc
	subq	$72, %rsp
	.cfi_def_cfa_offset 80
	leaq	.L__unnamed_19(%rip), %rsi
	xorl	%eax, %eax
	movl	%eax, %r8d
	leaq	16(%rsp), %rdi
	movq	%rdi, 8(%rsp)
	movl	$1, %edx
	leaq	64(%rsp), %rcx
	callq	_ZN4core3fmt9Arguments6new_v117h37dde68bf1674cc8E
	movq	8(%rsp), %rdi
	leaq	.L__unnamed_20(%rip), %rsi
	movq	_ZN4core9panicking9panic_fmt17hc69c4d258fe11477E@GOTPCREL(%rip), %rax
	callq	*%rax
.Lfunc_end87:
	.size	_ZN55_$LT$T$u20$as$u20$std..io..copy..BufferedReaderSpec$GT$7copy_to17hed2d830b4b095a9eE, .Lfunc_end87-_ZN55_$LT$T$u20$as$u20$std..io..copy..BufferedReaderSpec$GT$7copy_to17hed2d830b4b095a9eE
	.cfi_endproc

	.section	".text._ZN55_$LT$W$u20$as$u20$std..io..copy..BufferedWriterSpec$GT$11buffer_size17h6bb0e8278eba88a1E","ax",@progbits
	.p2align	4, 0x90
	.type	_ZN55_$LT$W$u20$as$u20$std..io..copy..BufferedWriterSpec$GT$11buffer_size17h6bb0e8278eba88a1E,@function
_ZN55_$LT$W$u20$as$u20$std..io..copy..BufferedWriterSpec$GT$11buffer_size17h6bb0e8278eba88a1E:
	.cfi_startproc
	xorl	%eax, %eax
	retq
.Lfunc_end88:
	.size	_ZN55_$LT$W$u20$as$u20$std..io..copy..BufferedWriterSpec$GT$11buffer_size17h6bb0e8278eba88a1E, .Lfunc_end88-_ZN55_$LT$W$u20$as$u20$std..io..copy..BufferedWriterSpec$GT$11buffer_size17h6bb0e8278eba88a1E
	.cfi_endproc

	.section	".text._ZN55_$LT$W$u20$as$u20$std..io..copy..BufferedWriterSpec$GT$9copy_from17h43f694c628b24c9fE","ax",@progbits
	.p2align	4, 0x90
	.type	_ZN55_$LT$W$u20$as$u20$std..io..copy..BufferedWriterSpec$GT$9copy_from17h43f694c628b24c9fE,@function
_ZN55_$LT$W$u20$as$u20$std..io..copy..BufferedWriterSpec$GT$9copy_from17h43f694c628b24c9fE:
	.cfi_startproc
	subq	$24, %rsp
	.cfi_def_cfa_offset 32
	movq	%rdx, 8(%rsp)
	movq	%rsi, %rdx
	movq	8(%rsp), %rsi
	movq	%rdi, %rax
	movq	%rax, 16(%rsp)
	callq	_ZN3std2io4copy17stack_buffer_copy17h907e06980f3ae83dE
	movq	16(%rsp), %rax
	addq	$24, %rsp
	.cfi_def_cfa_offset 8
	retq
.Lfunc_end89:
	.size	_ZN55_$LT$W$u20$as$u20$std..io..copy..BufferedWriterSpec$GT$9copy_from17h43f694c628b24c9fE, .Lfunc_end89-_ZN55_$LT$W$u20$as$u20$std..io..copy..BufferedWriterSpec$GT$9copy_from17h43f694c628b24c9fE
	.cfi_endproc

	.section	".text._ZN5alloc3vec16Vec$LT$T$C$A$GT$16extend_desugared17h0a9ace66e28a9604E","ax",@progbits
	.p2align	4, 0x90
	.type	_ZN5alloc3vec16Vec$LT$T$C$A$GT$16extend_desugared17h0a9ace66e28a9604E,@function
_ZN5alloc3vec16Vec$LT$T$C$A$GT$16extend_desugared17h0a9ace66e28a9604E:
.Lfunc_begin17:
	.cfi_startproc
	.cfi_personality 155, DW.ref.rust_eh_personality
	.cfi_lsda 27, .Lexception17
	subq	$152, %rsp
	.cfi_def_cfa_offset 160
	movq	%rdi, 8(%rsp)
	movq	%rsi, 16(%rsp)
.LBB90_1:
.Ltmp127:
	movq	16(%rsp), %rsi
	movq	_ZN73_$LT$std..env..Args$u20$as$u20$core..iter..traits..iterator..Iterator$GT$4next17h535c671db2e5e21bE@GOTPCREL(%rip), %rax
	leaq	24(%rsp), %rdi
	callq	*%rax
.Ltmp128:
	jmp	.LBB90_4
.LBB90_2:
.Ltmp139:
	movq	16(%rsp), %rdi
	callq	_ZN4core3ptr35drop_in_place$LT$std..env..Args$GT$17hbef0acb943d3eb18E
.Ltmp140:
	jmp	.LBB90_19
.LBB90_3:
.Ltmp131:
	movq	%rax, %rcx
	movl	%edx, %eax
	movq	%rcx, 128(%rsp)
	movl	%eax, 136(%rsp)
	jmp	.LBB90_2
.LBB90_4:
	movabsq	$-9223372036854775808, %rdx
	movl	$1, %eax
	xorl	%ecx, %ecx
	cmpq	%rdx, 24(%rsp)
	cmoveq	%rcx, %rax
	cmpq	$1, %rax
	jne	.LBB90_6
	movq	8(%rsp), %rax
	movq	24(%rsp), %rcx
	movq	%rcx, 48(%rsp)
	movq	32(%rsp), %rcx
	movq	%rcx, 56(%rsp)
	movq	40(%rsp), %rcx
	movq	%rcx, 64(%rsp)
	movq	16(%rax), %rax
	movq	%rax, (%rsp)
	xorl	%eax, %eax
	testb	$1, %al
	jne	.LBB90_8
	jmp	.LBB90_7
.LBB90_6:
.Ltmp129:
	leaq	24(%rsp), %rdi
	callq	_ZN4core3ptr70drop_in_place$LT$core..option..Option$LT$alloc..string..String$GT$$GT$17ha380bb944b01ca72E
.Ltmp130:
	jmp	.LBB90_18
.LBB90_7:
	movq	8(%rsp), %rax
	movq	(%rax), %rax
	movq	%rax, 72(%rsp)
	jmp	.LBB90_9
.LBB90_8:
	movq	$-1, 72(%rsp)
.LBB90_9:
	movq	(%rsp), %rax
	cmpq	72(%rsp), %rax
	je	.LBB90_11
	jmp	.LBB90_12
.LBB90_11:
.Ltmp132:
	movq	16(%rsp), %rsi
	movq	_ZN73_$LT$std..env..Args$u20$as$u20$core..iter..traits..iterator..Iterator$GT$9size_hint17h1f179a76bfef4daaE@GOTPCREL(%rip), %rax
	leaq	80(%rsp), %rdi
	callq	*%rax
.Ltmp133:
	jmp	.LBB90_15
.LBB90_12:
	movq	8(%rsp), %rax
	movq	(%rsp), %rcx
	imulq	$24, %rcx, %rdx
	addq	8(%rax), %rdx
	movq	48(%rsp), %rsi
	movq	%rsi, 104(%rsp)
	movq	56(%rsp), %rsi
	movq	%rsi, 112(%rsp)
	movq	64(%rsp), %rsi
	movq	%rsi, 120(%rsp)
	movq	104(%rsp), %rsi
	movq	%rsi, (%rdx)
	movq	112(%rsp), %rsi
	movq	%rsi, 8(%rdx)
	movq	120(%rsp), %rsi
	movq	%rsi, 16(%rdx)
	addq	$1, %rcx
	movq	%rcx, 16(%rax)
	jmp	.LBB90_1
.LBB90_13:
.Ltmp137:
	leaq	48(%rsp), %rdi
	callq	_ZN4core3ptr42drop_in_place$LT$alloc..string..String$GT$17hbd640e9f4100243dE
.Ltmp138:
	jmp	.LBB90_2
.LBB90_14:
.Ltmp136:
	movq	%rax, %rcx
	movl	%edx, %eax
	movq	%rcx, 128(%rsp)
	movl	%eax, 136(%rsp)
	jmp	.LBB90_13
.LBB90_15:
	movq	8(%rsp), %rdi
	movq	80(%rsp), %rax
	incq	%rax
	movq	$-1, %rcx
	cmoveq	%rcx, %rax
	movq	%rax, 144(%rsp)
	movq	144(%rsp), %rsi
.Ltmp134:
	callq	_ZN5alloc3vec16Vec$LT$T$C$A$GT$7reserve17haab1b59a3ff72c1fE
.Ltmp135:
	jmp	.LBB90_16
.LBB90_16:
	jmp	.LBB90_12
.LBB90_17:
.Ltmp141:
	movq	_ZN4core9panicking16panic_in_cleanup17h76c6e1c84248d3ffE@GOTPCREL(%rip), %rax
	callq	*%rax
.LBB90_18:
	movq	16(%rsp), %rdi
	callq	_ZN4core3ptr35drop_in_place$LT$std..env..Args$GT$17hbef0acb943d3eb18E
	addq	$152, %rsp
	.cfi_def_cfa_offset 8
	retq
.LBB90_19:
	.cfi_def_cfa_offset 160
	movq	128(%rsp), %rdi
	callq	_Unwind_Resume@PLT
.Lfunc_end90:
	.size	_ZN5alloc3vec16Vec$LT$T$C$A$GT$16extend_desugared17h0a9ace66e28a9604E, .Lfunc_end90-_ZN5alloc3vec16Vec$LT$T$C$A$GT$16extend_desugared17h0a9ace66e28a9604E
	.cfi_endproc
	.section	".gcc_except_table._ZN5alloc3vec16Vec$LT$T$C$A$GT$16extend_desugared17h0a9ace66e28a9604E","a",@progbits
	.p2align	2, 0x0
GCC_except_table90:
.Lexception17:
	.byte	255
	.byte	155
	.uleb128 .Lttbase10-.Lttbaseref10
.Lttbaseref10:
	.byte	1
	.uleb128 .Lcst_end17-.Lcst_begin17
.Lcst_begin17:
	.uleb128 .Ltmp127-.Lfunc_begin17
	.uleb128 .Ltmp128-.Ltmp127
	.uleb128 .Ltmp131-.Lfunc_begin17
	.byte	0
	.uleb128 .Ltmp139-.Lfunc_begin17
	.uleb128 .Ltmp140-.Ltmp139
	.uleb128 .Ltmp141-.Lfunc_begin17
	.byte	1
	.uleb128 .Ltmp129-.Lfunc_begin17
	.uleb128 .Ltmp130-.Ltmp129
	.uleb128 .Ltmp131-.Lfunc_begin17
	.byte	0
	.uleb128 .Ltmp132-.Lfunc_begin17
	.uleb128 .Ltmp133-.Ltmp132
	.uleb128 .Ltmp136-.Lfunc_begin17
	.byte	0
	.uleb128 .Ltmp137-.Lfunc_begin17
	.uleb128 .Ltmp138-.Ltmp137
	.uleb128 .Ltmp141-.Lfunc_begin17
	.byte	1
	.uleb128 .Ltmp134-.Lfunc_begin17
	.uleb128 .Ltmp135-.Ltmp134
	.uleb128 .Ltmp136-.Lfunc_begin17
	.byte	0
	.uleb128 .Ltmp135-.Lfunc_begin17
	.uleb128 .Lfunc_end90-.Ltmp135
	.byte	0
	.byte	0
.Lcst_end17:
	.byte	127
	.byte	0
	.p2align	2, 0x0
.Lttbase10:
	.byte	0
	.p2align	2, 0x0

	.section	".text._ZN5alloc3vec16Vec$LT$T$C$A$GT$3len17h9c87c42bb7928cfeE","ax",@progbits
	.p2align	4, 0x90
	.type	_ZN5alloc3vec16Vec$LT$T$C$A$GT$3len17h9c87c42bb7928cfeE,@function
_ZN5alloc3vec16Vec$LT$T$C$A$GT$3len17h9c87c42bb7928cfeE:
	.cfi_startproc
	movq	16(%rdi), %rax
	retq
.Lfunc_end91:
	.size	_ZN5alloc3vec16Vec$LT$T$C$A$GT$3len17h9c87c42bb7928cfeE, .Lfunc_end91-_ZN5alloc3vec16Vec$LT$T$C$A$GT$3len17h9c87c42bb7928cfeE
	.cfi_endproc

	.section	".text._ZN5alloc3vec16Vec$LT$T$C$A$GT$7reserve17haab1b59a3ff72c1fE","ax",@progbits
	.p2align	4, 0x90
	.type	_ZN5alloc3vec16Vec$LT$T$C$A$GT$7reserve17haab1b59a3ff72c1fE,@function
_ZN5alloc3vec16Vec$LT$T$C$A$GT$7reserve17haab1b59a3ff72c1fE:
	.cfi_startproc
	subq	$40, %rsp
	.cfi_def_cfa_offset 48
	movq	%rdi, 8(%rsp)
	movq	%rsi, 16(%rsp)
	movq	16(%rdi), %rax
	movq	%rax, 24(%rsp)
	xorl	%eax, %eax
	testb	$1, %al
	jne	.LBB92_2
	movq	8(%rsp), %rax
	movq	(%rax), %rax
	movq	%rax, 32(%rsp)
	jmp	.LBB92_3
.LBB92_2:
	movq	$-1, 32(%rsp)
.LBB92_3:
	movq	16(%rsp), %rax
	movq	24(%rsp), %rdx
	movq	32(%rsp), %rcx
	subq	%rdx, %rcx
	cmpq	%rcx, %rax
	ja	.LBB92_5
.LBB92_4:
	addq	$40, %rsp
	.cfi_def_cfa_offset 8
	retq
.LBB92_5:
	.cfi_def_cfa_offset 48
	movq	16(%rsp), %rdx
	movq	24(%rsp), %rsi
	movq	8(%rsp), %rdi
	callq	_ZN5alloc7raw_vec19RawVec$LT$T$C$A$GT$7reserve21do_reserve_and_handle17he53e6b095fdc92ddE
	jmp	.LBB92_4
.Lfunc_end92:
	.size	_ZN5alloc3vec16Vec$LT$T$C$A$GT$7reserve17haab1b59a3ff72c1fE, .Lfunc_end92-_ZN5alloc3vec16Vec$LT$T$C$A$GT$7reserve17haab1b59a3ff72c1fE
	.cfi_endproc

	.section	".text._ZN5alloc3vec9into_iter21IntoIter$LT$T$C$A$GT$16as_raw_mut_slice17h9d9795cb354e1147E","ax",@progbits
	.p2align	4, 0x90
	.type	_ZN5alloc3vec9into_iter21IntoIter$LT$T$C$A$GT$16as_raw_mut_slice17h9d9795cb354e1147E,@function
_ZN5alloc3vec9into_iter21IntoIter$LT$T$C$A$GT$16as_raw_mut_slice17h9d9795cb354e1147E:
	.cfi_startproc
	subq	$56, %rsp
	.cfi_def_cfa_offset 64
	movq	%rdi, 16(%rsp)
	movq	16(%rsp), %rdi
	movq	8(%rdi), %rax
	movq	%rax, 8(%rsp)
	callq	_ZN4core4iter6traits10exact_size17ExactSizeIterator3len17h18a9125a6ccd3babE
	movq	8(%rsp), %rcx
	movq	%rcx, 40(%rsp)
	movq	%rax, 48(%rsp)
	movq	40(%rsp), %rcx
	movq	48(%rsp), %rax
	movq	%rcx, 24(%rsp)
	movq	%rax, 32(%rsp)
	movq	24(%rsp), %rax
	movq	32(%rsp), %rdx
	addq	$56, %rsp
	.cfi_def_cfa_offset 8
	retq
.Lfunc_end93:
	.size	_ZN5alloc3vec9into_iter21IntoIter$LT$T$C$A$GT$16as_raw_mut_slice17h9d9795cb354e1147E, .Lfunc_end93-_ZN5alloc3vec9into_iter21IntoIter$LT$T$C$A$GT$16as_raw_mut_slice17h9d9795cb354e1147E
	.cfi_endproc

	.section	.text._ZN5alloc5alloc6Global10alloc_impl17h0568810849d86760E,"ax",@progbits
	.p2align	4, 0x90
	.type	_ZN5alloc5alloc6Global10alloc_impl17h0568810849d86760E,@function
_ZN5alloc5alloc6Global10alloc_impl17h0568810849d86760E:
	.cfi_startproc
	subq	$264, %rsp
	.cfi_def_cfa_offset 272
	movb	%cl, %al
	movb	%al, 15(%rsp)
	movq	%rsi, 24(%rsp)
	movq	%rdx, 32(%rsp)
	movq	32(%rsp), %rax
	movq	%rax, 16(%rsp)
	cmpq	$0, %rax
	jne	.LBB94_2
	movq	24(%rsp), %rax
	movq	%rax, 160(%rsp)
	movq	160(%rsp), %rax
	movq	%rax, 72(%rsp)
	movq	%rax, 184(%rsp)
	movq	$0, 192(%rsp)
	movq	184(%rsp), %rcx
	movq	192(%rsp), %rax
	movq	%rcx, 168(%rsp)
	movq	%rax, 176(%rsp)
	movq	168(%rsp), %rcx
	movq	176(%rsp), %rax
	movq	%rcx, 56(%rsp)
	movq	%rax, 64(%rsp)
	movq	56(%rsp), %rcx
	movq	64(%rsp), %rax
	movq	%rcx, 40(%rsp)
	movq	%rax, 48(%rsp)
	jmp	.LBB94_3
.LBB94_2:
	movb	15(%rsp), %al
	testb	$1, %al
	jne	.LBB94_5
	jmp	.LBB94_4
.LBB94_3:
	movq	40(%rsp), %rax
	movq	48(%rsp), %rdx
	addq	$264, %rsp
	.cfi_def_cfa_offset 8
	retq
.LBB94_4:
	.cfi_def_cfa_offset 272
	movq	24(%rsp), %rcx
	movq	32(%rsp), %rax
	movq	%rcx, 104(%rsp)
	movq	%rax, 112(%rsp)
	movq	__rust_no_alloc_shim_is_unstable@GOTPCREL(%rip), %rax
	movb	(%rax), %al
	movb	%al, 263(%rsp)
	movq	112(%rsp), %rdi
	movq	104(%rsp), %rax
	movq	%rax, 208(%rsp)
	movq	208(%rsp), %rsi
	callq	*__rust_alloc@GOTPCREL(%rip)
	movq	%rax, 80(%rsp)
	jmp	.LBB94_6
.LBB94_5:
	movq	24(%rsp), %rcx
	movq	32(%rsp), %rax
	movq	%rcx, 88(%rsp)
	movq	%rax, 96(%rsp)
	movq	96(%rsp), %rdi
	movq	88(%rsp), %rax
	movq	%rax, 200(%rsp)
	movq	200(%rsp), %rsi
	callq	*__rust_alloc_zeroed@GOTPCREL(%rip)
	movq	%rax, 80(%rsp)
.LBB94_6:
	movq	80(%rsp), %rax
	movq	%rax, (%rsp)
	cmpq	$0, %rax
	jne	.LBB94_8
	movq	$0, 136(%rsp)
	jmp	.LBB94_9
.LBB94_8:
	movq	(%rsp), %rax
	movq	%rax, 216(%rsp)
	movq	216(%rsp), %rax
	movq	%rax, 136(%rsp)
.LBB94_9:
	movq	136(%rsp), %rdx
	movl	$1, %eax
	xorl	%ecx, %ecx
	cmpq	$0, %rdx
	cmoveq	%rcx, %rax
	cmpq	$0, %rax
	jne	.LBB94_11
	movq	$0, 128(%rsp)
	jmp	.LBB94_12
.LBB94_11:
	movq	136(%rsp), %rax
	movq	%rax, 128(%rsp)
.LBB94_12:
	movq	128(%rsp), %rdx
	xorl	%eax, %eax
	movl	$1, %ecx
	cmpq	$0, %rdx
	cmoveq	%rcx, %rax
	cmpq	$0, %rax
	jne	.LBB94_14
	movq	128(%rsp), %rax
	movq	%rax, 120(%rsp)
	jmp	.LBB94_15
.LBB94_14:
	movq	$0, 120(%rsp)
.LBB94_15:
	movq	120(%rsp), %rdx
	xorl	%eax, %eax
	movl	$1, %ecx
	cmpq	$0, %rdx
	cmoveq	%rcx, %rax
	cmpq	$0, %rax
	jne	.LBB94_17
	movq	16(%rsp), %rax
	movq	120(%rsp), %rcx
	movq	%rcx, 240(%rsp)
	movq	%rax, 248(%rsp)
	movq	240(%rsp), %rcx
	movq	248(%rsp), %rax
	movq	%rcx, 224(%rsp)
	movq	%rax, 232(%rsp)
	movq	224(%rsp), %rcx
	movq	232(%rsp), %rax
	movq	%rcx, 144(%rsp)
	movq	%rax, 152(%rsp)
	movq	144(%rsp), %rcx
	movq	152(%rsp), %rax
	movq	%rcx, 40(%rsp)
	movq	%rax, 48(%rsp)
	jmp	.LBB94_3
.LBB94_17:
	movq	.L__unnamed_11(%rip), %rcx
	movq	.L__unnamed_11+8(%rip), %rax
	movq	%rcx, 40(%rsp)
	movq	%rax, 48(%rsp)
	jmp	.LBB94_3
.Lfunc_end94:
	.size	_ZN5alloc5alloc6Global10alloc_impl17h0568810849d86760E, .Lfunc_end94-_ZN5alloc5alloc6Global10alloc_impl17h0568810849d86760E
	.cfi_endproc

	.section	.text._ZN5alloc5alloc6Global9grow_impl17h652319ccfd82d4fcE,"ax",@progbits
	.p2align	4, 0x90
	.type	_ZN5alloc5alloc6Global9grow_impl17h652319ccfd82d4fcE,@function
_ZN5alloc5alloc6Global9grow_impl17h652319ccfd82d4fcE:
	.cfi_startproc
	subq	$296, %rsp
	.cfi_def_cfa_offset 304
	movq	%rsi, 56(%rsp)
	movq	%rdi, 64(%rsp)
	movb	304(%rsp), %al
	movb	%al, 79(%rsp)
	movq	%rdx, 80(%rsp)
	movq	%rcx, 88(%rsp)
	movq	%r8, 96(%rsp)
	movq	%r9, 104(%rsp)
	movq	88(%rsp), %rax
	movq	%rax, 128(%rsp)
	cmpq	$0, 128(%rsp)
	jne	.LBB95_2
	movq	64(%rsp), %rdi
	movb	79(%rsp), %al
	movq	96(%rsp), %rsi
	movq	104(%rsp), %rdx
	movzbl	%al, %ecx
	andl	$1, %ecx
	callq	_ZN5alloc5alloc6Global10alloc_impl17h0568810849d86760E
	movq	%rax, 112(%rsp)
	movq	%rdx, 120(%rsp)
	jmp	.LBB95_3
.LBB95_2:
	movq	80(%rsp), %rax
	movq	%rax, 224(%rsp)
	movq	224(%rsp), %rax
	movq	96(%rsp), %rcx
	movq	%rcx, 232(%rsp)
	movq	232(%rsp), %rcx
	cmpq	%rcx, %rax
	je	.LBB95_5
	jmp	.LBB95_4
.LBB95_3:
	jmp	.LBB95_25
.LBB95_4:
	movq	64(%rsp), %rdi
	movb	79(%rsp), %al
	movq	128(%rsp), %rcx
	movq	%rcx, 48(%rsp)
	movq	96(%rsp), %rsi
	movq	104(%rsp), %rdx
	movzbl	%al, %ecx
	andl	$1, %ecx
	callq	_ZN5alloc5alloc6Global10alloc_impl17h0568810849d86760E
	movq	%rax, 208(%rsp)
	movq	%rdx, 216(%rsp)
	movq	208(%rsp), %rdx
	xorl	%eax, %eax
	movl	$1, %ecx
	cmpq	$0, %rdx
	cmoveq	%rcx, %rax
	cmpq	$0, %rax
	je	.LBB95_6
	jmp	.LBB95_7
.LBB95_5:
	movq	56(%rsp), %rdi
	movq	128(%rsp), %rax
	movq	%rax, 24(%rsp)
	movq	104(%rsp), %rcx
	movq	%rcx, 32(%rsp)
	movq	80(%rsp), %rdx
	movq	88(%rsp), %rax
	movq	%rdx, 136(%rsp)
	movq	%rax, 144(%rsp)
	movq	144(%rsp), %rsi
	movq	136(%rsp), %rax
	movq	%rax, 240(%rsp)
	movq	240(%rsp), %rdx
	callq	*__rust_realloc@GOTPCREL(%rip)
	movq	%rax, 40(%rsp)
	cmpq	$0, %rax
	je	.LBB95_12
	jmp	.LBB95_13
.LBB95_6:
	movq	208(%rsp), %rcx
	movq	216(%rsp), %rax
	movq	%rcx, 192(%rsp)
	movq	%rax, 200(%rsp)
	jmp	.LBB95_8
.LBB95_7:
	movq	.L__unnamed_11(%rip), %rcx
	movq	.L__unnamed_11+8(%rip), %rax
	movq	%rcx, 192(%rsp)
	movq	%rax, 200(%rsp)
.LBB95_8:
	movq	192(%rsp), %rdx
	xorl	%eax, %eax
	movl	$1, %ecx
	cmpq	$0, %rdx
	cmoveq	%rcx, %rax
	cmpq	$0, %rax
	jne	.LBB95_10
	movq	56(%rsp), %rsi
	movq	48(%rsp), %rdx
	movq	192(%rsp), %rdi
	movq	%rdi, 8(%rsp)
	movq	200(%rsp), %rax
	movq	%rax, 16(%rsp)
	movq	%rdi, 288(%rsp)
	shlq	$0, %rdx
	callq	memcpy@PLT
	movq	64(%rsp), %rdi
	movq	56(%rsp), %rsi
	movq	80(%rsp), %rdx
	movq	88(%rsp), %rcx
	callq	_ZN63_$LT$alloc..alloc..Global$u20$as$u20$core..alloc..Allocator$GT$10deallocate17hb46309e2eecc1129E
	movq	8(%rsp), %rcx
	movq	16(%rsp), %rax
	movq	%rcx, 112(%rsp)
	movq	%rax, 120(%rsp)
	jmp	.LBB95_3
.LBB95_10:
	movq	.L__unnamed_11(%rip), %rcx
	movq	.L__unnamed_11+8(%rip), %rax
	movq	%rcx, 112(%rsp)
	movq	%rax, 120(%rsp)
.LBB95_11:
	jmp	.LBB95_25
.LBB95_12:
	movq	$0, 168(%rsp)
	jmp	.LBB95_14
.LBB95_13:
	movq	40(%rsp), %rax
	movq	%rax, 248(%rsp)
	movq	248(%rsp), %rax
	movq	%rax, 168(%rsp)
.LBB95_14:
	movq	168(%rsp), %rdx
	movl	$1, %eax
	xorl	%ecx, %ecx
	cmpq	$0, %rdx
	cmoveq	%rcx, %rax
	cmpq	$0, %rax
	jne	.LBB95_16
	movq	$0, 160(%rsp)
	jmp	.LBB95_17
.LBB95_16:
	movq	168(%rsp), %rax
	movq	%rax, 160(%rsp)
.LBB95_17:
	movq	160(%rsp), %rdx
	xorl	%eax, %eax
	movl	$1, %ecx
	cmpq	$0, %rdx
	cmoveq	%rcx, %rax
	cmpq	$0, %rax
	jne	.LBB95_19
	movq	160(%rsp), %rax
	movq	%rax, 152(%rsp)
	jmp	.LBB95_20
.LBB95_19:
	movq	$0, 152(%rsp)
.LBB95_20:
	movq	152(%rsp), %rdx
	xorl	%eax, %eax
	movl	$1, %ecx
	cmpq	$0, %rdx
	cmoveq	%rcx, %rax
	cmpq	$0, %rax
	jne	.LBB95_22
	movb	79(%rsp), %al
	movq	152(%rsp), %rcx
	movq	%rcx, (%rsp)
	testb	$1, %al
	jne	.LBB95_24
	jmp	.LBB95_23
.LBB95_22:
	movq	.L__unnamed_11(%rip), %rcx
	movq	.L__unnamed_11+8(%rip), %rax
	movq	%rcx, 112(%rsp)
	movq	%rax, 120(%rsp)
	jmp	.LBB95_11
.LBB95_23:
	movq	32(%rsp), %rax
	movq	(%rsp), %rcx
	movq	%rcx, 272(%rsp)
	movq	%rax, 280(%rsp)
	movq	272(%rsp), %rcx
	movq	280(%rsp), %rax
	movq	%rcx, 256(%rsp)
	movq	%rax, 264(%rsp)
	movq	256(%rsp), %rcx
	movq	264(%rsp), %rax
	movq	%rcx, 176(%rsp)
	movq	%rax, 184(%rsp)
	movq	176(%rsp), %rcx
	movq	184(%rsp), %rax
	movq	%rcx, 112(%rsp)
	movq	%rax, 120(%rsp)
	jmp	.LBB95_3
.LBB95_24:
	movq	24(%rsp), %rax
	movq	32(%rsp), %rdx
	movq	40(%rsp), %rdi
	addq	%rax, %rdi
	subq	%rax, %rdx
	shlq	$0, %rdx
	xorl	%esi, %esi
	callq	memset@PLT
	jmp	.LBB95_23
.LBB95_25:
	movq	112(%rsp), %rax
	movq	120(%rsp), %rdx
	addq	$296, %rsp
	.cfi_def_cfa_offset 8
	retq
.Lfunc_end95:
	.size	_ZN5alloc5alloc6Global9grow_impl17h652319ccfd82d4fcE, .Lfunc_end95-_ZN5alloc5alloc6Global9grow_impl17h652319ccfd82d4fcE
	.cfi_endproc

	.section	.text._ZN5alloc7raw_vec11finish_grow17h65c1f0198bf1b880E,"ax",@progbits
	.p2align	4, 0x90
	.type	_ZN5alloc7raw_vec11finish_grow17h65c1f0198bf1b880E,@function
_ZN5alloc7raw_vec11finish_grow17h65c1f0198bf1b880E:
	.cfi_startproc
	subq	$232, %rsp
	.cfi_def_cfa_offset 240
	movq	%r8, (%rsp)
	movq	%rcx, 8(%rsp)
	movq	%rdi, 16(%rsp)
	movq	%rdi, 24(%rsp)
	leaq	72(%rsp), %rdi
	callq	_ZN4core6result19Result$LT$T$C$E$GT$7map_err17he9f6f655eb035e64E
	cmpq	$0, 72(%rsp)
	jne	.LBB96_2
	movq	80(%rsp), %rcx
	movq	88(%rsp), %rax
	movq	%rcx, 56(%rsp)
	movq	%rax, 64(%rsp)
	movq	$0, 48(%rsp)
	jmp	.LBB96_3
.LBB96_2:
	movq	80(%rsp), %rcx
	movq	88(%rsp), %rax
	movq	%rcx, 184(%rsp)
	movq	%rax, 192(%rsp)
	movq	184(%rsp), %rcx
	movq	192(%rsp), %rax
	movq	%rcx, 56(%rsp)
	movq	%rax, 64(%rsp)
	movq	$1, 48(%rsp)
.LBB96_3:
	cmpq	$0, 48(%rsp)
	jne	.LBB96_5
	movq	56(%rsp), %rcx
	movq	64(%rsp), %rax
	movq	%rcx, 32(%rsp)
	movq	%rax, 40(%rsp)
	movq	.L__unnamed_21(%rip), %rcx
	movq	.L__unnamed_21+8(%rip), %rax
	movq	%rcx, 112(%rsp)
	movq	%rax, 120(%rsp)
	movabsq	$-9223372036854775807, %rdx
	movl	$1, %eax
	xorl	%ecx, %ecx
	cmpq	%rdx, 112(%rsp)
	cmoveq	%rcx, %rax
	cmpq	$0, %rax
	je	.LBB96_6
	jmp	.LBB96_7
.LBB96_5:
	movq	16(%rsp), %rax
	movq	56(%rsp), %rdx
	movq	64(%rsp), %rcx
	movq	%rdx, 96(%rsp)
	movq	%rcx, 104(%rsp)
	movq	96(%rsp), %rdx
	movq	104(%rsp), %rcx
	movq	%rdx, 200(%rsp)
	movq	%rcx, 208(%rsp)
	movq	200(%rsp), %rdx
	movq	208(%rsp), %rcx
	movq	%rdx, 8(%rax)
	movq	%rcx, 16(%rax)
	movq	$1, (%rax)
	jmp	.LBB96_12
.LBB96_6:
	movq	8(%rsp), %rdx
	movl	$1, %eax
	xorl	%ecx, %ecx
	cmpq	$0, 8(%rdx)
	cmoveq	%rcx, %rax
	cmpq	$1, %rax
	je	.LBB96_8
	jmp	.LBB96_9
.LBB96_7:
	movq	16(%rsp), %rax
	movq	112(%rsp), %rdx
	movq	120(%rsp), %rcx
	movq	%rdx, 128(%rsp)
	movq	%rcx, 136(%rsp)
	movq	128(%rsp), %rdx
	movq	136(%rsp), %rcx
	movq	%rdx, 8(%rax)
	movq	%rcx, 16(%rax)
	movq	$1, (%rax)
	jmp	.LBB96_12
.LBB96_8:
	movq	(%rsp), %rdi
	movq	8(%rsp), %rax
	movq	(%rax), %rsi
	movq	8(%rax), %rcx
	movq	16(%rax), %rax
	movq	%rcx, 160(%rsp)
	movq	%rax, 168(%rsp)
	movq	160(%rsp), %rax
	movq	%rax, 216(%rsp)
	movq	32(%rsp), %rax
	movq	%rax, 224(%rsp)
	movq	160(%rsp), %rdx
	movq	168(%rsp), %rcx
	movq	32(%rsp), %r8
	movq	40(%rsp), %r9
	callq	_ZN63_$LT$alloc..alloc..Global$u20$as$u20$core..alloc..Allocator$GT$4grow17h70699fe978e8b168E
	movq	%rax, 144(%rsp)
	movq	%rdx, 152(%rsp)
	jmp	.LBB96_10
.LBB96_9:
	movq	(%rsp), %rdi
	movq	32(%rsp), %rsi
	movq	40(%rsp), %rdx
	callq	_ZN63_$LT$alloc..alloc..Global$u20$as$u20$core..alloc..Allocator$GT$8allocate17hc56a095253f1816eE
	movq	%rax, 144(%rsp)
	movq	%rdx, 152(%rsp)
.LBB96_10:
	movq	16(%rsp), %rdi
	movq	144(%rsp), %rsi
	movq	152(%rsp), %rdx
	leaq	32(%rsp), %rax
	movq	%rax, 176(%rsp)
	movq	176(%rsp), %rcx
	callq	_ZN4core6result19Result$LT$T$C$E$GT$7map_err17h69c700a490598e00E
.LBB96_11:
	movq	24(%rsp), %rax
	addq	$232, %rsp
	.cfi_def_cfa_offset 8
	retq
.LBB96_12:
	.cfi_def_cfa_offset 240
	jmp	.LBB96_11
.Lfunc_end96:
	.size	_ZN5alloc7raw_vec11finish_grow17h65c1f0198bf1b880E, .Lfunc_end96-_ZN5alloc7raw_vec11finish_grow17h65c1f0198bf1b880E
	.cfi_endproc

	.section	".text._ZN5alloc7raw_vec11finish_grow28_$u7b$$u7b$closure$u7d$$u7d$17hd7ea7034280dc93bE","ax",@progbits
	.p2align	4, 0x90
	.type	_ZN5alloc7raw_vec11finish_grow28_$u7b$$u7b$closure$u7d$$u7d$17hd7ea7034280dc93bE,@function
_ZN5alloc7raw_vec11finish_grow28_$u7b$$u7b$closure$u7d$$u7d$17hd7ea7034280dc93bE:
	.cfi_startproc
	movq	.L__unnamed_11(%rip), %rax
	movq	.L__unnamed_11+8(%rip), %rdx
	retq
.Lfunc_end97:
	.size	_ZN5alloc7raw_vec11finish_grow28_$u7b$$u7b$closure$u7d$$u7d$17hd7ea7034280dc93bE, .Lfunc_end97-_ZN5alloc7raw_vec11finish_grow28_$u7b$$u7b$closure$u7d$$u7d$17hd7ea7034280dc93bE
	.cfi_endproc

	.section	".text._ZN5alloc7raw_vec11finish_grow28_$u7b$$u7b$closure$u7d$$u7d$17hdab8761c51094a31E","ax",@progbits
	.p2align	4, 0x90
	.type	_ZN5alloc7raw_vec11finish_grow28_$u7b$$u7b$closure$u7d$$u7d$17hdab8761c51094a31E,@function
_ZN5alloc7raw_vec11finish_grow28_$u7b$$u7b$closure$u7d$$u7d$17hdab8761c51094a31E:
	.cfi_startproc
	movq	(%rdi), %rcx
	movq	8(%rdi), %rax
	movq	%rcx, -16(%rsp)
	movq	%rax, -8(%rsp)
	movq	-16(%rsp), %rcx
	movq	-8(%rsp), %rax
	movq	%rcx, -32(%rsp)
	movq	%rax, -24(%rsp)
	movq	-32(%rsp), %rax
	movq	-24(%rsp), %rdx
	retq
.Lfunc_end98:
	.size	_ZN5alloc7raw_vec11finish_grow28_$u7b$$u7b$closure$u7d$$u7d$17hdab8761c51094a31E, .Lfunc_end98-_ZN5alloc7raw_vec11finish_grow28_$u7b$$u7b$closure$u7d$$u7d$17hdab8761c51094a31E
	.cfi_endproc

	.section	.text._ZN5alloc7raw_vec14handle_reserve17hdd64e5c86fcbbf32E,"ax",@progbits
	.p2align	4, 0x90
	.type	_ZN5alloc7raw_vec14handle_reserve17hdd64e5c86fcbbf32E,@function
_ZN5alloc7raw_vec14handle_reserve17hdd64e5c86fcbbf32E:
	.cfi_startproc
	subq	$24, %rsp
	.cfi_def_cfa_offset 32
	callq	_ZN4core6result19Result$LT$T$C$E$GT$7map_err17h69bd8b372537c4f5E
	movq	%rax, 8(%rsp)
	movq	%rdx, 16(%rsp)
	movabsq	$-9223372036854775807, %rdx
	movl	$1, %eax
	xorl	%ecx, %ecx
	cmpq	%rdx, 8(%rsp)
	cmoveq	%rcx, %rax
	cmpq	$0, %rax
	jne	.LBB99_2
	addq	$24, %rsp
	.cfi_def_cfa_offset 8
	retq
.LBB99_2:
	.cfi_def_cfa_offset 32
	movl	$1, %eax
	xorl	%ecx, %ecx
	cmpq	$0, 8(%rsp)
	cmoveq	%rcx, %rax
	cmpq	$0, %rax
	jne	.LBB99_4
	movq	_ZN5alloc7raw_vec17capacity_overflow17h2434c0983b86c347E@GOTPCREL(%rip), %rax
	callq	*%rax
.LBB99_4:
	movq	8(%rsp), %rdi
	movq	16(%rsp), %rsi
	movq	_ZN5alloc5alloc18handle_alloc_error17h836e982fea7018bdE@GOTPCREL(%rip), %rax
	callq	*%rax
.Lfunc_end99:
	.size	_ZN5alloc7raw_vec14handle_reserve17hdd64e5c86fcbbf32E, .Lfunc_end99-_ZN5alloc7raw_vec14handle_reserve17hdd64e5c86fcbbf32E
	.cfi_endproc

	.section	".text._ZN5alloc7raw_vec14handle_reserve28_$u7b$$u7b$closure$u7d$$u7d$17hcfd11568ecaa114cE","ax",@progbits
	.p2align	4, 0x90
	.type	_ZN5alloc7raw_vec14handle_reserve28_$u7b$$u7b$closure$u7d$$u7d$17hcfd11568ecaa114cE,@function
_ZN5alloc7raw_vec14handle_reserve28_$u7b$$u7b$closure$u7d$$u7d$17hcfd11568ecaa114cE:
	.cfi_startproc
	movq	%rdi, -32(%rsp)
	movq	%rsi, -24(%rsp)
	movl	$1, %eax
	xorl	%ecx, %ecx
	cmpq	$0, -32(%rsp)
	cmoveq	%rcx, %rax
	cmpq	$0, %rax
	jne	.LBB100_2
	movq	.L__unnamed_11(%rip), %rcx
	movq	.L__unnamed_11+8(%rip), %rax
	movq	%rcx, -16(%rsp)
	movq	%rax, -8(%rsp)
	jmp	.LBB100_3
.LBB100_2:
	movq	-32(%rsp), %rcx
	movq	-24(%rsp), %rax
	movq	%rcx, -16(%rsp)
	movq	%rax, -8(%rsp)
.LBB100_3:
	movq	-16(%rsp), %rax
	movq	-8(%rsp), %rdx
	retq
.Lfunc_end100:
	.size	_ZN5alloc7raw_vec14handle_reserve28_$u7b$$u7b$closure$u7d$$u7d$17hcfd11568ecaa114cE, .Lfunc_end100-_ZN5alloc7raw_vec14handle_reserve28_$u7b$$u7b$closure$u7d$$u7d$17hcfd11568ecaa114cE
	.cfi_endproc

	.section	".text._ZN5alloc7raw_vec19RawVec$LT$T$C$A$GT$11allocate_in17h6c967b053494c5faE","ax",@progbits
	.p2align	4, 0x90
	.type	_ZN5alloc7raw_vec19RawVec$LT$T$C$A$GT$11allocate_in17h6c967b053494c5faE,@function
_ZN5alloc7raw_vec19RawVec$LT$T$C$A$GT$11allocate_in17h6c967b053494c5faE:
.Lfunc_begin18:
	.cfi_startproc
	.cfi_personality 155, DW.ref.rust_eh_personality
	.cfi_lsda 27, .Lexception18
	subq	$200, %rsp
	.cfi_def_cfa_offset 208
	movq	%rdi, 56(%rsp)
	movb	%sil, %al
	andb	$1, %al
	movb	%al, 70(%rsp)
	xorl	%eax, %eax
	testb	$1, %al
	jne	.LBB101_2
	movq	56(%rsp), %rax
	cmpq	$0, %rax
	jne	.LBB101_3
.LBB101_2:
	movl	$8, %eax
	movq	%rax, 168(%rsp)
	movq	168(%rsp), %rax
	movq	%rax, 160(%rsp)
	movq	160(%rsp), %rax
	movq	%rax, 80(%rsp)
	movq	$0, 72(%rsp)
	jmp	.LBB101_16
.LBB101_3:
.Ltmp142:
	movq	56(%rsp), %rdx
	movl	$24, %edi
	movl	$8, %esi
	callq	_ZN4core5alloc6layout6Layout5array5inner17h5dda0d6e85a56d65E
.Ltmp143:
	movq	%rdx, 40(%rsp)
	movq	%rax, 48(%rsp)
	jmp	.LBB101_6
.LBB101_4:
	movq	184(%rsp), %rdi
	callq	_Unwind_Resume@PLT
.LBB101_5:
.Ltmp152:
	movq	%rax, %rcx
	movl	%edx, %eax
	movq	%rcx, 184(%rsp)
	movl	%eax, 192(%rsp)
	jmp	.LBB101_4
.LBB101_6:
	movq	40(%rsp), %rax
	movq	48(%rsp), %rcx
	movq	%rcx, 104(%rsp)
	movq	%rax, 112(%rsp)
	xorl	%eax, %eax
	movl	$1, %ecx
	cmpq	$0, 104(%rsp)
	cmoveq	%rcx, %rax
	cmpq	$0, %rax
	jne	.LBB101_8
	movq	104(%rsp), %rcx
	movq	112(%rsp), %rax
	movq	%rcx, 88(%rsp)
	movq	%rax, 96(%rsp)
	movb	70(%rsp), %al
	andb	$1, %al
	movzbl	%al, %eax
	cmpq	$0, %rax
	je	.LBB101_9
	jmp	.LBB101_10
.LBB101_8:
.Ltmp144:
	movq	_ZN5alloc7raw_vec17capacity_overflow17h2434c0983b86c347E@GOTPCREL(%rip), %rax
	callq	*%rax
.Ltmp145:
	jmp	.LBB101_17
.LBB101_9:
	movq	88(%rsp), %rsi
	movq	96(%rsp), %rdx
.Ltmp148:
	leaq	71(%rsp), %rdi
	callq	_ZN63_$LT$alloc..alloc..Global$u20$as$u20$core..alloc..Allocator$GT$8allocate17hc56a095253f1816eE
.Ltmp149:
	movq	%rdx, 24(%rsp)
	movq	%rax, 32(%rsp)
	jmp	.LBB101_11
.LBB101_10:
	movq	88(%rsp), %rsi
	movq	96(%rsp), %rdx
.Ltmp146:
	leaq	71(%rsp), %rdi
	callq	_ZN63_$LT$alloc..alloc..Global$u20$as$u20$core..alloc..Allocator$GT$15allocate_zeroed17hab724a46dd745ae5E
.Ltmp147:
	movq	%rdx, 8(%rsp)
	movq	%rax, 16(%rsp)
	jmp	.LBB101_13
.LBB101_11:
	movq	24(%rsp), %rax
	movq	32(%rsp), %rcx
	movq	%rcx, 120(%rsp)
	movq	%rax, 128(%rsp)
.LBB101_12:
	movq	120(%rsp), %rdx
	xorl	%eax, %eax
	movl	$1, %ecx
	cmpq	$0, %rdx
	cmoveq	%rcx, %rax
	cmpq	$0, %rax
	je	.LBB101_14
	jmp	.LBB101_15
.LBB101_13:
	movq	8(%rsp), %rax
	movq	16(%rsp), %rcx
	movq	%rcx, 120(%rsp)
	movq	%rax, 128(%rsp)
	jmp	.LBB101_12
.LBB101_14:
	movq	56(%rsp), %rax
	movq	120(%rsp), %rcx
	movq	%rcx, 144(%rsp)
	movq	%rcx, 176(%rsp)
	movq	176(%rsp), %rcx
	movq	%rcx, 136(%rsp)
	movq	%rax, 152(%rsp)
	movq	136(%rsp), %rax
	movq	%rax, 80(%rsp)
	movq	152(%rsp), %rax
	movq	%rax, 72(%rsp)
	jmp	.LBB101_16
.LBB101_15:
	movq	88(%rsp), %rdi
	movq	96(%rsp), %rsi
.Ltmp150:
	movq	_ZN5alloc5alloc18handle_alloc_error17h836e982fea7018bdE@GOTPCREL(%rip), %rax
	callq	*%rax
.Ltmp151:
	jmp	.LBB101_17
.LBB101_16:
	movq	72(%rsp), %rax
	movq	80(%rsp), %rdx
	addq	$200, %rsp
	.cfi_def_cfa_offset 8
	retq
.LBB101_17:
	.cfi_def_cfa_offset 208
	ud2
.Lfunc_end101:
	.size	_ZN5alloc7raw_vec19RawVec$LT$T$C$A$GT$11allocate_in17h6c967b053494c5faE, .Lfunc_end101-_ZN5alloc7raw_vec19RawVec$LT$T$C$A$GT$11allocate_in17h6c967b053494c5faE
	.cfi_endproc
	.section	".gcc_except_table._ZN5alloc7raw_vec19RawVec$LT$T$C$A$GT$11allocate_in17h6c967b053494c5faE","a",@progbits
	.p2align	2, 0x0
GCC_except_table101:
.Lexception18:
	.byte	255
	.byte	255
	.byte	1
	.uleb128 .Lcst_end18-.Lcst_begin18
.Lcst_begin18:
	.uleb128 .Ltmp142-.Lfunc_begin18
	.uleb128 .Ltmp143-.Ltmp142
	.uleb128 .Ltmp152-.Lfunc_begin18
	.byte	0
	.uleb128 .Ltmp143-.Lfunc_begin18
	.uleb128 .Ltmp144-.Ltmp143
	.byte	0
	.byte	0
	.uleb128 .Ltmp144-.Lfunc_begin18
	.uleb128 .Ltmp151-.Ltmp144
	.uleb128 .Ltmp152-.Lfunc_begin18
	.byte	0
.Lcst_end18:
	.p2align	2, 0x0

	.section	".text._ZN5alloc7raw_vec19RawVec$LT$T$C$A$GT$14current_memory17h0e1f9a0d331e22b3E","ax",@progbits
	.p2align	4, 0x90
	.type	_ZN5alloc7raw_vec19RawVec$LT$T$C$A$GT$14current_memory17h0e1f9a0d331e22b3E,@function
_ZN5alloc7raw_vec19RawVec$LT$T$C$A$GT$14current_memory17h0e1f9a0d331e22b3E:
	.cfi_startproc
	movq	%rsi, -88(%rsp)
	movq	%rdi, -80(%rsp)
	movq	%rdi, -72(%rsp)
	xorl	%eax, %eax
	testb	$1, %al
	jne	.LBB102_2
	movq	-88(%rsp), %rax
	cmpq	$0, (%rax)
	jne	.LBB102_3
.LBB102_2:
	movq	-80(%rsp), %rax
	movq	$0, 8(%rax)
	jmp	.LBB102_4
.LBB102_3:
	movq	-80(%rsp), %rax
	movq	-88(%rsp), %rcx
	imulq	$24, (%rcx), %rdx
	movq	%rdx, -56(%rsp)
	movq	$8, -64(%rsp)
	movq	8(%rcx), %rcx
	movq	%rcx, -16(%rsp)
	movq	%rcx, -8(%rsp)
	movq	%rcx, -24(%rsp)
	movq	-24(%rsp), %rcx
	movq	%rcx, -48(%rsp)
	movq	-64(%rsp), %rdx
	movq	-56(%rsp), %rcx
	movq	%rdx, -40(%rsp)
	movq	%rcx, -32(%rsp)
	movq	-48(%rsp), %rcx
	movq	%rcx, (%rax)
	movq	-40(%rsp), %rcx
	movq	%rcx, 8(%rax)
	movq	-32(%rsp), %rcx
	movq	%rcx, 16(%rax)
.LBB102_4:
	movq	-72(%rsp), %rax
	retq
.Lfunc_end102:
	.size	_ZN5alloc7raw_vec19RawVec$LT$T$C$A$GT$14current_memory17h0e1f9a0d331e22b3E, .Lfunc_end102-_ZN5alloc7raw_vec19RawVec$LT$T$C$A$GT$14current_memory17h0e1f9a0d331e22b3E
	.cfi_endproc

	.section	".text._ZN5alloc7raw_vec19RawVec$LT$T$C$A$GT$14current_memory17h4df93cf5cb56799dE","ax",@progbits
	.p2align	4, 0x90
	.type	_ZN5alloc7raw_vec19RawVec$LT$T$C$A$GT$14current_memory17h4df93cf5cb56799dE,@function
_ZN5alloc7raw_vec19RawVec$LT$T$C$A$GT$14current_memory17h4df93cf5cb56799dE:
	.cfi_startproc
	movq	%rsi, -88(%rsp)
	movq	%rdi, -80(%rsp)
	movq	%rdi, -72(%rsp)
	xorl	%eax, %eax
	testb	$1, %al
	jne	.LBB103_2
	movq	-88(%rsp), %rax
	cmpq	$0, (%rax)
	jne	.LBB103_3
.LBB103_2:
	movq	-80(%rsp), %rax
	movq	$0, 8(%rax)
	jmp	.LBB103_4
.LBB103_3:
	movq	-80(%rsp), %rax
	movq	-88(%rsp), %rcx
	movq	(%rcx), %rdx
	shlq	$0, %rdx
	movq	%rdx, -56(%rsp)
	movq	$1, -64(%rsp)
	movq	8(%rcx), %rcx
	movq	%rcx, -16(%rsp)
	movq	%rcx, -8(%rsp)
	movq	%rcx, -24(%rsp)
	movq	-24(%rsp), %rcx
	movq	%rcx, -48(%rsp)
	movq	-64(%rsp), %rdx
	movq	-56(%rsp), %rcx
	movq	%rdx, -40(%rsp)
	movq	%rcx, -32(%rsp)
	movq	-48(%rsp), %rcx
	movq	%rcx, (%rax)
	movq	-40(%rsp), %rcx
	movq	%rcx, 8(%rax)
	movq	-32(%rsp), %rcx
	movq	%rcx, 16(%rax)
.LBB103_4:
	movq	-72(%rsp), %rax
	retq
.Lfunc_end103:
	.size	_ZN5alloc7raw_vec19RawVec$LT$T$C$A$GT$14current_memory17h4df93cf5cb56799dE, .Lfunc_end103-_ZN5alloc7raw_vec19RawVec$LT$T$C$A$GT$14current_memory17h4df93cf5cb56799dE
	.cfi_endproc

	.section	".text._ZN5alloc7raw_vec19RawVec$LT$T$C$A$GT$14current_memory17hc8a4371dc76180daE","ax",@progbits
	.p2align	4, 0x90
	.type	_ZN5alloc7raw_vec19RawVec$LT$T$C$A$GT$14current_memory17hc8a4371dc76180daE,@function
_ZN5alloc7raw_vec19RawVec$LT$T$C$A$GT$14current_memory17hc8a4371dc76180daE:
	.cfi_startproc
	movq	%rsi, -88(%rsp)
	movq	%rdi, -80(%rsp)
	movq	%rdi, -72(%rsp)
	xorl	%eax, %eax
	testb	$1, %al
	jne	.LBB104_2
	movq	-88(%rsp), %rax
	cmpq	$0, (%rax)
	jne	.LBB104_3
.LBB104_2:
	movq	-80(%rsp), %rax
	movq	$0, 8(%rax)
	jmp	.LBB104_4
.LBB104_3:
	movq	-80(%rsp), %rax
	movq	-88(%rsp), %rcx
	imulq	$24, (%rcx), %rdx
	movq	%rdx, -56(%rsp)
	movq	$8, -64(%rsp)
	movq	8(%rcx), %rcx
	movq	%rcx, -16(%rsp)
	movq	%rcx, -8(%rsp)
	movq	%rcx, -24(%rsp)
	movq	-24(%rsp), %rcx
	movq	%rcx, -48(%rsp)
	movq	-64(%rsp), %rdx
	movq	-56(%rsp), %rcx
	movq	%rdx, -40(%rsp)
	movq	%rcx, -32(%rsp)
	movq	-48(%rsp), %rcx
	movq	%rcx, (%rax)
	movq	-40(%rsp), %rcx
	movq	%rcx, 8(%rax)
	movq	-32(%rsp), %rcx
	movq	%rcx, 16(%rax)
.LBB104_4:
	movq	-72(%rsp), %rax
	retq
.Lfunc_end104:
	.size	_ZN5alloc7raw_vec19RawVec$LT$T$C$A$GT$14current_memory17hc8a4371dc76180daE, .Lfunc_end104-_ZN5alloc7raw_vec19RawVec$LT$T$C$A$GT$14current_memory17hc8a4371dc76180daE
	.cfi_endproc

	.section	".text._ZN5alloc7raw_vec19RawVec$LT$T$C$A$GT$14grow_amortized17hea82b1c287947a77E","ax",@progbits
	.p2align	4, 0x90
	.type	_ZN5alloc7raw_vec19RawVec$LT$T$C$A$GT$14grow_amortized17hea82b1c287947a77E,@function
_ZN5alloc7raw_vec19RawVec$LT$T$C$A$GT$14grow_amortized17hea82b1c287947a77E:
	.cfi_startproc
	subq	$312, %rsp
	.cfi_def_cfa_offset 320
	movq	%rdi, 32(%rsp)
	movq	%rsi, 40(%rsp)
	movq	%rdx, 48(%rsp)
	xorl	%eax, %eax
	testb	$1, %al
	jne	.LBB105_2
	movq	48(%rsp), %rcx
	movq	40(%rsp), %rax
	addq	%rcx, %rax
	movq	%rax, 24(%rsp)
	setb	%al
	andb	$1, %al
	movb	%al, 311(%rsp)
	testb	$1, 311(%rsp)
	jne	.LBB105_4
	jmp	.LBB105_3
.LBB105_2:
	movq	.L__unnamed_11(%rip), %rcx
	movq	.L__unnamed_11+8(%rip), %rax
	movq	%rcx, 56(%rsp)
	movq	%rax, 64(%rsp)
	jmp	.LBB105_19
.LBB105_3:
	movq	24(%rsp), %rax
	movq	%rax, 112(%rsp)
	movq	$1, 104(%rsp)
	jmp	.LBB105_5
.LBB105_4:
	movq	.L__unnamed_11(%rip), %rcx
	movq	.L__unnamed_11+8(%rip), %rax
	movq	%rcx, 104(%rsp)
	movq	%rax, 112(%rsp)
.LBB105_5:
	cmpq	$0, 104(%rsp)
	jne	.LBB105_7
	movq	.L__unnamed_11(%rip), %rcx
	movq	.L__unnamed_11+8(%rip), %rax
	movq	%rcx, 88(%rsp)
	movq	%rax, 96(%rsp)
	jmp	.LBB105_8
.LBB105_7:
	movq	112(%rsp), %rax
	movq	%rax, 96(%rsp)
	movabsq	$-9223372036854775807, %rax
	movq	%rax, 88(%rsp)
.LBB105_8:
	movabsq	$-9223372036854775807, %rdx
	movl	$1, %eax
	xorl	%ecx, %ecx
	cmpq	%rdx, 88(%rsp)
	cmoveq	%rcx, %rax
	cmpq	$0, %rax
	jne	.LBB105_10
	movq	96(%rsp), %rax
	movq	%rax, 80(%rsp)
	movabsq	$-9223372036854775807, %rax
	movq	%rax, 72(%rsp)
	jmp	.LBB105_11
.LBB105_10:
	movq	88(%rsp), %rcx
	movq	96(%rsp), %rax
	movq	%rcx, 224(%rsp)
	movq	%rax, 232(%rsp)
	movq	224(%rsp), %rcx
	movq	232(%rsp), %rax
	movq	%rcx, 72(%rsp)
	movq	%rax, 80(%rsp)
.LBB105_11:
	movabsq	$-9223372036854775807, %rdx
	movl	$1, %eax
	xorl	%ecx, %ecx
	cmpq	%rdx, 72(%rsp)
	cmoveq	%rcx, %rax
	cmpq	$0, %rax
	jne	.LBB105_13
	movq	32(%rsp), %rax
	movq	80(%rsp), %rsi
	movq	(%rax), %rdi
	shlq	%rdi
	callq	_ZN4core3cmp6max_by17h3a6b77d1f0d9f2c0E
	movq	%rax, %rsi
	movl	$4, %edi
	callq	_ZN4core3cmp6max_by17h3a6b77d1f0d9f2c0E
	movq	%rax, %rdx
	movq	%rdx, (%rsp)
	movl	$24, %edi
	movl	$8, %esi
	callq	_ZN4core5alloc6layout6Layout5array5inner17h5dda0d6e85a56d65E
	movq	32(%rsp), %rsi
	movq	%rax, 8(%rsp)
	movq	%rdx, 16(%rsp)
	leaq	184(%rsp), %rdi
	callq	_ZN5alloc7raw_vec19RawVec$LT$T$C$A$GT$14current_memory17hc8a4371dc76180daE
	movq	32(%rsp), %r8
	movq	8(%rsp), %rsi
	movq	16(%rsp), %rdx
	addq	$16, %r8
	leaq	160(%rsp), %rdi
	leaq	184(%rsp), %rcx
	callq	_ZN5alloc7raw_vec11finish_grow17h65c1f0198bf1b880E
	cmpq	$0, 160(%rsp)
	je	.LBB105_14
	jmp	.LBB105_15
.LBB105_13:
	movq	72(%rsp), %rcx
	movq	80(%rsp), %rax
	movq	%rcx, 120(%rsp)
	movq	%rax, 128(%rsp)
	movq	120(%rsp), %rcx
	movq	128(%rsp), %rax
	movq	%rcx, 240(%rsp)
	movq	%rax, 248(%rsp)
	movq	240(%rsp), %rcx
	movq	248(%rsp), %rax
	movq	%rcx, 56(%rsp)
	movq	%rax, 64(%rsp)
	jmp	.LBB105_20
.LBB105_14:
	movq	168(%rsp), %rcx
	movq	176(%rsp), %rax
	movq	%rcx, 144(%rsp)
	movq	%rax, 152(%rsp)
	movq	$0, 136(%rsp)
	jmp	.LBB105_16
.LBB105_15:
	movq	168(%rsp), %rcx
	movq	176(%rsp), %rax
	movq	%rcx, 256(%rsp)
	movq	%rax, 264(%rsp)
	movq	256(%rsp), %rcx
	movq	264(%rsp), %rax
	movq	%rcx, 144(%rsp)
	movq	%rax, 152(%rsp)
	movq	$1, 136(%rsp)
.LBB105_16:
	cmpq	$0, 136(%rsp)
	jne	.LBB105_18
	movq	32(%rsp), %rax
	movq	(%rsp), %rcx
	movq	144(%rsp), %rdx
	movq	%rdx, 280(%rsp)
	movq	%rdx, 296(%rsp)
	movq	296(%rsp), %rdx
	movq	%rdx, 272(%rsp)
	movq	272(%rsp), %rdx
	movq	%rdx, 8(%rax)
	movq	%rcx, 288(%rsp)
	movq	288(%rsp), %rcx
	movq	%rcx, (%rax)
	movq	.L__unnamed_21(%rip), %rcx
	movq	.L__unnamed_21+8(%rip), %rax
	movq	%rcx, 56(%rsp)
	movq	%rax, 64(%rsp)
	jmp	.LBB105_19
.LBB105_18:
	movq	144(%rsp), %rcx
	movq	152(%rsp), %rax
	movq	%rcx, 208(%rsp)
	movq	%rax, 216(%rsp)
	movq	208(%rsp), %rcx
	movq	216(%rsp), %rax
	movq	%rcx, 56(%rsp)
	movq	%rax, 64(%rsp)
	jmp	.LBB105_20
.LBB105_19:
	movq	56(%rsp), %rax
	movq	64(%rsp), %rdx
	addq	$312, %rsp
	.cfi_def_cfa_offset 8
	retq
.LBB105_20:
	.cfi_def_cfa_offset 320
	jmp	.LBB105_19
.Lfunc_end105:
	.size	_ZN5alloc7raw_vec19RawVec$LT$T$C$A$GT$14grow_amortized17hea82b1c287947a77E, .Lfunc_end105-_ZN5alloc7raw_vec19RawVec$LT$T$C$A$GT$14grow_amortized17hea82b1c287947a77E
	.cfi_endproc

	.section	".text._ZN5alloc7raw_vec19RawVec$LT$T$C$A$GT$7reserve21do_reserve_and_handle17he53e6b095fdc92ddE","ax",@progbits
	.p2align	4, 0x90
	.type	_ZN5alloc7raw_vec19RawVec$LT$T$C$A$GT$7reserve21do_reserve_and_handle17he53e6b095fdc92ddE,@function
_ZN5alloc7raw_vec19RawVec$LT$T$C$A$GT$7reserve21do_reserve_and_handle17he53e6b095fdc92ddE:
	.cfi_startproc
	pushq	%rax
	.cfi_def_cfa_offset 16
	callq	_ZN5alloc7raw_vec19RawVec$LT$T$C$A$GT$14grow_amortized17hea82b1c287947a77E
	movq	%rax, %rdi
	movq	%rdx, %rsi
	callq	_ZN5alloc7raw_vec14handle_reserve17hdd64e5c86fcbbf32E
	popq	%rax
	.cfi_def_cfa_offset 8
	retq
.Lfunc_end106:
	.size	_ZN5alloc7raw_vec19RawVec$LT$T$C$A$GT$7reserve21do_reserve_and_handle17he53e6b095fdc92ddE, .Lfunc_end106-_ZN5alloc7raw_vec19RawVec$LT$T$C$A$GT$7reserve21do_reserve_and_handle17he53e6b095fdc92ddE
	.cfi_endproc

	.section	".text._ZN60_$LT$alloc..string..String$u20$as$u20$core..fmt..Display$GT$3fmt17hdc1769c9ca8a6302E","ax",@progbits
	.p2align	4, 0x90
	.type	_ZN60_$LT$alloc..string..String$u20$as$u20$core..fmt..Display$GT$3fmt17hdc1769c9ca8a6302E,@function
_ZN60_$LT$alloc..string..String$u20$as$u20$core..fmt..Display$GT$3fmt17hdc1769c9ca8a6302E:
	.cfi_startproc
	subq	$40, %rsp
	.cfi_def_cfa_offset 48
	movq	%rsi, %rdx
	movq	8(%rdi), %rcx
	movq	16(%rdi), %rax
	movq	%rcx, 24(%rsp)
	movq	%rax, 32(%rsp)
	movq	24(%rsp), %rcx
	movq	32(%rsp), %rax
	movq	%rcx, 8(%rsp)
	movq	%rax, 16(%rsp)
	movq	8(%rsp), %rdi
	movq	16(%rsp), %rsi
	callq	*_ZN42_$LT$str$u20$as$u20$core..fmt..Display$GT$3fmt17h9090ab53566e9437E@GOTPCREL(%rip)
	andb	$1, %al
	movzbl	%al, %eax
	addq	$40, %rsp
	.cfi_def_cfa_offset 8
	retq
.Lfunc_end107:
	.size	_ZN60_$LT$alloc..string..String$u20$as$u20$core..fmt..Display$GT$3fmt17hdc1769c9ca8a6302E, .Lfunc_end107-_ZN60_$LT$alloc..string..String$u20$as$u20$core..fmt..Display$GT$3fmt17hdc1769c9ca8a6302E
	.cfi_endproc

	.section	".text._ZN63_$LT$I$u20$as$u20$core..iter..traits..collect..IntoIterator$GT$9into_iter17he223e3bb6b1745bdE","ax",@progbits
	.p2align	4, 0x90
	.type	_ZN63_$LT$I$u20$as$u20$core..iter..traits..collect..IntoIterator$GT$9into_iter17he223e3bb6b1745bdE,@function
_ZN63_$LT$I$u20$as$u20$core..iter..traits..collect..IntoIterator$GT$9into_iter17he223e3bb6b1745bdE:
	.cfi_startproc
	movq	%rdi, %rax
	movq	(%rsi), %rcx
	movq	%rcx, (%rdi)
	movq	8(%rsi), %rcx
	movq	%rcx, 8(%rdi)
	movq	16(%rsi), %rcx
	movq	%rcx, 16(%rdi)
	movq	24(%rsi), %rcx
	movq	%rcx, 24(%rdi)
	retq
.Lfunc_end108:
	.size	_ZN63_$LT$I$u20$as$u20$core..iter..traits..collect..IntoIterator$GT$9into_iter17he223e3bb6b1745bdE, .Lfunc_end108-_ZN63_$LT$I$u20$as$u20$core..iter..traits..collect..IntoIterator$GT$9into_iter17he223e3bb6b1745bdE
	.cfi_endproc

	.section	".text._ZN63_$LT$alloc..alloc..Global$u20$as$u20$core..alloc..Allocator$GT$10deallocate17hb46309e2eecc1129E","ax",@progbits
	.p2align	4, 0x90
	.type	_ZN63_$LT$alloc..alloc..Global$u20$as$u20$core..alloc..Allocator$GT$10deallocate17hb46309e2eecc1129E,@function
_ZN63_$LT$alloc..alloc..Global$u20$as$u20$core..alloc..Allocator$GT$10deallocate17hb46309e2eecc1129E:
	.cfi_startproc
	subq	$56, %rsp
	.cfi_def_cfa_offset 64
	movq	%rsi, 8(%rsp)
	movq	%rdx, 16(%rsp)
	movq	%rcx, 24(%rsp)
	cmpq	$0, 24(%rsp)
	jne	.LBB109_2
	jmp	.LBB109_3
.LBB109_2:
	movq	8(%rsp), %rdi
	movq	16(%rsp), %rcx
	movq	24(%rsp), %rax
	movq	%rcx, 32(%rsp)
	movq	%rax, 40(%rsp)
	movq	40(%rsp), %rsi
	movq	32(%rsp), %rax
	movq	%rax, 48(%rsp)
	movq	48(%rsp), %rdx
	callq	*__rust_dealloc@GOTPCREL(%rip)
.LBB109_3:
	addq	$56, %rsp
	.cfi_def_cfa_offset 8
	retq
.Lfunc_end109:
	.size	_ZN63_$LT$alloc..alloc..Global$u20$as$u20$core..alloc..Allocator$GT$10deallocate17hb46309e2eecc1129E, .Lfunc_end109-_ZN63_$LT$alloc..alloc..Global$u20$as$u20$core..alloc..Allocator$GT$10deallocate17hb46309e2eecc1129E
	.cfi_endproc

	.section	".text._ZN63_$LT$alloc..alloc..Global$u20$as$u20$core..alloc..Allocator$GT$15allocate_zeroed17hab724a46dd745ae5E","ax",@progbits
	.p2align	4, 0x90
	.type	_ZN63_$LT$alloc..alloc..Global$u20$as$u20$core..alloc..Allocator$GT$15allocate_zeroed17hab724a46dd745ae5E,@function
_ZN63_$LT$alloc..alloc..Global$u20$as$u20$core..alloc..Allocator$GT$15allocate_zeroed17hab724a46dd745ae5E:
	.cfi_startproc
	pushq	%rax
	.cfi_def_cfa_offset 16
	movl	$1, %ecx
	callq	_ZN5alloc5alloc6Global10alloc_impl17h0568810849d86760E
	popq	%rcx
	.cfi_def_cfa_offset 8
	retq
.Lfunc_end110:
	.size	_ZN63_$LT$alloc..alloc..Global$u20$as$u20$core..alloc..Allocator$GT$15allocate_zeroed17hab724a46dd745ae5E, .Lfunc_end110-_ZN63_$LT$alloc..alloc..Global$u20$as$u20$core..alloc..Allocator$GT$15allocate_zeroed17hab724a46dd745ae5E
	.cfi_endproc

	.section	".text._ZN63_$LT$alloc..alloc..Global$u20$as$u20$core..alloc..Allocator$GT$4grow17h70699fe978e8b168E","ax",@progbits
	.p2align	4, 0x90
	.type	_ZN63_$LT$alloc..alloc..Global$u20$as$u20$core..alloc..Allocator$GT$4grow17h70699fe978e8b168E,@function
_ZN63_$LT$alloc..alloc..Global$u20$as$u20$core..alloc..Allocator$GT$4grow17h70699fe978e8b168E:
	.cfi_startproc
	pushq	%rax
	.cfi_def_cfa_offset 16
	movq	%rsp, %rax
	movl	$0, (%rax)
	callq	_ZN5alloc5alloc6Global9grow_impl17h652319ccfd82d4fcE
	popq	%rcx
	.cfi_def_cfa_offset 8
	retq
.Lfunc_end111:
	.size	_ZN63_$LT$alloc..alloc..Global$u20$as$u20$core..alloc..Allocator$GT$4grow17h70699fe978e8b168E, .Lfunc_end111-_ZN63_$LT$alloc..alloc..Global$u20$as$u20$core..alloc..Allocator$GT$4grow17h70699fe978e8b168E
	.cfi_endproc

	.section	".text._ZN63_$LT$alloc..alloc..Global$u20$as$u20$core..alloc..Allocator$GT$8allocate17hc56a095253f1816eE","ax",@progbits
	.p2align	4, 0x90
	.type	_ZN63_$LT$alloc..alloc..Global$u20$as$u20$core..alloc..Allocator$GT$8allocate17hc56a095253f1816eE,@function
_ZN63_$LT$alloc..alloc..Global$u20$as$u20$core..alloc..Allocator$GT$8allocate17hc56a095253f1816eE:
	.cfi_startproc
	pushq	%rax
	.cfi_def_cfa_offset 16
	xorl	%ecx, %ecx
	callq	_ZN5alloc5alloc6Global10alloc_impl17h0568810849d86760E
	popq	%rcx
	.cfi_def_cfa_offset 8
	retq
.Lfunc_end112:
	.size	_ZN63_$LT$alloc..alloc..Global$u20$as$u20$core..alloc..Allocator$GT$8allocate17hc56a095253f1816eE, .Lfunc_end112-_ZN63_$LT$alloc..alloc..Global$u20$as$u20$core..alloc..Allocator$GT$8allocate17hc56a095253f1816eE
	.cfi_endproc

	.section	".text._ZN66_$LT$core..option..Option$LT$T$GT$$u20$as$u20$core..fmt..Debug$GT$3fmt17h27e79a8e10bedd61E","ax",@progbits
	.p2align	4, 0x90
	.type	_ZN66_$LT$core..option..Option$LT$T$GT$$u20$as$u20$core..fmt..Debug$GT$3fmt17h27e79a8e10bedd61E,@function
_ZN66_$LT$core..option..Option$LT$T$GT$$u20$as$u20$core..fmt..Debug$GT$3fmt17h27e79a8e10bedd61E:
	.cfi_startproc
	subq	$40, %rsp
	.cfi_def_cfa_offset 48
	movq	%rdi, 8(%rsp)
	movq	%rsi, 16(%rsp)
	cmpq	$0, (%rdi)
	jne	.LBB113_2
	movq	16(%rsp), %rdi
	leaq	.L__unnamed_22(%rip), %rsi
	movl	$4, %edx
	callq	*_ZN4core3fmt9Formatter9write_str17h614ed3390cd2c9c4E@GOTPCREL(%rip)
	andb	$1, %al
	movb	%al, 31(%rsp)
	jmp	.LBB113_3
.LBB113_2:
	movq	16(%rsp), %rdi
	movq	8(%rsp), %rax
	addq	$8, %rax
	movq	%rax, 32(%rsp)
	leaq	.L__unnamed_23(%rip), %rsi
	movl	$4, %edx
	leaq	32(%rsp), %rcx
	leaq	.L__unnamed_24(%rip), %r8
	callq	*_ZN4core3fmt9Formatter25debug_tuple_field1_finish17hfe85b0e3bfc75452E@GOTPCREL(%rip)
	andb	$1, %al
	movb	%al, 31(%rsp)
.LBB113_3:
	movb	31(%rsp), %al
	andb	$1, %al
	movzbl	%al, %eax
	addq	$40, %rsp
	.cfi_def_cfa_offset 8
	retq
.Lfunc_end113:
	.size	_ZN66_$LT$core..option..Option$LT$T$GT$$u20$as$u20$core..fmt..Debug$GT$3fmt17h27e79a8e10bedd61E, .Lfunc_end113-_ZN66_$LT$core..option..Option$LT$T$GT$$u20$as$u20$core..fmt..Debug$GT$3fmt17h27e79a8e10bedd61E
	.cfi_endproc

	.section	".text._ZN69_$LT$std..os..fd..owned..OwnedFd$u20$as$u20$core..ops..drop..Drop$GT$4drop17h5c7ba6c8d2126adcE","ax",@progbits
	.p2align	4, 0x90
	.type	_ZN69_$LT$std..os..fd..owned..OwnedFd$u20$as$u20$core..ops..drop..Drop$GT$4drop17h5c7ba6c8d2126adcE,@function
_ZN69_$LT$std..os..fd..owned..OwnedFd$u20$as$u20$core..ops..drop..Drop$GT$4drop17h5c7ba6c8d2126adcE:
	.cfi_startproc
	pushq	%rax
	.cfi_def_cfa_offset 16
	movl	(%rdi), %edi
	callq	*close@GOTPCREL(%rip)
	popq	%rax
	.cfi_def_cfa_offset 8
	retq
.Lfunc_end114:
	.size	_ZN69_$LT$std..os..fd..owned..OwnedFd$u20$as$u20$core..ops..drop..Drop$GT$4drop17h5c7ba6c8d2126adcE, .Lfunc_end114-_ZN69_$LT$std..os..fd..owned..OwnedFd$u20$as$u20$core..ops..drop..Drop$GT$4drop17h5c7ba6c8d2126adcE
	.cfi_endproc

	.section	".text._ZN70_$LT$alloc..vec..Vec$LT$T$C$A$GT$$u20$as$u20$core..ops..drop..Drop$GT$4drop17h17b1e6a97600d8a4E","ax",@progbits
	.p2align	4, 0x90
	.type	_ZN70_$LT$alloc..vec..Vec$LT$T$C$A$GT$$u20$as$u20$core..ops..drop..Drop$GT$4drop17h17b1e6a97600d8a4E,@function
_ZN70_$LT$alloc..vec..Vec$LT$T$C$A$GT$$u20$as$u20$core..ops..drop..Drop$GT$4drop17h17b1e6a97600d8a4E:
	.cfi_startproc
	movq	8(%rdi), %rcx
	movq	16(%rdi), %rax
	movq	%rcx, -16(%rsp)
	movq	%rax, -8(%rsp)
	movq	-16(%rsp), %rcx
	movq	-8(%rsp), %rax
	movq	%rcx, -32(%rsp)
	movq	%rax, -24(%rsp)
	retq
.Lfunc_end115:
	.size	_ZN70_$LT$alloc..vec..Vec$LT$T$C$A$GT$$u20$as$u20$core..ops..drop..Drop$GT$4drop17h17b1e6a97600d8a4E, .Lfunc_end115-_ZN70_$LT$alloc..vec..Vec$LT$T$C$A$GT$$u20$as$u20$core..ops..drop..Drop$GT$4drop17h17b1e6a97600d8a4E
	.cfi_endproc

	.section	".text._ZN70_$LT$alloc..vec..Vec$LT$T$C$A$GT$$u20$as$u20$core..ops..drop..Drop$GT$4drop17h38c744234ad4851cE","ax",@progbits
	.p2align	4, 0x90
	.type	_ZN70_$LT$alloc..vec..Vec$LT$T$C$A$GT$$u20$as$u20$core..ops..drop..Drop$GT$4drop17h38c744234ad4851cE,@function
_ZN70_$LT$alloc..vec..Vec$LT$T$C$A$GT$$u20$as$u20$core..ops..drop..Drop$GT$4drop17h38c744234ad4851cE:
	.cfi_startproc
	subq	$40, %rsp
	.cfi_def_cfa_offset 48
	movq	8(%rdi), %rcx
	movq	16(%rdi), %rax
	movq	%rcx, 24(%rsp)
	movq	%rax, 32(%rsp)
	movq	24(%rsp), %rcx
	movq	32(%rsp), %rax
	movq	%rcx, 8(%rsp)
	movq	%rax, 16(%rsp)
	movq	8(%rsp), %rdi
	movq	16(%rsp), %rsi
	callq	_ZN4core3ptr52drop_in_place$LT$$u5b$alloc..string..String$u5d$$GT$17hbd4bc016fb5c86d3E
	addq	$40, %rsp
	.cfi_def_cfa_offset 8
	retq
.Lfunc_end116:
	.size	_ZN70_$LT$alloc..vec..Vec$LT$T$C$A$GT$$u20$as$u20$core..ops..drop..Drop$GT$4drop17h38c744234ad4851cE, .Lfunc_end116-_ZN70_$LT$alloc..vec..Vec$LT$T$C$A$GT$$u20$as$u20$core..ops..drop..Drop$GT$4drop17h38c744234ad4851cE
	.cfi_endproc

	.section	".text._ZN72_$LT$alloc..boxed..Box$LT$T$C$A$GT$$u20$as$u20$core..ops..drop..Drop$GT$4drop17h7c96dd90579ef415E","ax",@progbits
	.p2align	4, 0x90
	.type	_ZN72_$LT$alloc..boxed..Box$LT$T$C$A$GT$$u20$as$u20$core..ops..drop..Drop$GT$4drop17h7c96dd90579ef415E,@function
_ZN72_$LT$alloc..boxed..Box$LT$T$C$A$GT$$u20$as$u20$core..ops..drop..Drop$GT$4drop17h7c96dd90579ef415E:
	.cfi_startproc
	subq	$72, %rsp
	.cfi_def_cfa_offset 80
	movq	%rdi, (%rsp)
	movq	(%rdi), %rax
	movq	%rax, 8(%rsp)
	movq	8(%rdi), %rax
	movq	8(%rax), %rcx
	movq	%rcx, 56(%rsp)
	movq	56(%rsp), %rcx
	movq	16(%rax), %rax
	movq	%rax, 64(%rsp)
	movq	64(%rsp), %rax
	movq	%rcx, 24(%rsp)
	movq	%rax, 16(%rsp)
	cmpq	$0, 24(%rsp)
	jne	.LBB117_2
	jmp	.LBB117_3
.LBB117_2:
	movq	8(%rsp), %rax
	movq	(%rsp), %rdi
	addq	$16, %rdi
	movq	%rax, 40(%rsp)
	movq	%rax, 48(%rsp)
	movq	%rax, 32(%rsp)
	movq	16(%rsp), %rdx
	movq	24(%rsp), %rcx
	movq	32(%rsp), %rsi
	callq	_ZN63_$LT$alloc..alloc..Global$u20$as$u20$core..alloc..Allocator$GT$10deallocate17hb46309e2eecc1129E
.LBB117_3:
	addq	$72, %rsp
	.cfi_def_cfa_offset 8
	retq
.Lfunc_end117:
	.size	_ZN72_$LT$alloc..boxed..Box$LT$T$C$A$GT$$u20$as$u20$core..ops..drop..Drop$GT$4drop17h7c96dd90579ef415E, .Lfunc_end117-_ZN72_$LT$alloc..boxed..Box$LT$T$C$A$GT$$u20$as$u20$core..ops..drop..Drop$GT$4drop17h7c96dd90579ef415E
	.cfi_endproc

	.section	".text._ZN72_$LT$alloc..boxed..Box$LT$T$C$A$GT$$u20$as$u20$core..ops..drop..Drop$GT$4drop17h88f17bfb5c8a020bE","ax",@progbits
	.p2align	4, 0x90
	.type	_ZN72_$LT$alloc..boxed..Box$LT$T$C$A$GT$$u20$as$u20$core..ops..drop..Drop$GT$4drop17h88f17bfb5c8a020bE,@function
_ZN72_$LT$alloc..boxed..Box$LT$T$C$A$GT$$u20$as$u20$core..ops..drop..Drop$GT$4drop17h88f17bfb5c8a020bE:
	.cfi_startproc
	subq	$72, %rsp
	.cfi_def_cfa_offset 80
	movq	%rdi, (%rsp)
	movq	(%rdi), %rax
	movq	%rax, 8(%rsp)
	movq	$24, 56(%rsp)
	movq	56(%rsp), %rcx
	movq	$8, 64(%rsp)
	movq	64(%rsp), %rax
	movq	%rcx, 24(%rsp)
	movq	%rax, 16(%rsp)
	cmpq	$0, 24(%rsp)
	jne	.LBB118_2
	jmp	.LBB118_3
.LBB118_2:
	movq	8(%rsp), %rax
	movq	(%rsp), %rdi
	addq	$8, %rdi
	movq	%rax, 40(%rsp)
	movq	%rax, 48(%rsp)
	movq	%rax, 32(%rsp)
	movq	16(%rsp), %rdx
	movq	24(%rsp), %rcx
	movq	32(%rsp), %rsi
	callq	_ZN63_$LT$alloc..alloc..Global$u20$as$u20$core..alloc..Allocator$GT$10deallocate17hb46309e2eecc1129E
.LBB118_3:
	addq	$72, %rsp
	.cfi_def_cfa_offset 8
	retq
.Lfunc_end118:
	.size	_ZN72_$LT$alloc..boxed..Box$LT$T$C$A$GT$$u20$as$u20$core..ops..drop..Drop$GT$4drop17h88f17bfb5c8a020bE, .Lfunc_end118-_ZN72_$LT$alloc..boxed..Box$LT$T$C$A$GT$$u20$as$u20$core..ops..drop..Drop$GT$4drop17h88f17bfb5c8a020bE
	.cfi_endproc

	.section	".text._ZN75_$LT$usize$u20$as$u20$core..slice..index..SliceIndex$LT$$u5b$T$u5d$$GT$$GT$5index17h8c7ab7a89c0c46b0E","ax",@progbits
	.p2align	4, 0x90
	.type	_ZN75_$LT$usize$u20$as$u20$core..slice..index..SliceIndex$LT$$u5b$T$u5d$$GT$$GT$5index17h8c7ab7a89c0c46b0E,@function
_ZN75_$LT$usize$u20$as$u20$core..slice..index..SliceIndex$LT$$u5b$T$u5d$$GT$$GT$5index17h8c7ab7a89c0c46b0E:
	.cfi_startproc
	subq	$40, %rsp
	.cfi_def_cfa_offset 48
	movq	%rdi, 8(%rsp)
	movq	%rsi, 16(%rsp)
	movq	%rdx, 24(%rsp)
	movq	%rcx, 32(%rsp)
	cmpq	%rdx, %rdi
	setb	%al
	testb	$1, %al
	jne	.LBB119_1
	jmp	.LBB119_2
.LBB119_1:
	movq	16(%rsp), %rax
	movq	8(%rsp), %rcx
	imulq	$24, %rcx, %rcx
	addq	%rcx, %rax
	addq	$40, %rsp
	.cfi_def_cfa_offset 8
	retq
.LBB119_2:
	.cfi_def_cfa_offset 48
	movq	32(%rsp), %rdx
	movq	24(%rsp), %rsi
	movq	8(%rsp), %rdi
	movq	_ZN4core9panicking18panic_bounds_check17he5254f424ac3a4c4E@GOTPCREL(%rip), %rax
	callq	*%rax
.Lfunc_end119:
	.size	_ZN75_$LT$usize$u20$as$u20$core..slice..index..SliceIndex$LT$$u5b$T$u5d$$GT$$GT$5index17h8c7ab7a89c0c46b0E, .Lfunc_end119-_ZN75_$LT$usize$u20$as$u20$core..slice..index..SliceIndex$LT$$u5b$T$u5d$$GT$$GT$5index17h8c7ab7a89c0c46b0E
	.cfi_endproc

	.section	".text._ZN77_$LT$alloc..raw_vec..RawVec$LT$T$C$A$GT$$u20$as$u20$core..ops..drop..Drop$GT$4drop17h9708b8e6c8c8c330E","ax",@progbits
	.p2align	4, 0x90
	.type	_ZN77_$LT$alloc..raw_vec..RawVec$LT$T$C$A$GT$$u20$as$u20$core..ops..drop..Drop$GT$4drop17h9708b8e6c8c8c330E,@function
_ZN77_$LT$alloc..raw_vec..RawVec$LT$T$C$A$GT$$u20$as$u20$core..ops..drop..Drop$GT$4drop17h9708b8e6c8c8c330E:
	.cfi_startproc
	subq	$40, %rsp
	.cfi_def_cfa_offset 48
	movq	%rdi, %rsi
	movq	%rsi, 8(%rsp)
	leaq	16(%rsp), %rdi
	callq	_ZN5alloc7raw_vec19RawVec$LT$T$C$A$GT$14current_memory17hc8a4371dc76180daE
	movl	$1, %eax
	xorl	%ecx, %ecx
	cmpq	$0, 24(%rsp)
	cmoveq	%rcx, %rax
	cmpq	$1, %rax
	jne	.LBB120_2
	movq	8(%rsp), %rdi
	movq	16(%rsp), %rsi
	movq	24(%rsp), %rdx
	movq	32(%rsp), %rcx
	addq	$16, %rdi
	callq	_ZN63_$LT$alloc..alloc..Global$u20$as$u20$core..alloc..Allocator$GT$10deallocate17hb46309e2eecc1129E
.LBB120_2:
	addq	$40, %rsp
	.cfi_def_cfa_offset 8
	retq
.Lfunc_end120:
	.size	_ZN77_$LT$alloc..raw_vec..RawVec$LT$T$C$A$GT$$u20$as$u20$core..ops..drop..Drop$GT$4drop17h9708b8e6c8c8c330E, .Lfunc_end120-_ZN77_$LT$alloc..raw_vec..RawVec$LT$T$C$A$GT$$u20$as$u20$core..ops..drop..Drop$GT$4drop17h9708b8e6c8c8c330E
	.cfi_endproc

	.section	".text._ZN77_$LT$alloc..raw_vec..RawVec$LT$T$C$A$GT$$u20$as$u20$core..ops..drop..Drop$GT$4drop17hc34110e4d353d0a0E","ax",@progbits
	.p2align	4, 0x90
	.type	_ZN77_$LT$alloc..raw_vec..RawVec$LT$T$C$A$GT$$u20$as$u20$core..ops..drop..Drop$GT$4drop17hc34110e4d353d0a0E,@function
_ZN77_$LT$alloc..raw_vec..RawVec$LT$T$C$A$GT$$u20$as$u20$core..ops..drop..Drop$GT$4drop17hc34110e4d353d0a0E:
	.cfi_startproc
	subq	$40, %rsp
	.cfi_def_cfa_offset 48
	movq	%rdi, %rsi
	movq	%rsi, 8(%rsp)
	leaq	16(%rsp), %rdi
	callq	_ZN5alloc7raw_vec19RawVec$LT$T$C$A$GT$14current_memory17h4df93cf5cb56799dE
	movl	$1, %eax
	xorl	%ecx, %ecx
	cmpq	$0, 24(%rsp)
	cmoveq	%rcx, %rax
	cmpq	$1, %rax
	jne	.LBB121_2
	movq	8(%rsp), %rdi
	movq	16(%rsp), %rsi
	movq	24(%rsp), %rdx
	movq	32(%rsp), %rcx
	addq	$16, %rdi
	callq	_ZN63_$LT$alloc..alloc..Global$u20$as$u20$core..alloc..Allocator$GT$10deallocate17hb46309e2eecc1129E
.LBB121_2:
	addq	$40, %rsp
	.cfi_def_cfa_offset 8
	retq
.Lfunc_end121:
	.size	_ZN77_$LT$alloc..raw_vec..RawVec$LT$T$C$A$GT$$u20$as$u20$core..ops..drop..Drop$GT$4drop17hc34110e4d353d0a0E, .Lfunc_end121-_ZN77_$LT$alloc..raw_vec..RawVec$LT$T$C$A$GT$$u20$as$u20$core..ops..drop..Drop$GT$4drop17hc34110e4d353d0a0E
	.cfi_endproc

	.section	".text._ZN77_$LT$alloc..raw_vec..RawVec$LT$T$C$A$GT$$u20$as$u20$core..ops..drop..Drop$GT$4drop17hd30f900b42212861E","ax",@progbits
	.p2align	4, 0x90
	.type	_ZN77_$LT$alloc..raw_vec..RawVec$LT$T$C$A$GT$$u20$as$u20$core..ops..drop..Drop$GT$4drop17hd30f900b42212861E,@function
_ZN77_$LT$alloc..raw_vec..RawVec$LT$T$C$A$GT$$u20$as$u20$core..ops..drop..Drop$GT$4drop17hd30f900b42212861E:
	.cfi_startproc
	subq	$40, %rsp
	.cfi_def_cfa_offset 48
	movq	%rdi, %rsi
	movq	%rsi, 8(%rsp)
	leaq	16(%rsp), %rdi
	callq	_ZN5alloc7raw_vec19RawVec$LT$T$C$A$GT$14current_memory17h0e1f9a0d331e22b3E
	movl	$1, %eax
	xorl	%ecx, %ecx
	cmpq	$0, 24(%rsp)
	cmoveq	%rcx, %rax
	cmpq	$1, %rax
	jne	.LBB122_2
	movq	8(%rsp), %rdi
	movq	16(%rsp), %rsi
	movq	24(%rsp), %rdx
	movq	32(%rsp), %rcx
	addq	$16, %rdi
	callq	_ZN63_$LT$alloc..alloc..Global$u20$as$u20$core..alloc..Allocator$GT$10deallocate17hb46309e2eecc1129E
.LBB122_2:
	addq	$40, %rsp
	.cfi_def_cfa_offset 8
	retq
.Lfunc_end122:
	.size	_ZN77_$LT$alloc..raw_vec..RawVec$LT$T$C$A$GT$$u20$as$u20$core..ops..drop..Drop$GT$4drop17hd30f900b42212861E, .Lfunc_end122-_ZN77_$LT$alloc..raw_vec..RawVec$LT$T$C$A$GT$$u20$as$u20$core..ops..drop..Drop$GT$4drop17hd30f900b42212861E
	.cfi_endproc

	.section	".text._ZN78_$LT$std..io..error..repr_bitpacked..Repr$u20$as$u20$core..ops..drop..Drop$GT$4drop17h51155c6adb578f4eE","ax",@progbits
	.p2align	4, 0x90
	.type	_ZN78_$LT$std..io..error..repr_bitpacked..Repr$u20$as$u20$core..ops..drop..Drop$GT$4drop17h51155c6adb578f4eE,@function
_ZN78_$LT$std..io..error..repr_bitpacked..Repr$u20$as$u20$core..ops..drop..Drop$GT$4drop17h51155c6adb578f4eE:
	.cfi_startproc
	subq	$24, %rsp
	.cfi_def_cfa_offset 32
	movq	(%rdi), %rsi
	leaq	8(%rsp), %rdi
	callq	_ZN3std2io5error14repr_bitpacked11decode_repr17hbd6e9770ae1c7b82E
	leaq	8(%rsp), %rdi
	callq	_ZN4core3ptr101drop_in_place$LT$std..io..error..ErrorData$LT$alloc..boxed..Box$LT$std..io..error..Custom$GT$$GT$$GT$17h3e1a6d67e7592762E
	addq	$24, %rsp
	.cfi_def_cfa_offset 8
	retq
.Lfunc_end123:
	.size	_ZN78_$LT$std..io..error..repr_bitpacked..Repr$u20$as$u20$core..ops..drop..Drop$GT$4drop17h51155c6adb578f4eE, .Lfunc_end123-_ZN78_$LT$std..io..error..repr_bitpacked..Repr$u20$as$u20$core..ops..drop..Drop$GT$4drop17h51155c6adb578f4eE
	.cfi_endproc

	.section	".text._ZN78_$LT$std..io..error..repr_bitpacked..Repr$u20$as$u20$core..ops..drop..Drop$GT$4drop28_$u7b$$u7b$closure$u7d$$u7d$17he64226938d239bfeE","ax",@progbits
	.p2align	4, 0x90
	.type	_ZN78_$LT$std..io..error..repr_bitpacked..Repr$u20$as$u20$core..ops..drop..Drop$GT$4drop28_$u7b$$u7b$closure$u7d$$u7d$17he64226938d239bfeE,@function
_ZN78_$LT$std..io..error..repr_bitpacked..Repr$u20$as$u20$core..ops..drop..Drop$GT$4drop28_$u7b$$u7b$closure$u7d$$u7d$17he64226938d239bfeE:
	.cfi_startproc
	movq	%rdi, -8(%rsp)
	movq	-8(%rsp), %rax
	movq	%rax, -16(%rsp)
	movq	-16(%rsp), %rax
	movq	%rax, -24(%rsp)
	movq	-24(%rsp), %rax
	retq
.Lfunc_end124:
	.size	_ZN78_$LT$std..io..error..repr_bitpacked..Repr$u20$as$u20$core..ops..drop..Drop$GT$4drop28_$u7b$$u7b$closure$u7d$$u7d$17he64226938d239bfeE, .Lfunc_end124-_ZN78_$LT$std..io..error..repr_bitpacked..Repr$u20$as$u20$core..ops..drop..Drop$GT$4drop28_$u7b$$u7b$closure$u7d$$u7d$17he64226938d239bfeE
	.cfi_endproc

	.section	".text._ZN79_$LT$core..result..Result$LT$T$C$E$GT$$u20$as$u20$core..ops..try_trait..Try$GT$6branch17h387bc8c1b7506eb8E","ax",@progbits
	.p2align	4, 0x90
	.type	_ZN79_$LT$core..result..Result$LT$T$C$E$GT$$u20$as$u20$core..ops..try_trait..Try$GT$6branch17h387bc8c1b7506eb8E,@function
_ZN79_$LT$core..result..Result$LT$T$C$E$GT$$u20$as$u20$core..ops..try_trait..Try$GT$6branch17h387bc8c1b7506eb8E:
	.cfi_startproc
	movq	%rsi, -32(%rsp)
	movq	%rdi, -24(%rsp)
	movq	%rdi, -16(%rsp)
	movl	(%rsi), %eax
	cmpq	$0, %rax
	jne	.LBB125_2
	movq	-24(%rsp), %rax
	movq	-32(%rsp), %rcx
	movl	4(%rcx), %ecx
	movl	%ecx, 4(%rax)
	movl	$0, (%rax)
	jmp	.LBB125_3
.LBB125_2:
	movq	-24(%rsp), %rax
	movq	-32(%rsp), %rcx
	movq	8(%rcx), %rcx
	movq	%rcx, -8(%rsp)
	movq	-8(%rsp), %rcx
	movq	%rcx, 8(%rax)
	movl	$1, (%rax)
.LBB125_3:
	movq	-16(%rsp), %rax
	retq
.Lfunc_end125:
	.size	_ZN79_$LT$core..result..Result$LT$T$C$E$GT$$u20$as$u20$core..ops..try_trait..Try$GT$6branch17h387bc8c1b7506eb8E, .Lfunc_end125-_ZN79_$LT$core..result..Result$LT$T$C$E$GT$$u20$as$u20$core..ops..try_trait..Try$GT$6branch17h387bc8c1b7506eb8E
	.cfi_endproc

	.section	".text._ZN79_$LT$core..result..Result$LT$T$C$E$GT$$u20$as$u20$core..ops..try_trait..Try$GT$6branch17h606a6e2d68184d95E","ax",@progbits
	.p2align	4, 0x90
	.type	_ZN79_$LT$core..result..Result$LT$T$C$E$GT$$u20$as$u20$core..ops..try_trait..Try$GT$6branch17h606a6e2d68184d95E,@function
_ZN79_$LT$core..result..Result$LT$T$C$E$GT$$u20$as$u20$core..ops..try_trait..Try$GT$6branch17h606a6e2d68184d95E:
	.cfi_startproc
	movq	%rsi, -32(%rsp)
	movq	%rdi, -24(%rsp)
	movq	%rdi, -16(%rsp)
	cmpq	$0, (%rsi)
	jne	.LBB126_2
	movq	-24(%rsp), %rax
	movq	-32(%rsp), %rcx
	movq	8(%rcx), %rcx
	movq	%rcx, 8(%rax)
	movq	$0, (%rax)
	jmp	.LBB126_3
.LBB126_2:
	movq	-24(%rsp), %rax
	movq	-32(%rsp), %rcx
	movq	8(%rcx), %rcx
	movq	%rcx, -8(%rsp)
	movq	-8(%rsp), %rcx
	movq	%rcx, 8(%rax)
	movq	$1, (%rax)
.LBB126_3:
	movq	-16(%rsp), %rax
	retq
.Lfunc_end126:
	.size	_ZN79_$LT$core..result..Result$LT$T$C$E$GT$$u20$as$u20$core..ops..try_trait..Try$GT$6branch17h606a6e2d68184d95E, .Lfunc_end126-_ZN79_$LT$core..result..Result$LT$T$C$E$GT$$u20$as$u20$core..ops..try_trait..Try$GT$6branch17h606a6e2d68184d95E
	.cfi_endproc

	.section	".text._ZN79_$LT$core..result..Result$LT$T$C$E$GT$$u20$as$u20$std..process..Termination$GT$6report17h87b3dea198ac2596E","ax",@progbits
	.p2align	4, 0x90
	.type	_ZN79_$LT$core..result..Result$LT$T$C$E$GT$$u20$as$u20$std..process..Termination$GT$6report17h87b3dea198ac2596E,@function
_ZN79_$LT$core..result..Result$LT$T$C$E$GT$$u20$as$u20$std..process..Termination$GT$6report17h87b3dea198ac2596E:
.Lfunc_begin19:
	.cfi_startproc
	.cfi_personality 155, DW.ref.rust_eh_personality
	.cfi_lsda 27, .Lexception19
	subq	$120, %rsp
	.cfi_def_cfa_offset 128
	movq	%rdi, (%rsp)
	movq	(%rsp), %rdx
	movl	$1, %eax
	xorl	%ecx, %ecx
	cmpq	$0, %rdx
	cmoveq	%rcx, %rax
	cmpq	$0, %rax
	jne	.LBB127_2
	callq	_ZN54_$LT$$LP$$RP$$u20$as$u20$std..process..Termination$GT$6report17h88ce6bb63cf89200E
	movb	%al, 15(%rsp)
	jmp	.LBB127_3
.LBB127_2:
	movq	(%rsp), %rax
	movq	%rax, 16(%rsp)
	leaq	16(%rsp), %rax
	movq	%rax, 88(%rsp)
	movq	_ZN58_$LT$std..io..error..Error$u20$as$u20$core..fmt..Debug$GT$3fmt17h6b04c2c6c8f6ac2cE@GOTPCREL(%rip), %rax
	movq	%rax, 96(%rsp)
	movq	88(%rsp), %rcx
	movq	96(%rsp), %rax
	movq	%rcx, 72(%rsp)
	movq	%rax, 80(%rsp)
.Ltmp153:
	leaq	.L__unnamed_25(%rip), %rsi
	leaq	24(%rsp), %rdi
	movl	$2, %edx
	leaq	72(%rsp), %rcx
	movl	$1, %r8d
	callq	_ZN4core3fmt9Arguments6new_v117h37dde68bf1674cc8E
.Ltmp154:
	jmp	.LBB127_6
.LBB127_3:
	movb	15(%rsp), %al
	addq	$120, %rsp
	.cfi_def_cfa_offset 8
	retq
.LBB127_4:
	.cfi_def_cfa_offset 128
.Ltmp158:
	leaq	16(%rsp), %rdi
	callq	_ZN4core3ptr42drop_in_place$LT$std..io..error..Error$GT$17h08f9bdf5567baf6eE
.Ltmp159:
	jmp	.LBB127_9
.LBB127_5:
.Ltmp157:
	movq	%rax, %rcx
	movl	%edx, %eax
	movq	%rcx, 104(%rsp)
	movl	%eax, 112(%rsp)
	jmp	.LBB127_4
.LBB127_6:
.Ltmp155:
	movq	_ZN3std2io5stdio23attempt_print_to_stderr17h50348edc180b81e9E@GOTPCREL(%rip), %rax
	leaq	24(%rsp), %rdi
	callq	*%rax
.Ltmp156:
	jmp	.LBB127_7
.LBB127_7:
	movb	$1, 15(%rsp)
	leaq	16(%rsp), %rdi
	callq	_ZN4core3ptr42drop_in_place$LT$std..io..error..Error$GT$17h08f9bdf5567baf6eE
	jmp	.LBB127_3
.LBB127_8:
.Ltmp160:
	movq	_ZN4core9panicking16panic_in_cleanup17h76c6e1c84248d3ffE@GOTPCREL(%rip), %rax
	callq	*%rax
.LBB127_9:
	movq	104(%rsp), %rdi
	callq	_Unwind_Resume@PLT
.Lfunc_end127:
	.size	_ZN79_$LT$core..result..Result$LT$T$C$E$GT$$u20$as$u20$std..process..Termination$GT$6report17h87b3dea198ac2596E, .Lfunc_end127-_ZN79_$LT$core..result..Result$LT$T$C$E$GT$$u20$as$u20$std..process..Termination$GT$6report17h87b3dea198ac2596E
	.cfi_endproc
	.section	".gcc_except_table._ZN79_$LT$core..result..Result$LT$T$C$E$GT$$u20$as$u20$std..process..Termination$GT$6report17h87b3dea198ac2596E","a",@progbits
	.p2align	2, 0x0
GCC_except_table127:
.Lexception19:
	.byte	255
	.byte	155
	.uleb128 .Lttbase11-.Lttbaseref11
.Lttbaseref11:
	.byte	1
	.uleb128 .Lcst_end19-.Lcst_begin19
.Lcst_begin19:
	.uleb128 .Lfunc_begin19-.Lfunc_begin19
	.uleb128 .Ltmp153-.Lfunc_begin19
	.byte	0
	.byte	0
	.uleb128 .Ltmp153-.Lfunc_begin19
	.uleb128 .Ltmp154-.Ltmp153
	.uleb128 .Ltmp157-.Lfunc_begin19
	.byte	0
	.uleb128 .Ltmp158-.Lfunc_begin19
	.uleb128 .Ltmp159-.Ltmp158
	.uleb128 .Ltmp160-.Lfunc_begin19
	.byte	1
	.uleb128 .Ltmp155-.Lfunc_begin19
	.uleb128 .Ltmp156-.Ltmp155
	.uleb128 .Ltmp157-.Lfunc_begin19
	.byte	0
	.uleb128 .Ltmp156-.Lfunc_begin19
	.uleb128 .Lfunc_end127-.Ltmp156
	.byte	0
	.byte	0
.Lcst_end19:
	.byte	127
	.byte	0
	.p2align	2, 0x0
.Lttbase11:
	.byte	0
	.p2align	2, 0x0

	.section	".text._ZN79_$LT$std..path..Path$u20$as$u20$core..convert..AsRef$LT$std..path..Path$GT$$GT$6as_ref17h1e308051b7b2a5fbE","ax",@progbits
	.p2align	4, 0x90
	.type	_ZN79_$LT$std..path..Path$u20$as$u20$core..convert..AsRef$LT$std..path..Path$GT$$GT$6as_ref17h1e308051b7b2a5fbE,@function
_ZN79_$LT$std..path..Path$u20$as$u20$core..convert..AsRef$LT$std..path..Path$GT$$GT$6as_ref17h1e308051b7b2a5fbE:
	.cfi_startproc
	movq	%rsi, %rdx
	movq	%rdi, %rax
	retq
.Lfunc_end128:
	.size	_ZN79_$LT$std..path..Path$u20$as$u20$core..convert..AsRef$LT$std..path..Path$GT$$GT$6as_ref17h1e308051b7b2a5fbE, .Lfunc_end128-_ZN79_$LT$std..path..Path$u20$as$u20$core..convert..AsRef$LT$std..path..Path$GT$$GT$6as_ref17h1e308051b7b2a5fbE
	.cfi_endproc

	.section	".text._ZN81_$LT$alloc..vec..Vec$LT$T$C$A$GT$$u20$as$u20$core..ops..index..Index$LT$I$GT$$GT$5index17h9a04ce1fe7e0c615E","ax",@progbits
	.p2align	4, 0x90
	.type	_ZN81_$LT$alloc..vec..Vec$LT$T$C$A$GT$$u20$as$u20$core..ops..index..Index$LT$I$GT$$GT$5index17h9a04ce1fe7e0c615E,@function
_ZN81_$LT$alloc..vec..Vec$LT$T$C$A$GT$$u20$as$u20$core..ops..index..Index$LT$I$GT$$GT$5index17h9a04ce1fe7e0c615E:
	.cfi_startproc
	subq	$40, %rsp
	.cfi_def_cfa_offset 48
	movq	%rdx, %rcx
	movq	%rsi, (%rsp)
	movq	%rdi, %rax
	movq	(%rsp), %rdi
	movq	8(%rax), %rdx
	movq	16(%rax), %rax
	movq	%rdx, 24(%rsp)
	movq	%rax, 32(%rsp)
	movq	24(%rsp), %rdx
	movq	32(%rsp), %rax
	movq	%rdx, 8(%rsp)
	movq	%rax, 16(%rsp)
	movq	8(%rsp), %rsi
	movq	16(%rsp), %rdx
	callq	_ZN75_$LT$usize$u20$as$u20$core..slice..index..SliceIndex$LT$$u5b$T$u5d$$GT$$GT$5index17h8c7ab7a89c0c46b0E
	addq	$40, %rsp
	.cfi_def_cfa_offset 8
	retq
.Lfunc_end129:
	.size	_ZN81_$LT$alloc..vec..Vec$LT$T$C$A$GT$$u20$as$u20$core..ops..index..Index$LT$I$GT$$GT$5index17h9a04ce1fe7e0c615E, .Lfunc_end129-_ZN81_$LT$alloc..vec..Vec$LT$T$C$A$GT$$u20$as$u20$core..ops..index..Index$LT$I$GT$$GT$5index17h9a04ce1fe7e0c615E
	.cfi_endproc

	.section	".text._ZN86_$LT$alloc..vec..into_iter..IntoIter$LT$T$C$A$GT$$u20$as$u20$core..ops..drop..Drop$GT$4drop17h05f34eb45d0cfd07E","ax",@progbits
	.p2align	4, 0x90
	.type	_ZN86_$LT$alloc..vec..into_iter..IntoIter$LT$T$C$A$GT$$u20$as$u20$core..ops..drop..Drop$GT$4drop17h05f34eb45d0cfd07E,@function
_ZN86_$LT$alloc..vec..into_iter..IntoIter$LT$T$C$A$GT$$u20$as$u20$core..ops..drop..Drop$GT$4drop17h05f34eb45d0cfd07E:
.Lfunc_begin20:
	.cfi_startproc
	.cfi_personality 155, DW.ref.rust_eh_personality
	.cfi_lsda 27, .Lexception20
	subq	$40, %rsp
	.cfi_def_cfa_offset 48
	movq	%rdi, 16(%rsp)
	movq	16(%rsp), %rdi
.Ltmp161:
	callq	_ZN5alloc3vec9into_iter21IntoIter$LT$T$C$A$GT$16as_raw_mut_slice17h9d9795cb354e1147E
.Ltmp162:
	movq	%rdx, (%rsp)
	movq	%rax, 8(%rsp)
	jmp	.LBB130_3
.LBB130_1:
.Ltmp166:
	leaq	16(%rsp), %rdi
	callq	_ZN4core3ptr180drop_in_place$LT$$LT$alloc..vec..into_iter..IntoIter$LT$T$C$A$GT$$u20$as$u20$core..ops..drop..Drop$GT$..drop..DropGuard$LT$std..ffi..os_str..OsString$C$alloc..alloc..Global$GT$$GT$17hd5699c5f4aec8c73E
.Ltmp167:
	jmp	.LBB130_6
.LBB130_2:
.Ltmp165:
	movq	%rax, %rcx
	movl	%edx, %eax
	movq	%rcx, 24(%rsp)
	movl	%eax, 32(%rsp)
	jmp	.LBB130_1
.LBB130_3:
.Ltmp163:
	movq	(%rsp), %rsi
	movq	8(%rsp), %rdi
	callq	_ZN4core3ptr57drop_in_place$LT$$u5b$std..ffi..os_str..OsString$u5d$$GT$17hd728b86dd96954edE
.Ltmp164:
	jmp	.LBB130_4
.LBB130_4:
	leaq	16(%rsp), %rdi
	callq	_ZN4core3ptr180drop_in_place$LT$$LT$alloc..vec..into_iter..IntoIter$LT$T$C$A$GT$$u20$as$u20$core..ops..drop..Drop$GT$..drop..DropGuard$LT$std..ffi..os_str..OsString$C$alloc..alloc..Global$GT$$GT$17hd5699c5f4aec8c73E
	addq	$40, %rsp
	.cfi_def_cfa_offset 8
	retq
.LBB130_5:
	.cfi_def_cfa_offset 48
.Ltmp168:
	movq	_ZN4core9panicking16panic_in_cleanup17h76c6e1c84248d3ffE@GOTPCREL(%rip), %rax
	callq	*%rax
.LBB130_6:
	movq	24(%rsp), %rdi
	callq	_Unwind_Resume@PLT
.Lfunc_end130:
	.size	_ZN86_$LT$alloc..vec..into_iter..IntoIter$LT$T$C$A$GT$$u20$as$u20$core..ops..drop..Drop$GT$4drop17h05f34eb45d0cfd07E, .Lfunc_end130-_ZN86_$LT$alloc..vec..into_iter..IntoIter$LT$T$C$A$GT$$u20$as$u20$core..ops..drop..Drop$GT$4drop17h05f34eb45d0cfd07E
	.cfi_endproc
	.section	".gcc_except_table._ZN86_$LT$alloc..vec..into_iter..IntoIter$LT$T$C$A$GT$$u20$as$u20$core..ops..drop..Drop$GT$4drop17h05f34eb45d0cfd07E","a",@progbits
	.p2align	2, 0x0
GCC_except_table130:
.Lexception20:
	.byte	255
	.byte	155
	.uleb128 .Lttbase12-.Lttbaseref12
.Lttbaseref12:
	.byte	1
	.uleb128 .Lcst_end20-.Lcst_begin20
.Lcst_begin20:
	.uleb128 .Ltmp161-.Lfunc_begin20
	.uleb128 .Ltmp162-.Ltmp161
	.uleb128 .Ltmp165-.Lfunc_begin20
	.byte	0
	.uleb128 .Ltmp166-.Lfunc_begin20
	.uleb128 .Ltmp167-.Ltmp166
	.uleb128 .Ltmp168-.Lfunc_begin20
	.byte	1
	.uleb128 .Ltmp163-.Lfunc_begin20
	.uleb128 .Ltmp164-.Ltmp163
	.uleb128 .Ltmp165-.Lfunc_begin20
	.byte	0
	.uleb128 .Ltmp164-.Lfunc_begin20
	.uleb128 .Lfunc_end130-.Ltmp164
	.byte	0
	.byte	0
.Lcst_end20:
	.byte	127
	.byte	0
	.p2align	2, 0x0
.Lttbase12:
	.byte	0
	.p2align	2, 0x0

	.section	".text._ZN95_$LT$alloc..vec..Vec$LT$T$GT$$u20$as$u20$core..iter..traits..collect..FromIterator$LT$T$GT$$GT$9from_iter17hebc4b0c23f403a8fE","ax",@progbits
	.p2align	4, 0x90
	.type	_ZN95_$LT$alloc..vec..Vec$LT$T$GT$$u20$as$u20$core..iter..traits..collect..FromIterator$LT$T$GT$$GT$9from_iter17hebc4b0c23f403a8fE,@function
_ZN95_$LT$alloc..vec..Vec$LT$T$GT$$u20$as$u20$core..iter..traits..collect..FromIterator$LT$T$GT$$GT$9from_iter17hebc4b0c23f403a8fE:
	.cfi_startproc
	subq	$56, %rsp
	.cfi_def_cfa_offset 64
	movq	%rdi, 8(%rsp)
	movq	%rdi, 16(%rsp)
	leaq	24(%rsp), %rdi
	callq	_ZN63_$LT$I$u20$as$u20$core..iter..traits..collect..IntoIterator$GT$9into_iter17he223e3bb6b1745bdE
	movq	8(%rsp), %rdi
	leaq	24(%rsp), %rsi
	callq	_ZN98_$LT$alloc..vec..Vec$LT$T$GT$$u20$as$u20$alloc..vec..spec_from_iter..SpecFromIter$LT$T$C$I$GT$$GT$9from_iter17hfaea765f329f4f94E
	movq	16(%rsp), %rax
	addq	$56, %rsp
	.cfi_def_cfa_offset 8
	retq
.Lfunc_end131:
	.size	_ZN95_$LT$alloc..vec..Vec$LT$T$GT$$u20$as$u20$core..iter..traits..collect..FromIterator$LT$T$GT$$GT$9from_iter17hebc4b0c23f403a8fE, .Lfunc_end131-_ZN95_$LT$alloc..vec..Vec$LT$T$GT$$u20$as$u20$core..iter..traits..collect..FromIterator$LT$T$GT$$GT$9from_iter17hebc4b0c23f403a8fE
	.cfi_endproc

	.section	".text._ZN97_$LT$alloc..vec..Vec$LT$T$C$A$GT$$u20$as$u20$alloc..vec..spec_extend..SpecExtend$LT$T$C$I$GT$$GT$11spec_extend17hf0e3a0bd31ea6ea8E","ax",@progbits
	.p2align	4, 0x90
	.type	_ZN97_$LT$alloc..vec..Vec$LT$T$C$A$GT$$u20$as$u20$alloc..vec..spec_extend..SpecExtend$LT$T$C$I$GT$$GT$11spec_extend17hf0e3a0bd31ea6ea8E,@function
_ZN97_$LT$alloc..vec..Vec$LT$T$C$A$GT$$u20$as$u20$alloc..vec..spec_extend..SpecExtend$LT$T$C$I$GT$$GT$11spec_extend17hf0e3a0bd31ea6ea8E:
	.cfi_startproc
	pushq	%rax
	.cfi_def_cfa_offset 16
	callq	_ZN5alloc3vec16Vec$LT$T$C$A$GT$16extend_desugared17h0a9ace66e28a9604E
	popq	%rax
	.cfi_def_cfa_offset 8
	retq
.Lfunc_end132:
	.size	_ZN97_$LT$alloc..vec..Vec$LT$T$C$A$GT$$u20$as$u20$alloc..vec..spec_extend..SpecExtend$LT$T$C$I$GT$$GT$11spec_extend17hf0e3a0bd31ea6ea8E, .Lfunc_end132-_ZN97_$LT$alloc..vec..Vec$LT$T$C$A$GT$$u20$as$u20$alloc..vec..spec_extend..SpecExtend$LT$T$C$I$GT$$GT$11spec_extend17hf0e3a0bd31ea6ea8E
	.cfi_endproc

	.section	".text._ZN98_$LT$alloc..vec..Vec$LT$T$GT$$u20$as$u20$alloc..vec..spec_from_iter..SpecFromIter$LT$T$C$I$GT$$GT$9from_iter17hfaea765f329f4f94E","ax",@progbits
	.p2align	4, 0x90
	.type	_ZN98_$LT$alloc..vec..Vec$LT$T$GT$$u20$as$u20$alloc..vec..spec_from_iter..SpecFromIter$LT$T$C$I$GT$$GT$9from_iter17hfaea765f329f4f94E,@function
_ZN98_$LT$alloc..vec..Vec$LT$T$GT$$u20$as$u20$alloc..vec..spec_from_iter..SpecFromIter$LT$T$C$I$GT$$GT$9from_iter17hfaea765f329f4f94E:
	.cfi_startproc
	pushq	%rax
	.cfi_def_cfa_offset 16
	movq	%rdi, %rax
	movq	%rax, (%rsp)
	callq	_ZN111_$LT$alloc..vec..Vec$LT$T$GT$$u20$as$u20$alloc..vec..spec_from_iter_nested..SpecFromIterNested$LT$T$C$I$GT$$GT$9from_iter17hec73a410055f37e2E
	movq	(%rsp), %rax
	popq	%rcx
	.cfi_def_cfa_offset 8
	retq
.Lfunc_end133:
	.size	_ZN98_$LT$alloc..vec..Vec$LT$T$GT$$u20$as$u20$alloc..vec..spec_from_iter..SpecFromIter$LT$T$C$I$GT$$GT$9from_iter17hfaea765f329f4f94E, .Lfunc_end133-_ZN98_$LT$alloc..vec..Vec$LT$T$GT$$u20$as$u20$alloc..vec..spec_from_iter..SpecFromIter$LT$T$C$I$GT$$GT$9from_iter17hfaea765f329f4f94E
	.cfi_endproc

	.section	.text._ZN2cp4main17ha9501ab67b5dafdbE,"ax",@progbits
	.p2align	4, 0x90
	.type	_ZN2cp4main17ha9501ab67b5dafdbE,@function
_ZN2cp4main17ha9501ab67b5dafdbE:
.Lfunc_begin21:
	.cfi_startproc
	.cfi_personality 155, DW.ref.rust_eh_personality
	.cfi_lsda 27, .Lexception21
	subq	$424, %rsp
	.cfi_def_cfa_offset 432
	movq	_ZN3std3env4args17hfbf8da1884593356E@GOTPCREL(%rip), %rax
	leaq	128(%rsp), %rdi
	movq	%rdi, 72(%rsp)
	callq	*%rax
	movq	72(%rsp), %rsi
	leaq	104(%rsp), %rdi
	movq	%rdi, 80(%rsp)
	callq	_ZN4core4iter6traits8iterator8Iterator7collect17hd2993a51424569ffE
	movq	80(%rsp), %rdi
.Ltmp169:
	callq	_ZN5alloc3vec16Vec$LT$T$C$A$GT$3len17h9c87c42bb7928cfeE
.Ltmp170:
	movq	%rax, 88(%rsp)
	jmp	.LBB134_3
.LBB134_1:
.Ltmp220:
	leaq	104(%rsp), %rdi
	callq	_ZN4core3ptr65drop_in_place$LT$alloc..vec..Vec$LT$alloc..string..String$GT$$GT$17hba13f3a7ddd1bdbaE
.Ltmp221:
	jmp	.LBB134_40
.LBB134_2:
.Ltmp219:
	movq	%rax, %rcx
	movl	%edx, %eax
	movq	%rcx, 392(%rsp)
	movl	%eax, 400(%rsp)
	jmp	.LBB134_1
.LBB134_3:
	movq	88(%rsp), %rax
	cmpq	$3, %rax
	jne	.LBB134_5
.Ltmp179:
	leaq	.L__unnamed_26(%rip), %rdx
	leaq	104(%rsp), %rdi
	movl	$1, %esi
	callq	_ZN81_$LT$alloc..vec..Vec$LT$T$C$A$GT$$u20$as$u20$core..ops..index..Index$LT$I$GT$$GT$5index17h9a04ce1fe7e0c615E
.Ltmp180:
	movq	%rax, 64(%rsp)
	jmp	.LBB134_6
.LBB134_5:
.Ltmp171:
	leaq	.L__unnamed_27(%rip), %rdx
	xorl	%eax, %eax
	movl	%eax, %esi
	leaq	104(%rsp), %rdi
	callq	_ZN81_$LT$alloc..vec..Vec$LT$T$C$A$GT$$u20$as$u20$core..ops..index..Index$LT$I$GT$$GT$5index17h9a04ce1fe7e0c615E
.Ltmp172:
	movq	%rax, 56(%rsp)
	jmp	.LBB134_35
.LBB134_6:
.Ltmp181:
	leaq	.L__unnamed_28(%rip), %rdx
	leaq	104(%rsp), %rdi
	movl	$2, %esi
	callq	_ZN81_$LT$alloc..vec..Vec$LT$T$C$A$GT$$u20$as$u20$core..ops..index..Index$LT$I$GT$$GT$5index17h9a04ce1fe7e0c615E
.Ltmp182:
	movq	%rax, 48(%rsp)
	jmp	.LBB134_7
.LBB134_7:
.Ltmp183:
	movq	64(%rsp), %rsi
	leaq	256(%rsp), %rdi
	callq	_ZN3std2fs4File4open17h7bd72538cfa40190E
.Ltmp184:
	jmp	.LBB134_8
.LBB134_8:
.Ltmp185:
	leaq	240(%rsp), %rdi
	leaq	256(%rsp), %rsi
	callq	_ZN79_$LT$core..result..Result$LT$T$C$E$GT$$u20$as$u20$core..ops..try_trait..Try$GT$6branch17h387bc8c1b7506eb8E
.Ltmp186:
	jmp	.LBB134_9
.LBB134_9:
	movl	240(%rsp), %eax
	cmpq	$0, %rax
	jne	.LBB134_11
	movq	48(%rsp), %rsi
	movl	244(%rsp), %eax
	movl	%eax, 236(%rsp)
.Ltmp189:
	leaq	296(%rsp), %rdi
	callq	_ZN3std2fs4File6create17h21a3c9157ee1a94eE
.Ltmp190:
	jmp	.LBB134_14
.LBB134_11:
	movq	248(%rsp), %rdi
.Ltmp187:
	leaq	.L__unnamed_29(%rip), %rsi
	callq	_ZN153_$LT$core..result..Result$LT$T$C$F$GT$$u20$as$u20$core..ops..try_trait..FromResidual$LT$core..result..Result$LT$core..convert..Infallible$C$E$GT$$GT$$GT$13from_residual17h00a0db889cd26343E
.Ltmp188:
	movq	%rax, 40(%rsp)
	jmp	.LBB134_34
.LBB134_12:
.Ltmp215:
	leaq	236(%rsp), %rdi
	callq	_ZN4core3ptr34drop_in_place$LT$std..fs..File$GT$17hea2b88791e99f236E
.Ltmp216:
	jmp	.LBB134_1
.LBB134_13:
.Ltmp214:
	movq	%rax, %rcx
	movl	%edx, %eax
	movq	%rcx, 392(%rsp)
	movl	%eax, 400(%rsp)
	jmp	.LBB134_12
.LBB134_14:
.Ltmp191:
	leaq	280(%rsp), %rdi
	leaq	296(%rsp), %rsi
	callq	_ZN79_$LT$core..result..Result$LT$T$C$E$GT$$u20$as$u20$core..ops..try_trait..Try$GT$6branch17h387bc8c1b7506eb8E
.Ltmp192:
	jmp	.LBB134_15
.LBB134_15:
	movl	280(%rsp), %eax
	cmpq	$0, %rax
	jne	.LBB134_17
	movl	284(%rsp), %eax
	movl	%eax, 276(%rsp)
.Ltmp195:
	leaq	328(%rsp), %rdi
	leaq	236(%rsp), %rsi
	leaq	276(%rsp), %rdx
	callq	_ZN3std2io4copy4copy17hc8f286ed3f855be8E
.Ltmp196:
	jmp	.LBB134_20
.LBB134_17:
	movq	288(%rsp), %rdi
.Ltmp193:
	leaq	.L__unnamed_30(%rip), %rsi
	callq	_ZN153_$LT$core..result..Result$LT$T$C$F$GT$$u20$as$u20$core..ops..try_trait..FromResidual$LT$core..result..Result$LT$core..convert..Infallible$C$E$GT$$GT$$GT$13from_residual17h00a0db889cd26343E
.Ltmp194:
	movq	%rax, 32(%rsp)
	jmp	.LBB134_32
.LBB134_18:
.Ltmp210:
	leaq	276(%rsp), %rdi
	callq	_ZN4core3ptr34drop_in_place$LT$std..fs..File$GT$17hea2b88791e99f236E
.Ltmp211:
	jmp	.LBB134_12
.LBB134_19:
.Ltmp209:
	movq	%rax, %rcx
	movl	%edx, %eax
	movq	%rcx, 392(%rsp)
	movl	%eax, 400(%rsp)
	jmp	.LBB134_18
.LBB134_20:
.Ltmp197:
	leaq	312(%rsp), %rdi
	leaq	328(%rsp), %rsi
	callq	_ZN79_$LT$core..result..Result$LT$T$C$E$GT$$u20$as$u20$core..ops..try_trait..Try$GT$6branch17h606a6e2d68184d95E
.Ltmp198:
	jmp	.LBB134_21
.LBB134_21:
	cmpq	$0, 312(%rsp)
	jne	.LBB134_23
.Ltmp205:
	leaq	.L__unnamed_31(%rip), %rsi
	leaq	344(%rsp), %rdi
	movl	$1, %edx
	callq	_ZN4core3fmt9Arguments9new_const17h77eeaeb11ba320b0E
.Ltmp206:
	jmp	.LBB134_24
.LBB134_23:
	movq	320(%rsp), %rdi
.Ltmp199:
	leaq	.L__unnamed_32(%rip), %rsi
	callq	_ZN153_$LT$core..result..Result$LT$T$C$F$GT$$u20$as$u20$core..ops..try_trait..FromResidual$LT$core..result..Result$LT$core..convert..Infallible$C$E$GT$$GT$$GT$13from_residual17h00a0db889cd26343E
.Ltmp200:
	movq	%rax, 24(%rsp)
	jmp	.LBB134_29
.LBB134_24:
.Ltmp207:
	movq	_ZN3std2io5stdio6_print17h23230f9b1dbda932E@GOTPCREL(%rip), %rax
	leaq	344(%rsp), %rdi
	callq	*%rax
.Ltmp208:
	jmp	.LBB134_25
.LBB134_25:
	movq	$0, 96(%rsp)
.Ltmp212:
	leaq	276(%rsp), %rdi
	callq	_ZN4core3ptr34drop_in_place$LT$std..fs..File$GT$17hea2b88791e99f236E
.Ltmp213:
	jmp	.LBB134_26
.LBB134_26:
.Ltmp217:
	leaq	236(%rsp), %rdi
	callq	_ZN4core3ptr34drop_in_place$LT$std..fs..File$GT$17hea2b88791e99f236E
.Ltmp218:
	jmp	.LBB134_27
.LBB134_27:
	leaq	104(%rsp), %rdi
	callq	_ZN4core3ptr65drop_in_place$LT$alloc..vec..Vec$LT$alloc..string..String$GT$$GT$17hba13f3a7ddd1bdbaE
.LBB134_28:
	movq	96(%rsp), %rax
	addq	$424, %rsp
	.cfi_def_cfa_offset 8
	retq
.LBB134_29:
	.cfi_def_cfa_offset 432
	movq	24(%rsp), %rax
	movq	%rax, 96(%rsp)
.Ltmp201:
	leaq	276(%rsp), %rdi
	callq	_ZN4core3ptr34drop_in_place$LT$std..fs..File$GT$17hea2b88791e99f236E
.Ltmp202:
	jmp	.LBB134_30
.LBB134_30:
.Ltmp203:
	leaq	236(%rsp), %rdi
	callq	_ZN4core3ptr34drop_in_place$LT$std..fs..File$GT$17hea2b88791e99f236E
.Ltmp204:
	jmp	.LBB134_33
.LBB134_31:
.Ltmp222:
	movq	_ZN4core9panicking16panic_in_cleanup17h76c6e1c84248d3ffE@GOTPCREL(%rip), %rax
	callq	*%rax
.LBB134_32:
	movq	32(%rsp), %rax
	movq	%rax, 96(%rsp)
	jmp	.LBB134_30
.LBB134_33:
	leaq	104(%rsp), %rdi
	callq	_ZN4core3ptr65drop_in_place$LT$alloc..vec..Vec$LT$alloc..string..String$GT$$GT$17hba13f3a7ddd1bdbaE
	jmp	.LBB134_28
.LBB134_34:
	movq	40(%rsp), %rax
	movq	%rax, 96(%rsp)
	jmp	.LBB134_33
.LBB134_35:
	movq	56(%rsp), %rax
	movq	%rax, 224(%rsp)
	leaq	224(%rsp), %rax
	movq	%rax, 408(%rsp)
	leaq	_ZN44_$LT$$RF$T$u20$as$u20$core..fmt..Display$GT$3fmt17hff0645f98a8dc8bfE(%rip), %rax
	movq	%rax, 416(%rsp)
	movq	408(%rsp), %rax
	movq	%rax, 8(%rsp)
	movq	416(%rsp), %rax
	movq	%rax, 16(%rsp)
	movq	16(%rsp), %rax
	movq	8(%rsp), %rcx
	movq	%rcx, 208(%rsp)
	movq	%rax, 216(%rsp)
.Ltmp173:
	leaq	.L__unnamed_33(%rip), %rsi
	leaq	160(%rsp), %rdi
	movl	$2, %edx
	leaq	208(%rsp), %rcx
	movl	$1, %r8d
	callq	_ZN4core3fmt9Arguments6new_v117h37dde68bf1674cc8E
.Ltmp174:
	jmp	.LBB134_37
.LBB134_37:
.Ltmp175:
	movq	_ZN3std2io5stdio7_eprint17h225a767f63682f0aE@GOTPCREL(%rip), %rax
	leaq	160(%rsp), %rdi
	callq	*%rax
.Ltmp176:
	jmp	.LBB134_38
.LBB134_38:
.Ltmp177:
	movq	_ZN3std7process4exit17h0ef80103c5fcfa6dE@GOTPCREL(%rip), %rax
	movl	$1, %edi
	callq	*%rax
.Ltmp178:
	jmp	.LBB134_39
.LBB134_39:
	ud2
.LBB134_40:
	movq	392(%rsp), %rdi
	callq	_Unwind_Resume@PLT
.Lfunc_end134:
	.size	_ZN2cp4main17ha9501ab67b5dafdbE, .Lfunc_end134-_ZN2cp4main17ha9501ab67b5dafdbE
	.cfi_endproc
	.section	.gcc_except_table._ZN2cp4main17ha9501ab67b5dafdbE,"a",@progbits
	.p2align	2, 0x0
GCC_except_table134:
.Lexception21:
	.byte	255
	.byte	155
	.uleb128 .Lttbase13-.Lttbaseref13
.Lttbaseref13:
	.byte	1
	.uleb128 .Lcst_end21-.Lcst_begin21
.Lcst_begin21:
	.uleb128 .Lfunc_begin21-.Lfunc_begin21
	.uleb128 .Ltmp169-.Lfunc_begin21
	.byte	0
	.byte	0
	.uleb128 .Ltmp169-.Lfunc_begin21
	.uleb128 .Ltmp170-.Ltmp169
	.uleb128 .Ltmp219-.Lfunc_begin21
	.byte	0
	.uleb128 .Ltmp220-.Lfunc_begin21
	.uleb128 .Ltmp221-.Ltmp220
	.uleb128 .Ltmp222-.Lfunc_begin21
	.byte	1
	.uleb128 .Ltmp179-.Lfunc_begin21
	.uleb128 .Ltmp186-.Ltmp179
	.uleb128 .Ltmp219-.Lfunc_begin21
	.byte	0
	.uleb128 .Ltmp189-.Lfunc_begin21
	.uleb128 .Ltmp190-.Ltmp189
	.uleb128 .Ltmp214-.Lfunc_begin21
	.byte	0
	.uleb128 .Ltmp187-.Lfunc_begin21
	.uleb128 .Ltmp188-.Ltmp187
	.uleb128 .Ltmp219-.Lfunc_begin21
	.byte	0
	.uleb128 .Ltmp215-.Lfunc_begin21
	.uleb128 .Ltmp216-.Ltmp215
	.uleb128 .Ltmp222-.Lfunc_begin21
	.byte	1
	.uleb128 .Ltmp191-.Lfunc_begin21
	.uleb128 .Ltmp192-.Ltmp191
	.uleb128 .Ltmp214-.Lfunc_begin21
	.byte	0
	.uleb128 .Ltmp195-.Lfunc_begin21
	.uleb128 .Ltmp196-.Ltmp195
	.uleb128 .Ltmp209-.Lfunc_begin21
	.byte	0
	.uleb128 .Ltmp193-.Lfunc_begin21
	.uleb128 .Ltmp194-.Ltmp193
	.uleb128 .Ltmp214-.Lfunc_begin21
	.byte	0
	.uleb128 .Ltmp210-.Lfunc_begin21
	.uleb128 .Ltmp211-.Ltmp210
	.uleb128 .Ltmp222-.Lfunc_begin21
	.byte	1
	.uleb128 .Ltmp197-.Lfunc_begin21
	.uleb128 .Ltmp208-.Ltmp197
	.uleb128 .Ltmp209-.Lfunc_begin21
	.byte	0
	.uleb128 .Ltmp212-.Lfunc_begin21
	.uleb128 .Ltmp213-.Ltmp212
	.uleb128 .Ltmp214-.Lfunc_begin21
	.byte	0
	.uleb128 .Ltmp217-.Lfunc_begin21
	.uleb128 .Ltmp218-.Ltmp217
	.uleb128 .Ltmp219-.Lfunc_begin21
	.byte	0
	.uleb128 .Ltmp218-.Lfunc_begin21
	.uleb128 .Ltmp201-.Ltmp218
	.byte	0
	.byte	0
	.uleb128 .Ltmp201-.Lfunc_begin21
	.uleb128 .Ltmp202-.Ltmp201
	.uleb128 .Ltmp214-.Lfunc_begin21
	.byte	0
	.uleb128 .Ltmp203-.Lfunc_begin21
	.uleb128 .Ltmp204-.Ltmp203
	.uleb128 .Ltmp219-.Lfunc_begin21
	.byte	0
	.uleb128 .Ltmp204-.Lfunc_begin21
	.uleb128 .Ltmp173-.Ltmp204
	.byte	0
	.byte	0
	.uleb128 .Ltmp173-.Lfunc_begin21
	.uleb128 .Ltmp178-.Ltmp173
	.uleb128 .Ltmp219-.Lfunc_begin21
	.byte	0
	.uleb128 .Ltmp178-.Lfunc_begin21
	.uleb128 .Lfunc_end134-.Ltmp178
	.byte	0
	.byte	0
.Lcst_end21:
	.byte	127
	.byte	0
	.p2align	2, 0x0
.Lttbase13:
	.byte	0
	.p2align	2, 0x0

	.section	.text.main,"ax",@progbits
	.globl	main
	.p2align	4, 0x90
	.type	main,@function
main:
	.cfi_startproc
	pushq	%rax
	.cfi_def_cfa_offset 16
	movq	%rsi, %rdx
	movslq	%edi, %rsi
	leaq	_ZN2cp4main17ha9501ab67b5dafdbE(%rip), %rdi
	xorl	%ecx, %ecx
	callq	_ZN3std2rt10lang_start17h1719adfc618e3401E
	popq	%rcx
	.cfi_def_cfa_offset 8
	retq
.Lfunc_end135:
	.size	main, .Lfunc_end135-main
	.cfi_endproc

	.type	.L__unnamed_1,@object
	.section	.rodata..L__unnamed_1,"a",@progbits
.L__unnamed_1:
	.ascii	"assertion failed: 0 < pointee_size && pointee_size <= isize::MAX as usize"
	.size	.L__unnamed_1, 73

	.type	.L__unnamed_34,@object
	.section	.rodata..L__unnamed_34,"a",@progbits
.L__unnamed_34:
	.ascii	"/rustc/7cf61ebde7b22796c69757901dd346d0fe70bd97/library/core/src/ptr/const_ptr.rs"
	.size	.L__unnamed_34, 81

	.type	.L__unnamed_2,@object
	.section	.data.rel.ro..L__unnamed_2,"aw",@progbits
	.p2align	3, 0x0
.L__unnamed_2:
	.quad	.L__unnamed_34
	.asciz	"Q\000\000\000\000\000\000\0004\003\000\000\t\000\000"
	.size	.L__unnamed_2, 24

	.type	.L__unnamed_35,@object
	.section	.rodata..L__unnamed_35,"a",@progbits
.L__unnamed_35:
	.ascii	"internal error: entered unreachable code: splice should not return > 0 bytes on the fallback path"
	.size	.L__unnamed_35, 97

	.type	.L__unnamed_3,@object
	.section	.data.rel.ro..L__unnamed_3,"aw",@progbits
	.p2align	3, 0x0
.L__unnamed_3:
	.quad	.L__unnamed_35
	.asciz	"a\000\000\000\000\000\000"
	.size	.L__unnamed_3, 16

	.type	.L__unnamed_36,@object
	.section	.rodata..L__unnamed_36,"a",@progbits
.L__unnamed_36:
	.ascii	"/rustc/7cf61ebde7b22796c69757901dd346d0fe70bd97/library/std/src/sys/pal/unix/kernel_copy.rs"
	.size	.L__unnamed_36, 91

	.type	.L__unnamed_4,@object
	.section	.data.rel.ro..L__unnamed_4,"aw",@progbits
	.p2align	3, 0x0
.L__unnamed_4:
	.quad	.L__unnamed_36
	.asciz	"[\000\000\000\000\000\000\000\371\000\000\000\031\000\000"
	.size	.L__unnamed_4, 24

	.type	.L__unnamed_37,@object
	.section	.rodata..L__unnamed_37,"a",@progbits
.L__unnamed_37:
	.ascii	"/rustc/7cf61ebde7b22796c69757901dd346d0fe70bd97/library/core/src/io/borrowed_buf.rs"
	.size	.L__unnamed_37, 83

	.type	.L__unnamed_5,@object
	.section	.data.rel.ro..L__unnamed_5,"aw",@progbits
	.p2align	3, 0x0
.L__unnamed_5:
	.quad	.L__unnamed_37
	.asciz	"S\000\000\000\000\000\000\000_\000\000\000>\000\000"
	.size	.L__unnamed_5, 24

	.type	.L__unnamed_38,@object
	.section	.rodata..L__unnamed_38,"a",@progbits
.L__unnamed_38:
	.ascii	"failed to write whole buffer"
	.size	.L__unnamed_38, 28

	.type	.L__unnamed_6,@object
	.section	.data.rel.ro..L__unnamed_6,"aw",@progbits
	.p2align	3, 0x0
.L__unnamed_6:
	.quad	.L__unnamed_38
	.ascii	"\034\000\000\000\000\000\000\000\027"
	.zero	7
	.size	.L__unnamed_6, 24

	.type	.L__unnamed_39,@object
	.section	.rodata..L__unnamed_39,"a",@progbits
.L__unnamed_39:
	.ascii	"/rustc/7cf61ebde7b22796c69757901dd346d0fe70bd97/library/std/src/io/mod.rs"
	.size	.L__unnamed_39, 73

	.type	.L__unnamed_7,@object
	.section	.data.rel.ro..L__unnamed_7,"aw",@progbits
	.p2align	3, 0x0
.L__unnamed_7:
	.quad	.L__unnamed_39
	.asciz	"I\000\000\000\000\000\000\000\261\006\000\000$\000\000"
	.size	.L__unnamed_7, 24

	.type	.L__unnamed_8,@object
	.section	.rodata..L__unnamed_8,"a",@progbits
.L__unnamed_8:
	.ascii	"internal error: entered unreachable code"
	.size	.L__unnamed_8, 40

	.type	.L__unnamed_40,@object
	.section	.rodata..L__unnamed_40,"a",@progbits
.L__unnamed_40:
	.ascii	"/rustc/7cf61ebde7b22796c69757901dd346d0fe70bd97/library/std/src/io/error/repr_bitpacked.rs"
	.size	.L__unnamed_40, 90

	.type	.L__unnamed_9,@object
	.section	.data.rel.ro..L__unnamed_9,"aw",@progbits
	.p2align	3, 0x0
.L__unnamed_9:
	.quad	.L__unnamed_40
	.asciz	"Z\000\000\000\000\000\000\000\027\001\000\000\r\000\000"
	.size	.L__unnamed_9, 24

	.type	.L__unnamed_10,@object
	.section	.data.rel.ro..L__unnamed_10,"aw",@progbits
	.p2align	3, 0x0
.L__unnamed_10:
	.quad	_ZN4core3ptr137drop_in_place$LT$std..rt..lang_start$LT$core..result..Result$LT$$LP$$RP$$C$std..io..error..Error$GT$$GT$..$u7b$$u7b$closure$u7d$$u7d$$GT$17hde78ae101826632aE
	.asciz	"\b\000\000\000\000\000\000\000\b\000\000\000\000\000\000"
	.quad	_ZN4core3ops8function6FnOnce40call_once$u7b$$u7b$vtable.shim$u7d$$u7d$17hf3fb1280503034f0E
	.quad	_ZN3std2rt10lang_start28_$u7b$$u7b$closure$u7d$$u7d$17hc3b95e149f85e59cE
	.quad	_ZN3std2rt10lang_start28_$u7b$$u7b$closure$u7d$$u7d$17hc3b95e149f85e59cE
	.size	.L__unnamed_10, 48

	.type	.L__unnamed_11,@object
	.section	.rodata.cst16,"aM",@progbits,16
	.p2align	3, 0x0
.L__unnamed_11:
	.zero	8
	.zero	8
	.size	.L__unnamed_11, 16

	.type	.L__unnamed_41,@object
	.section	.rodata..L__unnamed_41,"a",@progbits
.L__unnamed_41:
	.ascii	"invalid args"
	.size	.L__unnamed_41, 12

	.type	.L__unnamed_12,@object
	.section	.data.rel.ro..L__unnamed_12,"aw",@progbits
	.p2align	3, 0x0
.L__unnamed_12:
	.quad	.L__unnamed_41
	.asciz	"\f\000\000\000\000\000\000"
	.size	.L__unnamed_12, 16

	.type	.L__unnamed_13,@object
	.section	.rodata..L__unnamed_13,"a",@progbits
	.p2align	3, 0x0
.L__unnamed_13:
	.size	.L__unnamed_13, 0

	.type	.L__unnamed_42,@object
	.section	.rodata..L__unnamed_42,"a",@progbits
.L__unnamed_42:
	.ascii	"/rustc/7cf61ebde7b22796c69757901dd346d0fe70bd97/library/core/src/fmt/mod.rs"
	.size	.L__unnamed_42, 75

	.type	.L__unnamed_14,@object
	.section	.data.rel.ro..L__unnamed_14,"aw",@progbits
	.p2align	3, 0x0
.L__unnamed_14:
	.quad	.L__unnamed_42
	.asciz	"K\000\000\000\000\000\000\000M\001\000\000\r\000\000"
	.size	.L__unnamed_14, 24

	.type	.L__unnamed_15,@object
	.section	.data.rel.ro..L__unnamed_15,"aw",@progbits
	.p2align	3, 0x0
.L__unnamed_15:
	.quad	.L__unnamed_42
	.asciz	"K\000\000\000\000\000\000\000C\001\000\000\r\000\000"
	.size	.L__unnamed_15, 24

	.type	.L__unnamed_43,@object
	.section	.rodata..L__unnamed_43,"a",@progbits
.L__unnamed_43:
	.ascii	"/rustc/7cf61ebde7b22796c69757901dd346d0fe70bd97/library/core/src/iter/traits/exact_size.rs"
	.size	.L__unnamed_43, 90

	.type	.L__unnamed_16,@object
	.section	.data.rel.ro..L__unnamed_16,"aw",@progbits
	.p2align	3, 0x0
.L__unnamed_16:
	.quad	.L__unnamed_43
	.asciz	"Z\000\000\000\000\000\000\000z\000\000\000\t\000\000"
	.size	.L__unnamed_16, 24

	.type	.L__unnamed_44,@object
	.section	.rodata..L__unnamed_44,"a",@progbits
.L__unnamed_44:
	.ascii	"/rustc/7cf61ebde7b22796c69757901dd346d0fe70bd97/library/core/src/alloc/layout.rs"
	.size	.L__unnamed_44, 80

	.type	.L__unnamed_17,@object
	.section	.data.rel.ro..L__unnamed_17,"aw",@progbits
	.p2align	3, 0x0
.L__unnamed_17:
	.quad	.L__unnamed_44
	.asciz	"P\000\000\000\000\000\000\000\301\001\000\000)\000\000"
	.size	.L__unnamed_17, 24

	.type	str.0,@object
	.section	.rodata.str.0,"a",@progbits
	.p2align	4, 0x0
str.0:
	.ascii	"attempt to divide by zero"
	.size	str.0, 25

	.type	.L__unnamed_18,@object
	.section	.data.rel.ro..L__unnamed_18,"aw",@progbits
	.p2align	3, 0x0
.L__unnamed_18:
	.quad	_ZN4core3ptr58drop_in_place$LT$$RF$core..option..Option$LT$usize$GT$$GT$17h9437f65745570cefE
	.asciz	"\b\000\000\000\000\000\000\000\b\000\000\000\000\000\000"
	.quad	_ZN42_$LT$$RF$T$u20$as$u20$core..fmt..Debug$GT$3fmt17h45287504caf7022fE
	.size	.L__unnamed_18, 32

	.type	.L__unnamed_45,@object
	.section	.rodata..L__unnamed_45,"a",@progbits
.L__unnamed_45:
	.ascii	"internal error: entered unreachable code: only called from specializations"
	.size	.L__unnamed_45, 74

	.type	.L__unnamed_19,@object
	.section	.data.rel.ro..L__unnamed_19,"aw",@progbits
	.p2align	3, 0x0
.L__unnamed_19:
	.quad	.L__unnamed_45
	.asciz	"J\000\000\000\000\000\000"
	.size	.L__unnamed_19, 16

	.type	.L__unnamed_46,@object
	.section	.rodata..L__unnamed_46,"a",@progbits
.L__unnamed_46:
	.ascii	"/rustc/7cf61ebde7b22796c69757901dd346d0fe70bd97/library/std/src/io/copy.rs"
	.size	.L__unnamed_46, 74

	.type	.L__unnamed_20,@object
	.section	.data.rel.ro..L__unnamed_20,"aw",@progbits
	.p2align	3, 0x0
.L__unnamed_20:
	.quad	.L__unnamed_46
	.asciz	"J\000\000\000\000\000\000\000p\000\000\000\t\000\000"
	.size	.L__unnamed_20, 24

	.type	.L__unnamed_21,@object
	.section	.rodata.cst16,"aM",@progbits,16
	.p2align	3, 0x0
.L__unnamed_21:
	.ascii	"\001\000\000\000\000\000\000\200"
	.zero	8
	.size	.L__unnamed_21, 16

	.type	.L__unnamed_22,@object
	.section	.rodata.cst4,"aM",@progbits,4
.L__unnamed_22:
	.ascii	"None"
	.size	.L__unnamed_22, 4

	.type	.L__unnamed_23,@object
.L__unnamed_23:
	.ascii	"Some"
	.size	.L__unnamed_23, 4

	.type	.L__unnamed_24,@object
	.section	.data.rel.ro..L__unnamed_24,"aw",@progbits
	.p2align	3, 0x0
.L__unnamed_24:
	.quad	_ZN4core3ptr30drop_in_place$LT$$RF$usize$GT$17h766f6ca9c768b258E
	.asciz	"\b\000\000\000\000\000\000\000\b\000\000\000\000\000\000"
	.quad	_ZN42_$LT$$RF$T$u20$as$u20$core..fmt..Debug$GT$3fmt17h9ce51080d038cf92E
	.size	.L__unnamed_24, 32

	.type	.L__unnamed_47,@object
	.section	.rodata..L__unnamed_47,"a",@progbits
.L__unnamed_47:
	.ascii	"Error: "
	.size	.L__unnamed_47, 7

	.type	.L__unnamed_48,@object
	.section	.rodata..L__unnamed_48,"a",@progbits
.L__unnamed_48:
	.byte	10
	.size	.L__unnamed_48, 1

	.type	.L__unnamed_25,@object
	.section	.data.rel.ro..L__unnamed_25,"aw",@progbits
	.p2align	3, 0x0
.L__unnamed_25:
	.quad	.L__unnamed_47
	.asciz	"\007\000\000\000\000\000\000"
	.quad	.L__unnamed_48
	.asciz	"\001\000\000\000\000\000\000"
	.size	.L__unnamed_25, 32

	.type	.L__unnamed_49,@object
	.section	.rodata..L__unnamed_49,"a",@progbits
.L__unnamed_49:
	.ascii	"cp.rs"
	.size	.L__unnamed_49, 5

	.type	.L__unnamed_26,@object
	.section	.data.rel.ro..L__unnamed_26,"aw",@progbits
	.p2align	3, 0x0
.L__unnamed_26:
	.quad	.L__unnamed_49
	.asciz	"\005\000\000\000\000\000\000\000\f\000\000\000\034\000\000"
	.size	.L__unnamed_26, 24

	.type	.L__unnamed_28,@object
	.section	.data.rel.ro..L__unnamed_28,"aw",@progbits
	.p2align	3, 0x0
.L__unnamed_28:
	.quad	.L__unnamed_49
	.asciz	"\005\000\000\000\000\000\000\000\r\000\000\000\032\000\000"
	.size	.L__unnamed_28, 24

	.type	.L__unnamed_50,@object
	.section	.rodata..L__unnamed_50,"a",@progbits
.L__unnamed_50:
	.ascii	"File copied successfully.\n"
	.size	.L__unnamed_50, 26

	.type	.L__unnamed_31,@object
	.section	.data.rel.ro..L__unnamed_31,"aw",@progbits
	.p2align	3, 0x0
.L__unnamed_31:
	.quad	.L__unnamed_50
	.asciz	"\032\000\000\000\000\000\000"
	.size	.L__unnamed_31, 16

	.type	.L__unnamed_32,@object
	.section	.data.rel.ro..L__unnamed_32,"aw",@progbits
	.p2align	3, 0x0
.L__unnamed_32:
	.quad	.L__unnamed_49
	.asciz	"\005\000\000\000\000\000\000\000\022\000\000\000\005\000\000"
	.size	.L__unnamed_32, 24

	.type	.L__unnamed_30,@object
	.section	.data.rel.ro..L__unnamed_30,"aw",@progbits
	.p2align	3, 0x0
.L__unnamed_30:
	.quad	.L__unnamed_49
	.asciz	"\005\000\000\000\000\000\000\000\020\000\000\000\031\000\000"
	.size	.L__unnamed_30, 24

	.type	.L__unnamed_29,@object
	.section	.data.rel.ro..L__unnamed_29,"aw",@progbits
	.p2align	3, 0x0
.L__unnamed_29:
	.quad	.L__unnamed_49
	.asciz	"\005\000\000\000\000\000\000\000\017\000\000\000\033\000\000"
	.size	.L__unnamed_29, 24

	.type	.L__unnamed_51,@object
	.section	.rodata..L__unnamed_51,"a",@progbits
.L__unnamed_51:
	.ascii	"Usage: "
	.size	.L__unnamed_51, 7

	.type	.L__unnamed_52,@object
	.section	.rodata..L__unnamed_52,"a",@progbits
.L__unnamed_52:
	.ascii	" <source_file> <destination_file>\n"
	.size	.L__unnamed_52, 34

	.type	.L__unnamed_33,@object
	.section	.data.rel.ro..L__unnamed_33,"aw",@progbits
	.p2align	3, 0x0
.L__unnamed_33:
	.quad	.L__unnamed_51
	.asciz	"\007\000\000\000\000\000\000"
	.quad	.L__unnamed_52
	.asciz	"\"\000\000\000\000\000\000"
	.size	.L__unnamed_33, 32

	.type	.L__unnamed_27,@object
	.section	.data.rel.ro..L__unnamed_27,"aw",@progbits
	.p2align	3, 0x0
.L__unnamed_27:
	.quad	.L__unnamed_49
	.asciz	"\005\000\000\000\000\000\000\000\b\000\000\000F\000\000"
	.size	.L__unnamed_27, 24

	.hidden	DW.ref.rust_eh_personality
	.weak	DW.ref.rust_eh_personality
	.section	.data.DW.ref.rust_eh_personality,"aGw",@progbits,DW.ref.rust_eh_personality,comdat
	.p2align	3, 0x0
	.type	DW.ref.rust_eh_personality,@object
	.size	DW.ref.rust_eh_personality, 8
DW.ref.rust_eh_personality:
	.quad	rust_eh_personality
	.ident	"rustc version 1.77.1 (7cf61ebde 2024-03-27)"
	.section	".note.GNU-stack","",@progbits
