	.text
	.file	"ls.7a4226632e8f4eb3-cgu.0"
	.section	".text._ZN103_$LT$alloc..vec..into_iter..IntoIter$LT$T$C$A$GT$$u20$as$u20$core..iter..traits..iterator..Iterator$GT$4next17h3e18595727f1b035E","ax",@progbits
	.p2align	4, 0x90
	.type	_ZN103_$LT$alloc..vec..into_iter..IntoIter$LT$T$C$A$GT$$u20$as$u20$core..iter..traits..iterator..Iterator$GT$4next17h3e18595727f1b035E,@function
_ZN103_$LT$alloc..vec..into_iter..IntoIter$LT$T$C$A$GT$$u20$as$u20$core..iter..traits..iterator..Iterator$GT$4next17h3e18595727f1b035E:
	.cfi_startproc
	subq	$72, %rsp
	.cfi_def_cfa_offset 80
	movq	%rdi, 8(%rsp)
	xorl	%eax, %eax
	testb	$1, %al
	jne	.LBB0_2
	movq	8(%rsp), %rax
	movq	24(%rax), %rcx
	movq	%rcx, 24(%rsp)
	movq	8(%rax), %rax
	cmpq	24(%rsp), %rax
	je	.LBB0_4
	jmp	.LBB0_3
.LBB0_2:
	movq	8(%rsp), %rcx
	movq	8(%rcx), %rax
	cmpq	24(%rcx), %rax
	je	.LBB0_8
	jmp	.LBB0_7
.LBB0_3:
	movq	8(%rsp), %rcx
	movq	8(%rcx), %rax
	movq	%rax, %rdx
	addq	$8, %rdx
	movq	%rdx, 32(%rsp)
	movq	32(%rsp), %rdx
	movq	%rdx, 8(%rcx)
	movq	(%rax), %rax
	movq	%rax, 16(%rsp)
	jmp	.LBB0_5
.LBB0_4:
	movq	$0, 16(%rsp)
.LBB0_5:
	jmp	.LBB0_6
.LBB0_6:
	movq	16(%rsp), %rax
	addq	$72, %rsp
	.cfi_def_cfa_offset 8
	retq
.LBB0_7:
	.cfi_def_cfa_offset 80
	movq	8(%rsp), %rax
	movq	24(%rax), %rcx
	addq	$-1, %rcx
	movq	%rcx, 64(%rsp)
	movq	64(%rsp), %rcx
	movq	%rcx, 48(%rsp)
	movq	48(%rsp), %rcx
	movq	%rcx, 40(%rsp)
	movq	40(%rsp), %rcx
	movq	%rcx, 24(%rax)
	leaq	str.0(%rip), %rdi
	movl	$76, %esi
	callq	*_ZN4core9panicking14panic_nounwind17h24432bd1d9d584b6E@GOTPCREL(%rip)
	leaq	56(%rsp), %rdi
	xorl	%esi, %esi
	movl	$8, %edx
	callq	memset@PLT
	movq	56(%rsp), %rax
	movq	%rax, 16(%rsp)
	jmp	.LBB0_9
.LBB0_8:
	movq	$0, 16(%rsp)
.LBB0_9:
	jmp	.LBB0_6
.Lfunc_end0:
	.size	_ZN103_$LT$alloc..vec..into_iter..IntoIter$LT$T$C$A$GT$$u20$as$u20$core..iter..traits..iterator..Iterator$GT$4next17h3e18595727f1b035E, .Lfunc_end0-_ZN103_$LT$alloc..vec..into_iter..IntoIter$LT$T$C$A$GT$$u20$as$u20$core..iter..traits..iterator..Iterator$GT$4next17h3e18595727f1b035E
	.cfi_endproc

	.section	".text._ZN103_$LT$alloc..vec..into_iter..IntoIter$LT$T$C$A$GT$$u20$as$u20$core..iter..traits..iterator..Iterator$GT$9size_hint17h51c035a86c78a673E","ax",@progbits
	.p2align	4, 0x90
	.type	_ZN103_$LT$alloc..vec..into_iter..IntoIter$LT$T$C$A$GT$$u20$as$u20$core..iter..traits..iterator..Iterator$GT$9size_hint17h51c035a86c78a673E,@function
_ZN103_$LT$alloc..vec..into_iter..IntoIter$LT$T$C$A$GT$$u20$as$u20$core..iter..traits..iterator..Iterator$GT$9size_hint17h51c035a86c78a673E:
	.cfi_startproc
	subq	$72, %rsp
	.cfi_def_cfa_offset 80
	movq	%rsi, 24(%rsp)
	movq	%rdi, 32(%rsp)
	movq	%rdi, 40(%rsp)
	xorl	%eax, %eax
	testb	$1, %al
	jne	.LBB1_2
	movq	24(%rsp), %rax
	movq	24(%rax), %rcx
	movq	%rcx, 8(%rsp)
	movq	8(%rax), %rax
	movq	%rax, 16(%rsp)
	movb	$1, %al
	testb	$1, %al
	jne	.LBB1_4
	jmp	.LBB1_3
.LBB1_2:
	movq	24(%rsp), %rcx
	movq	24(%rcx), %rax
	movq	8(%rcx), %rcx
	subq	%rcx, %rax
	movq	%rax, 48(%rsp)
	jmp	.LBB1_6
.LBB1_3:
	leaq	.L__unnamed_1(%rip), %rdi
	leaq	.L__unnamed_2(%rip), %rdx
	movq	_ZN4core9panicking5panic17h90e84101c01877efE@GOTPCREL(%rip), %rax
	movl	$73, %esi
	callq	*%rax
.LBB1_4:
	movb	$1, %al
	testb	$1, %al
	jne	.LBB1_5
	jmp	.LBB1_3
.LBB1_5:
	movq	16(%rsp), %rcx
	movq	8(%rsp), %rax
	subq	%rcx, %rax
	shrq	$3, %rax
	movq	%rax, 48(%rsp)
.LBB1_6:
	movq	40(%rsp), %rax
	movq	32(%rsp), %rcx
	movq	48(%rsp), %rdx
	movq	48(%rsp), %rsi
	movq	%rsi, 64(%rsp)
	movq	$1, 56(%rsp)
	movq	%rdx, (%rcx)
	movq	56(%rsp), %rsi
	movq	64(%rsp), %rdx
	movq	%rsi, 8(%rcx)
	movq	%rdx, 16(%rcx)
	addq	$72, %rsp
	.cfi_def_cfa_offset 8
	retq
.Lfunc_end1:
	.size	_ZN103_$LT$alloc..vec..into_iter..IntoIter$LT$T$C$A$GT$$u20$as$u20$core..iter..traits..iterator..Iterator$GT$9size_hint17h51c035a86c78a673E, .Lfunc_end1-_ZN103_$LT$alloc..vec..into_iter..IntoIter$LT$T$C$A$GT$$u20$as$u20$core..iter..traits..iterator..Iterator$GT$9size_hint17h51c035a86c78a673E
	.cfi_endproc

	.section	".text._ZN103_$LT$alloc..vec..into_iter..IntoIter$LT$T$C$A$GT$$u20$as$u20$core..iter..traits..iterator..Iterator$GT$9size_hint17h72b7d77af46b67e7E","ax",@progbits
	.p2align	4, 0x90
	.type	_ZN103_$LT$alloc..vec..into_iter..IntoIter$LT$T$C$A$GT$$u20$as$u20$core..iter..traits..iterator..Iterator$GT$9size_hint17h72b7d77af46b67e7E,@function
_ZN103_$LT$alloc..vec..into_iter..IntoIter$LT$T$C$A$GT$$u20$as$u20$core..iter..traits..iterator..Iterator$GT$9size_hint17h72b7d77af46b67e7E:
	.cfi_startproc
	subq	$72, %rsp
	.cfi_def_cfa_offset 80
	movq	%rsi, 24(%rsp)
	movq	%rdi, 32(%rsp)
	movq	%rdi, 40(%rsp)
	xorl	%eax, %eax
	testb	$1, %al
	jne	.LBB2_2
	movq	24(%rsp), %rax
	movq	24(%rax), %rcx
	movq	%rcx, 8(%rsp)
	movq	8(%rax), %rax
	movq	%rax, 16(%rsp)
	movb	$1, %al
	testb	$1, %al
	jne	.LBB2_4
	jmp	.LBB2_3
.LBB2_2:
	movq	24(%rsp), %rcx
	movq	24(%rcx), %rax
	movq	8(%rcx), %rcx
	subq	%rcx, %rax
	movq	%rax, 48(%rsp)
	jmp	.LBB2_6
.LBB2_3:
	leaq	.L__unnamed_1(%rip), %rdi
	leaq	.L__unnamed_2(%rip), %rdx
	movq	_ZN4core9panicking5panic17h90e84101c01877efE@GOTPCREL(%rip), %rax
	movl	$73, %esi
	callq	*%rax
.LBB2_4:
	movb	$1, %al
	testb	$1, %al
	jne	.LBB2_5
	jmp	.LBB2_3
.LBB2_5:
	movq	16(%rsp), %rcx
	movq	8(%rsp), %rax
	subq	%rcx, %rax
	movl	$24, %ecx
	xorl	%edx, %edx
	divq	%rcx
	movq	%rax, 48(%rsp)
.LBB2_6:
	movq	40(%rsp), %rax
	movq	32(%rsp), %rcx
	movq	48(%rsp), %rdx
	movq	48(%rsp), %rsi
	movq	%rsi, 64(%rsp)
	movq	$1, 56(%rsp)
	movq	%rdx, (%rcx)
	movq	56(%rsp), %rsi
	movq	64(%rsp), %rdx
	movq	%rsi, 8(%rcx)
	movq	%rdx, 16(%rcx)
	addq	$72, %rsp
	.cfi_def_cfa_offset 8
	retq
.Lfunc_end2:
	.size	_ZN103_$LT$alloc..vec..into_iter..IntoIter$LT$T$C$A$GT$$u20$as$u20$core..iter..traits..iterator..Iterator$GT$9size_hint17h72b7d77af46b67e7E, .Lfunc_end2-_ZN103_$LT$alloc..vec..into_iter..IntoIter$LT$T$C$A$GT$$u20$as$u20$core..iter..traits..iterator..Iterator$GT$9size_hint17h72b7d77af46b67e7E
	.cfi_endproc

	.section	".text._ZN106_$LT$core..ops..range..Range$LT$usize$GT$$u20$as$u20$core..slice..index..SliceIndex$LT$$u5b$T$u5d$$GT$$GT$5index17hae191c9cec80b9c8E","ax",@progbits
	.p2align	4, 0x90
	.type	_ZN106_$LT$core..ops..range..Range$LT$usize$GT$$u20$as$u20$core..slice..index..SliceIndex$LT$$u5b$T$u5d$$GT$$GT$5index17hae191c9cec80b9c8E,@function
_ZN106_$LT$core..ops..range..Range$LT$usize$GT$$u20$as$u20$core..slice..index..SliceIndex$LT$$u5b$T$u5d$$GT$$GT$5index17hae191c9cec80b9c8E:
	.cfi_startproc
	subq	$72, %rsp
	.cfi_def_cfa_offset 80
	movq	%rdi, (%rsp)
	movq	%rsi, 8(%rsp)
	movq	%rdx, 16(%rsp)
	movq	%rcx, 24(%rsp)
	movq	%r8, 32(%rsp)
	cmpq	%rsi, %rdi
	ja	.LBB3_2
	movq	8(%rsp), %rax
	movq	24(%rsp), %rcx
	cmpq	%rcx, %rax
	ja	.LBB3_4
	jmp	.LBB3_3
.LBB3_2:
	movq	32(%rsp), %rdx
	movq	8(%rsp), %rsi
	movq	(%rsp), %rdi
	movq	_ZN4core5slice5index22slice_index_order_fail17h4b03447ddded9b9bE@GOTPCREL(%rip), %rax
	callq	*%rax
.LBB3_3:
	movq	(%rsp), %rdx
	movq	16(%rsp), %rcx
	movq	8(%rsp), %rax
	subq	%rdx, %rax
	addq	%rdx, %rcx
	movq	%rcx, 56(%rsp)
	movq	%rax, 64(%rsp)
	movq	56(%rsp), %rcx
	movq	64(%rsp), %rax
	movq	%rcx, 40(%rsp)
	movq	%rax, 48(%rsp)
	movq	40(%rsp), %rax
	movq	48(%rsp), %rdx
	addq	$72, %rsp
	.cfi_def_cfa_offset 8
	retq
.LBB3_4:
	.cfi_def_cfa_offset 80
	movq	32(%rsp), %rdx
	movq	24(%rsp), %rsi
	movq	8(%rsp), %rdi
	movq	_ZN4core5slice5index24slice_end_index_len_fail17h332fde1d59776f82E@GOTPCREL(%rip), %rax
	callq	*%rax
.Lfunc_end3:
	.size	_ZN106_$LT$core..ops..range..Range$LT$usize$GT$$u20$as$u20$core..slice..index..SliceIndex$LT$$u5b$T$u5d$$GT$$GT$5index17hae191c9cec80b9c8E, .Lfunc_end3-_ZN106_$LT$core..ops..range..Range$LT$usize$GT$$u20$as$u20$core..slice..index..SliceIndex$LT$$u5b$T$u5d$$GT$$GT$5index17hae191c9cec80b9c8E
	.cfi_endproc

	.section	".text._ZN110_$LT$core..ops..range..RangeFrom$LT$usize$GT$$u20$as$u20$core..slice..index..SliceIndex$LT$$u5b$T$u5d$$GT$$GT$5index17h07b75bb495359038E","ax",@progbits
	.p2align	4, 0x90
	.type	_ZN110_$LT$core..ops..range..RangeFrom$LT$usize$GT$$u20$as$u20$core..slice..index..SliceIndex$LT$$u5b$T$u5d$$GT$$GT$5index17h07b75bb495359038E,@function
_ZN110_$LT$core..ops..range..RangeFrom$LT$usize$GT$$u20$as$u20$core..slice..index..SliceIndex$LT$$u5b$T$u5d$$GT$$GT$5index17h07b75bb495359038E:
	.cfi_startproc
	subq	$88, %rsp
	.cfi_def_cfa_offset 96
	movq	%rdi, 8(%rsp)
	movq	%rsi, 16(%rsp)
	movq	%rdx, 24(%rsp)
	movq	%rcx, 32(%rsp)
	cmpq	%rdx, %rdi
	ja	.LBB4_2
	movq	16(%rsp), %rcx
	movq	8(%rsp), %rdx
	movq	24(%rsp), %rax
	movq	%rcx, 40(%rsp)
	movq	%rax, 48(%rsp)
	movq	48(%rsp), %rax
	subq	%rdx, %rax
	leaq	(%rdx,%rdx,2), %rdx
	leaq	(%rcx,%rdx,8), %rcx
	movq	%rcx, 72(%rsp)
	movq	%rax, 80(%rsp)
	movq	72(%rsp), %rcx
	movq	80(%rsp), %rax
	movq	%rcx, 56(%rsp)
	movq	%rax, 64(%rsp)
	movq	56(%rsp), %rax
	movq	64(%rsp), %rdx
	addq	$88, %rsp
	.cfi_def_cfa_offset 8
	retq
.LBB4_2:
	.cfi_def_cfa_offset 96
	movq	32(%rsp), %rdx
	movq	24(%rsp), %rsi
	movq	8(%rsp), %rdi
	movq	_ZN4core5slice5index26slice_start_index_len_fail17hdaca407d67a34612E@GOTPCREL(%rip), %rax
	callq	*%rax
.Lfunc_end4:
	.size	_ZN110_$LT$core..ops..range..RangeFrom$LT$usize$GT$$u20$as$u20$core..slice..index..SliceIndex$LT$$u5b$T$u5d$$GT$$GT$5index17h07b75bb495359038E, .Lfunc_end4-_ZN110_$LT$core..ops..range..RangeFrom$LT$usize$GT$$u20$as$u20$core..slice..index..SliceIndex$LT$$u5b$T$u5d$$GT$$GT$5index17h07b75bb495359038E
	.cfi_endproc

	.section	".text._ZN111_$LT$alloc..vec..Vec$LT$T$GT$$u20$as$u20$alloc..vec..spec_from_iter_nested..SpecFromIterNested$LT$T$C$I$GT$$GT$9from_iter17h1d53fec18d0405b5E","ax",@progbits
	.p2align	4, 0x90
	.type	_ZN111_$LT$alloc..vec..Vec$LT$T$GT$$u20$as$u20$alloc..vec..spec_from_iter_nested..SpecFromIterNested$LT$T$C$I$GT$$GT$9from_iter17h1d53fec18d0405b5E,@function
_ZN111_$LT$alloc..vec..Vec$LT$T$GT$$u20$as$u20$alloc..vec..spec_from_iter_nested..SpecFromIterNested$LT$T$C$I$GT$$GT$9from_iter17h1d53fec18d0405b5E:
.Lfunc_begin0:
	.cfi_startproc
	.cfi_personality 155, DW.ref.rust_eh_personality
	.cfi_lsda 27, .Lexception0
	subq	$280, %rsp
	.cfi_def_cfa_offset 288
	movq	%rsi, 24(%rsp)
	movq	%rdi, 32(%rsp)
	movq	%rdi, 40(%rsp)
	movb	$1, 255(%rsp)
.Ltmp0:
	movq	_ZN73_$LT$std..env..Args$u20$as$u20$core..iter..traits..iterator..Iterator$GT$4next17h535c671db2e5e21bE@GOTPCREL(%rip), %rax
	leaq	72(%rsp), %rdi
	callq	*%rax
.Ltmp1:
	jmp	.LBB5_3
.LBB5_1:
	testb	$1, 255(%rsp)
	jne	.LBB5_17
	jmp	.LBB5_16
.LBB5_2:
.Ltmp2:
	movq	%rax, %rcx
	movl	%edx, %eax
	movq	%rcx, 256(%rsp)
	movl	%eax, 264(%rsp)
	jmp	.LBB5_1
.LBB5_3:
	movabsq	$-9223372036854775808, %rdx
	movl	$1, %eax
	xorl	%ecx, %ecx
	cmpq	%rdx, 72(%rsp)
	cmoveq	%rcx, %rax
	cmpq	$0, %rax
	jne	.LBB5_5
	movq	24(%rsp), %rdi
	movq	32(%rsp), %rax
	movq	$0, (%rax)
	movl	$8, %ecx
	movq	%rcx, 8(%rax)
	movq	$0, 16(%rax)
	callq	_ZN4core3ptr35drop_in_place$LT$std..env..Args$GT$17hde71d8da036503d8E
	jmp	.LBB5_6
.LBB5_5:
	movq	24(%rsp), %rsi
	movq	88(%rsp), %rax
	movq	%rax, 112(%rsp)
	movups	72(%rsp), %xmm0
	movaps	%xmm0, 96(%rsp)
.Ltmp3:
	movq	_ZN73_$LT$std..env..Args$u20$as$u20$core..iter..traits..iterator..Iterator$GT$9size_hint17h1f179a76bfef4daaE@GOTPCREL(%rip), %rax
	leaq	128(%rsp), %rdi
	callq	*%rax
.Ltmp4:
	jmp	.LBB5_9
.LBB5_6:
	movq	40(%rsp), %rax
	addq	$280, %rsp
	.cfi_def_cfa_offset 8
	retq
.LBB5_7:
	.cfi_def_cfa_offset 288
.Ltmp10:
	leaq	96(%rsp), %rdi
	callq	_ZN4core3ptr42drop_in_place$LT$alloc..string..String$GT$17h592997dd52716563E
.Ltmp11:
	jmp	.LBB5_1
.LBB5_8:
.Ltmp9:
	movq	%rax, %rcx
	movl	%edx, %eax
	movq	%rcx, 256(%rsp)
	movl	%eax, 264(%rsp)
	jmp	.LBB5_7
.LBB5_9:
	movq	128(%rsp), %rax
	incq	%rax
	movq	$-1, %rcx
	cmoveq	%rcx, %rax
	movq	%rax, 272(%rsp)
	movq	272(%rsp), %rsi
.Ltmp5:
	movl	$4, %edi
	callq	_ZN4core3cmp6max_by17hb93fa388b2ad5bbeE
.Ltmp6:
	movq	%rax, 16(%rsp)
	jmp	.LBB5_10
.LBB5_10:
.Ltmp7:
	movq	16(%rsp), %rdi
	xorl	%esi, %esi
	callq	_ZN5alloc7raw_vec19RawVec$LT$T$C$A$GT$11allocate_in17h6cbe057f212db8afE
.Ltmp8:
	movq	%rdx, (%rsp)
	movq	%rax, 8(%rsp)
	jmp	.LBB5_11
.LBB5_11:
	movq	24(%rsp), %rax
	movq	(%rsp), %rcx
	movq	8(%rsp), %rdx
	movq	%rdx, 152(%rsp)
	movq	%rcx, 160(%rsp)
	movq	$0, 168(%rsp)
	movq	160(%rsp), %rcx
	movq	112(%rsp), %rdx
	movq	%rdx, 192(%rsp)
	movaps	96(%rsp), %xmm0
	movaps	%xmm0, 176(%rsp)
	movq	192(%rsp), %rdx
	movq	%rdx, 16(%rcx)
	movaps	176(%rsp), %xmm0
	movups	%xmm0, (%rcx)
	movq	$1, 168(%rsp)
	movq	168(%rsp), %rcx
	movq	%rcx, 64(%rsp)
	movups	152(%rsp), %xmm0
	movaps	%xmm0, 48(%rsp)
	movb	$0, 255(%rsp)
	movups	(%rax), %xmm0
	movups	16(%rax), %xmm1
	movaps	%xmm1, 224(%rsp)
	movaps	%xmm0, 208(%rsp)
.Ltmp12:
	leaq	48(%rsp), %rdi
	leaq	208(%rsp), %rsi
	callq	_ZN97_$LT$alloc..vec..Vec$LT$T$C$A$GT$$u20$as$u20$alloc..vec..spec_extend..SpecExtend$LT$T$C$I$GT$$GT$11spec_extend17h03c72baa7a4b0874E
.Ltmp13:
	jmp	.LBB5_14
.LBB5_12:
.Ltmp15:
	leaq	48(%rsp), %rdi
	callq	_ZN4core3ptr65drop_in_place$LT$alloc..vec..Vec$LT$alloc..string..String$GT$$GT$17ha8b8cbcdb81272f6E
.Ltmp16:
	jmp	.LBB5_1
.LBB5_13:
.Ltmp14:
	movq	%rax, %rcx
	movl	%edx, %eax
	movq	%rcx, 256(%rsp)
	movl	%eax, 264(%rsp)
	jmp	.LBB5_12
.LBB5_14:
	movq	32(%rsp), %rax
	movq	48(%rsp), %rcx
	movq	%rcx, (%rax)
	movq	56(%rsp), %rcx
	movq	%rcx, 8(%rax)
	movq	64(%rsp), %rcx
	movq	%rcx, 16(%rax)
	jmp	.LBB5_6
.LBB5_15:
.Ltmp19:
	movq	_ZN4core9panicking16panic_in_cleanup17h76c6e1c84248d3ffE@GOTPCREL(%rip), %rax
	callq	*%rax
.LBB5_16:
	movq	256(%rsp), %rdi
	callq	_Unwind_Resume@PLT
.LBB5_17:
.Ltmp17:
	movq	24(%rsp), %rdi
	callq	_ZN4core3ptr35drop_in_place$LT$std..env..Args$GT$17hde71d8da036503d8E
.Ltmp18:
	jmp	.LBB5_16
.Lfunc_end5:
	.size	_ZN111_$LT$alloc..vec..Vec$LT$T$GT$$u20$as$u20$alloc..vec..spec_from_iter_nested..SpecFromIterNested$LT$T$C$I$GT$$GT$9from_iter17h1d53fec18d0405b5E, .Lfunc_end5-_ZN111_$LT$alloc..vec..Vec$LT$T$GT$$u20$as$u20$alloc..vec..spec_from_iter_nested..SpecFromIterNested$LT$T$C$I$GT$$GT$9from_iter17h1d53fec18d0405b5E
	.cfi_endproc
	.section	".gcc_except_table._ZN111_$LT$alloc..vec..Vec$LT$T$GT$$u20$as$u20$alloc..vec..spec_from_iter_nested..SpecFromIterNested$LT$T$C$I$GT$$GT$9from_iter17h1d53fec18d0405b5E","a",@progbits
	.p2align	2, 0x0
GCC_except_table5:
.Lexception0:
	.byte	255
	.byte	155
	.uleb128 .Lttbase0-.Lttbaseref0
.Lttbaseref0:
	.byte	1
	.uleb128 .Lcst_end0-.Lcst_begin0
.Lcst_begin0:
	.uleb128 .Ltmp0-.Lfunc_begin0
	.uleb128 .Ltmp1-.Ltmp0
	.uleb128 .Ltmp2-.Lfunc_begin0
	.byte	0
	.uleb128 .Ltmp1-.Lfunc_begin0
	.uleb128 .Ltmp3-.Ltmp1
	.byte	0
	.byte	0
	.uleb128 .Ltmp3-.Lfunc_begin0
	.uleb128 .Ltmp4-.Ltmp3
	.uleb128 .Ltmp9-.Lfunc_begin0
	.byte	0
	.uleb128 .Ltmp10-.Lfunc_begin0
	.uleb128 .Ltmp11-.Ltmp10
	.uleb128 .Ltmp19-.Lfunc_begin0
	.byte	1
	.uleb128 .Ltmp5-.Lfunc_begin0
	.uleb128 .Ltmp8-.Ltmp5
	.uleb128 .Ltmp9-.Lfunc_begin0
	.byte	0
	.uleb128 .Ltmp12-.Lfunc_begin0
	.uleb128 .Ltmp13-.Ltmp12
	.uleb128 .Ltmp14-.Lfunc_begin0
	.byte	0
	.uleb128 .Ltmp15-.Lfunc_begin0
	.uleb128 .Ltmp16-.Ltmp15
	.uleb128 .Ltmp19-.Lfunc_begin0
	.byte	1
	.uleb128 .Ltmp16-.Lfunc_begin0
	.uleb128 .Ltmp17-.Ltmp16
	.byte	0
	.byte	0
	.uleb128 .Ltmp17-.Lfunc_begin0
	.uleb128 .Ltmp18-.Ltmp17
	.uleb128 .Ltmp19-.Lfunc_begin0
	.byte	1
.Lcst_end0:
	.byte	127
	.byte	0
	.p2align	2, 0x0
.Lttbase0:
	.byte	0
	.p2align	2, 0x0

	.section	".text._ZN153_$LT$core..result..Result$LT$T$C$F$GT$$u20$as$u20$core..ops..try_trait..FromResidual$LT$core..result..Result$LT$core..convert..Infallible$C$E$GT$$GT$$GT$13from_residual17h65ca92f81b5f262eE","ax",@progbits
	.p2align	4, 0x90
	.type	_ZN153_$LT$core..result..Result$LT$T$C$F$GT$$u20$as$u20$core..ops..try_trait..FromResidual$LT$core..result..Result$LT$core..convert..Infallible$C$E$GT$$GT$$GT$13from_residual17h65ca92f81b5f262eE,@function
_ZN153_$LT$core..result..Result$LT$T$C$F$GT$$u20$as$u20$core..ops..try_trait..FromResidual$LT$core..result..Result$LT$core..convert..Infallible$C$E$GT$$GT$$GT$13from_residual17h65ca92f81b5f262eE:
	.cfi_startproc
	movq	%rdi, -16(%rsp)
	movq	-16(%rsp), %rax
	movq	%rax, -8(%rsp)
	movq	-8(%rsp), %rax
	retq
.Lfunc_end6:
	.size	_ZN153_$LT$core..result..Result$LT$T$C$F$GT$$u20$as$u20$core..ops..try_trait..FromResidual$LT$core..result..Result$LT$core..convert..Infallible$C$E$GT$$GT$$GT$13from_residual17h65ca92f81b5f262eE, .Lfunc_end6-_ZN153_$LT$core..result..Result$LT$T$C$F$GT$$u20$as$u20$core..ops..try_trait..FromResidual$LT$core..result..Result$LT$core..convert..Infallible$C$E$GT$$GT$$GT$13from_residual17h65ca92f81b5f262eE
	.cfi_endproc

	.section	".text._ZN157_$LT$$LT$alloc..vec..into_iter..IntoIter$LT$T$C$A$GT$$u20$as$u20$core..ops..drop..Drop$GT$..drop..DropGuard$LT$T$C$A$GT$$u20$as$u20$core..ops..drop..Drop$GT$4drop17h23436762289bedd7E","ax",@progbits
	.p2align	4, 0x90
	.type	_ZN157_$LT$$LT$alloc..vec..into_iter..IntoIter$LT$T$C$A$GT$$u20$as$u20$core..ops..drop..Drop$GT$..drop..DropGuard$LT$T$C$A$GT$$u20$as$u20$core..ops..drop..Drop$GT$4drop17h23436762289bedd7E,@function
_ZN157_$LT$$LT$alloc..vec..into_iter..IntoIter$LT$T$C$A$GT$$u20$as$u20$core..ops..drop..Drop$GT$..drop..DropGuard$LT$T$C$A$GT$$u20$as$u20$core..ops..drop..Drop$GT$4drop17h23436762289bedd7E:
	.cfi_startproc
	subq	$56, %rsp
	.cfi_def_cfa_offset 64
	movq	(%rdi), %rax
	movq	(%rax), %rax
	movq	%rax, (%rsp)
	movq	(%rdi), %rax
	movq	16(%rax), %rax
	movq	%rax, 8(%rsp)
	xorl	%eax, %eax
	testb	$1, %al
	jne	.LBB7_2
	movq	8(%rsp), %rax
	movq	%rax, 32(%rsp)
	jmp	.LBB7_3
.LBB7_2:
	movq	$0, 32(%rsp)
.LBB7_3:
	movq	(%rsp), %rax
	movq	%rax, 48(%rsp)
	movq	48(%rsp), %rax
	movq	%rax, 40(%rsp)
	movq	32(%rsp), %rax
	movq	40(%rsp), %rcx
	movq	%rcx, 24(%rsp)
	movq	%rax, 16(%rsp)
	leaq	16(%rsp), %rdi
	callq	_ZN4core3ptr77drop_in_place$LT$alloc..raw_vec..RawVec$LT$std..ffi..os_str..OsString$GT$$GT$17hf263c81a2b622b82E
	addq	$56, %rsp
	.cfi_def_cfa_offset 8
	retq
.Lfunc_end7:
	.size	_ZN157_$LT$$LT$alloc..vec..into_iter..IntoIter$LT$T$C$A$GT$$u20$as$u20$core..ops..drop..Drop$GT$..drop..DropGuard$LT$T$C$A$GT$$u20$as$u20$core..ops..drop..Drop$GT$4drop17h23436762289bedd7E, .Lfunc_end7-_ZN157_$LT$$LT$alloc..vec..into_iter..IntoIter$LT$T$C$A$GT$$u20$as$u20$core..ops..drop..Drop$GT$..drop..DropGuard$LT$T$C$A$GT$$u20$as$u20$core..ops..drop..Drop$GT$4drop17h23436762289bedd7E
	.cfi_endproc

	.section	".text._ZN157_$LT$$LT$alloc..vec..into_iter..IntoIter$LT$T$C$A$GT$$u20$as$u20$core..ops..drop..Drop$GT$..drop..DropGuard$LT$T$C$A$GT$$u20$as$u20$core..ops..drop..Drop$GT$4drop17h9a874ed5c68e15e7E","ax",@progbits
	.p2align	4, 0x90
	.type	_ZN157_$LT$$LT$alloc..vec..into_iter..IntoIter$LT$T$C$A$GT$$u20$as$u20$core..ops..drop..Drop$GT$..drop..DropGuard$LT$T$C$A$GT$$u20$as$u20$core..ops..drop..Drop$GT$4drop17h9a874ed5c68e15e7E,@function
_ZN157_$LT$$LT$alloc..vec..into_iter..IntoIter$LT$T$C$A$GT$$u20$as$u20$core..ops..drop..Drop$GT$..drop..DropGuard$LT$T$C$A$GT$$u20$as$u20$core..ops..drop..Drop$GT$4drop17h9a874ed5c68e15e7E:
	.cfi_startproc
	subq	$56, %rsp
	.cfi_def_cfa_offset 64
	movq	(%rdi), %rax
	movq	(%rax), %rax
	movq	%rax, (%rsp)
	movq	(%rdi), %rax
	movq	16(%rax), %rax
	movq	%rax, 8(%rsp)
	xorl	%eax, %eax
	testb	$1, %al
	jne	.LBB8_2
	movq	8(%rsp), %rax
	movq	%rax, 32(%rsp)
	jmp	.LBB8_3
.LBB8_2:
	movq	$0, 32(%rsp)
.LBB8_3:
	movq	(%rsp), %rax
	movq	%rax, 48(%rsp)
	movq	48(%rsp), %rax
	movq	%rax, 40(%rsp)
	movq	32(%rsp), %rax
	movq	40(%rsp), %rcx
	movq	%rcx, 24(%rsp)
	movq	%rax, 16(%rsp)
	leaq	16(%rsp), %rdi
	callq	_ZN4core3ptr76drop_in_place$LT$alloc..raw_vec..RawVec$LT$$RF$alloc..string..String$GT$$GT$17hdbce744b3e0be787E
	addq	$56, %rsp
	.cfi_def_cfa_offset 8
	retq
.Lfunc_end8:
	.size	_ZN157_$LT$$LT$alloc..vec..into_iter..IntoIter$LT$T$C$A$GT$$u20$as$u20$core..ops..drop..Drop$GT$..drop..DropGuard$LT$T$C$A$GT$$u20$as$u20$core..ops..drop..Drop$GT$4drop17h9a874ed5c68e15e7E, .Lfunc_end8-_ZN157_$LT$$LT$alloc..vec..into_iter..IntoIter$LT$T$C$A$GT$$u20$as$u20$core..ops..drop..Drop$GT$..drop..DropGuard$LT$T$C$A$GT$$u20$as$u20$core..ops..drop..Drop$GT$4drop17h9a874ed5c68e15e7E
	.cfi_endproc

	.section	.text._ZN3std10sys_common9backtrace28__rust_begin_short_backtrace17h6e82ec7fa63e24efE,"ax",@progbits
	.p2align	4, 0x90
	.type	_ZN3std10sys_common9backtrace28__rust_begin_short_backtrace17h6e82ec7fa63e24efE,@function
_ZN3std10sys_common9backtrace28__rust_begin_short_backtrace17h6e82ec7fa63e24efE:
	.cfi_startproc
	pushq	%rax
	.cfi_def_cfa_offset 16
	callq	_ZN4core3ops8function6FnOnce9call_once17h161bbaff7da7c2dfE
	#APP
	#NO_APP
	popq	%rcx
	.cfi_def_cfa_offset 8
	retq
.Lfunc_end9:
	.size	_ZN3std10sys_common9backtrace28__rust_begin_short_backtrace17h6e82ec7fa63e24efE, .Lfunc_end9-_ZN3std10sys_common9backtrace28__rust_begin_short_backtrace17h6e82ec7fa63e24efE
	.cfi_endproc

	.section	.text._ZN3std2fs7ReadDir17h45bb46ecebe41bbbE,"ax",@progbits
	.p2align	4, 0x90
	.type	_ZN3std2fs7ReadDir17h45bb46ecebe41bbbE,@function
_ZN3std2fs7ReadDir17h45bb46ecebe41bbbE:
	.cfi_startproc
	movb	%sil, %al
	movq	%rdi, -16(%rsp)
	andb	$1, %al
	movb	%al, -8(%rsp)
	movq	-16(%rsp), %rax
	movb	-8(%rsp), %dl
	retq
.Lfunc_end10:
	.size	_ZN3std2fs7ReadDir17h45bb46ecebe41bbbE, .Lfunc_end10-_ZN3std2fs7ReadDir17h45bb46ecebe41bbbE
	.cfi_endproc

	.section	.text._ZN3std2fs8FileType10is_symlink17hf0f563a364989644E,"ax",@progbits
	.p2align	4, 0x90
	.type	_ZN3std2fs8FileType10is_symlink17hf0f563a364989644E,@function
_ZN3std2fs8FileType10is_symlink17hf0f563a364989644E:
	.cfi_startproc
	movl	(%rdi), %eax
	andl	$61440, %eax
	cmpl	$40960, %eax
	sete	%al
	andb	$1, %al
	movzbl	%al, %eax
	retq
.Lfunc_end11:
	.size	_ZN3std2fs8FileType10is_symlink17hf0f563a364989644E, .Lfunc_end11-_ZN3std2fs8FileType10is_symlink17hf0f563a364989644E
	.cfi_endproc

	.section	.text._ZN3std2fs8FileType6is_dir17h5e8ddcafda0be701E,"ax",@progbits
	.p2align	4, 0x90
	.type	_ZN3std2fs8FileType6is_dir17h5e8ddcafda0be701E,@function
_ZN3std2fs8FileType6is_dir17h5e8ddcafda0be701E:
	.cfi_startproc
	movl	(%rdi), %eax
	andl	$61440, %eax
	cmpl	$16384, %eax
	sete	%al
	andb	$1, %al
	movzbl	%al, %eax
	retq
.Lfunc_end12:
	.size	_ZN3std2fs8FileType6is_dir17h5e8ddcafda0be701E, .Lfunc_end12-_ZN3std2fs8FileType6is_dir17h5e8ddcafda0be701E
	.cfi_endproc

	.section	.text._ZN3std2fs8Metadata9file_type17ha4c2360132193838E,"ax",@progbits
	.p2align	4, 0x90
	.type	_ZN3std2fs8Metadata9file_type17ha4c2360132193838E,@function
_ZN3std2fs8Metadata9file_type17ha4c2360132193838E:
	.cfi_startproc
	movl	56(%rdi), %eax
	movl	%eax, -4(%rsp)
	movl	-4(%rsp), %eax
	movl	%eax, -8(%rsp)
	movl	-8(%rsp), %eax
	retq
.Lfunc_end13:
	.size	_ZN3std2fs8Metadata9file_type17ha4c2360132193838E, .Lfunc_end13-_ZN3std2fs8Metadata9file_type17ha4c2360132193838E
	.cfi_endproc

	.section	.text._ZN3std2fs8read_dir17ha54d8b07416f68aeE,"ax",@progbits
	.p2align	4, 0x90
	.type	_ZN3std2fs8read_dir17ha54d8b07416f68aeE,@function
_ZN3std2fs8read_dir17ha54d8b07416f68aeE:
.Lfunc_begin1:
	.cfi_startproc
	.cfi_personality 155, DW.ref.rust_eh_personality
	.cfi_lsda 27, .Lexception1
	subq	$88, %rsp
	.cfi_def_cfa_offset 96
	movq	%rdi, 8(%rsp)
	movq	%rdi, 16(%rsp)
	movq	%rsi, 40(%rsp)
	movq	%rdx, 48(%rsp)
.Ltmp20:
	leaq	40(%rsp), %rdi
	callq	_ZN55_$LT$$RF$T$u20$as$u20$core..convert..AsRef$LT$U$GT$$GT$6as_ref17h8aa058de095d3f41E
.Ltmp21:
	movq	%rdx, 24(%rsp)
	movq	%rax, 32(%rsp)
	jmp	.LBB14_3
.LBB14_1:
	movq	72(%rsp), %rdi
	callq	_Unwind_Resume@PLT
.LBB14_2:
.Ltmp26:
	movq	%rax, %rcx
	movl	%edx, %eax
	movq	%rcx, 72(%rsp)
	movl	%eax, 80(%rsp)
	jmp	.LBB14_1
.LBB14_3:
.Ltmp22:
	movq	24(%rsp), %rdx
	movq	32(%rsp), %rsi
	movq	_ZN3std3sys3pal4unix2fs7readdir17h86b7f4da6e4ae081E@GOTPCREL(%rip), %rax
	leaq	56(%rsp), %rdi
	callq	*%rax
.Ltmp23:
	jmp	.LBB14_4
.LBB14_4:
.Ltmp24:
	movq	8(%rsp), %rdi
	leaq	56(%rsp), %rsi
	callq	_ZN4core6result19Result$LT$T$C$E$GT$3map17h69cc27577c770050E
.Ltmp25:
	jmp	.LBB14_5
.LBB14_5:
	movq	16(%rsp), %rax
	addq	$88, %rsp
	.cfi_def_cfa_offset 8
	retq
.Lfunc_end14:
	.size	_ZN3std2fs8read_dir17ha54d8b07416f68aeE, .Lfunc_end14-_ZN3std2fs8read_dir17ha54d8b07416f68aeE
	.cfi_endproc
	.section	.gcc_except_table._ZN3std2fs8read_dir17ha54d8b07416f68aeE,"a",@progbits
	.p2align	2, 0x0
GCC_except_table14:
.Lexception1:
	.byte	255
	.byte	255
	.byte	1
	.uleb128 .Lcst_end1-.Lcst_begin1
.Lcst_begin1:
	.uleb128 .Ltmp20-.Lfunc_begin1
	.uleb128 .Ltmp21-.Ltmp20
	.uleb128 .Ltmp26-.Lfunc_begin1
	.byte	0
	.uleb128 .Ltmp21-.Lfunc_begin1
	.uleb128 .Ltmp22-.Ltmp21
	.byte	0
	.byte	0
	.uleb128 .Ltmp22-.Lfunc_begin1
	.uleb128 .Ltmp25-.Ltmp22
	.uleb128 .Ltmp26-.Lfunc_begin1
	.byte	0
.Lcst_end1:
	.p2align	2, 0x0

	.section	.text._ZN3std2io5error14repr_bitpacked11decode_repr17hcf4c5bb97e8b607eE,"ax",@progbits
	.p2align	4, 0x90
	.type	_ZN3std2io5error14repr_bitpacked11decode_repr17hcf4c5bb97e8b607eE,@function
_ZN3std2io5error14repr_bitpacked11decode_repr17hcf4c5bb97e8b607eE:
.Lfunc_begin2:
	.cfi_startproc
	.cfi_personality 155, DW.ref.rust_eh_personality
	.cfi_lsda 27, .Lexception2
	subq	$136, %rsp
	.cfi_def_cfa_offset 144
	movq	%rsi, 24(%rsp)
	movq	%rdi, 32(%rsp)
	movq	%rdi, 40(%rsp)
	movb	$1, 95(%rsp)
	movq	%rsi, 56(%rsp)
	movq	56(%rsp), %rax
	andl	$3, %eax
	movq	%rax, 48(%rsp)
	subq	$3, %rax
	ja	.LBB15_1
	movq	48(%rsp), %rax
	leaq	.LJTI15_0(%rip), %rcx
	movslq	(%rcx,%rax,4), %rax
	addq	%rcx, %rax
	jmpq	*%rax
.LBB15_1:
.Ltmp31:
	leaq	.L__unnamed_3(%rip), %rdi
	leaq	.L__unnamed_4(%rip), %rdx
	movq	_ZN4core9panicking5panic17h90e84101c01877efE@GOTPCREL(%rip), %rax
	movl	$40, %esi
	callq	*%rax
.Ltmp32:
	jmp	.LBB15_13
.LBB15_2:
	movq	32(%rsp), %rax
	movq	56(%rsp), %rcx
	sarq	$32, %rcx
	movl	%ecx, 4(%rax)
	movb	$0, (%rax)
	jmp	.LBB15_6
.LBB15_3:
	movl	60(%rsp), %edi
.Ltmp29:
	callq	_ZN3std2io5error14repr_bitpacked14kind_from_prim17h6a6252451959207bE
.Ltmp30:
	movb	%al, 23(%rsp)
	jmp	.LBB15_9
.LBB15_4:
	movq	32(%rsp), %rax
	movq	24(%rsp), %rcx
	movq	%rcx, 72(%rsp)
	movq	%rcx, 8(%rax)
	movb	$2, (%rax)
	jmp	.LBB15_6
.LBB15_5:
	movq	24(%rsp), %rax
	decq	%rax
	movq	%rax, 128(%rsp)
	movq	128(%rsp), %rax
	movq	%rax, 104(%rsp)
	movq	104(%rsp), %rax
	movq	%rax, 96(%rsp)
	movq	96(%rsp), %rax
	movb	$0, 95(%rsp)
	movq	%rax, 80(%rsp)
	movq	80(%rsp), %rdi
.Ltmp27:
	callq	_ZN78_$LT$std..io..error..repr_bitpacked..Repr$u20$as$u20$core..ops..drop..Drop$GT$4drop28_$u7b$$u7b$closure$u7d$$u7d$17hbdbcc8693f7f82a7E
.Ltmp28:
	movq	%rax, 8(%rsp)
	jmp	.LBB15_10
.LBB15_6:
	testb	$1, 95(%rsp)
	jne	.LBB15_12
	jmp	.LBB15_11
.LBB15_7:
	testb	$1, 95(%rsp)
	jne	.LBB15_15
	jmp	.LBB15_14
.LBB15_8:
.Ltmp33:
	movq	%rax, %rcx
	movl	%edx, %eax
	movq	%rcx, 112(%rsp)
	movl	%eax, 120(%rsp)
	jmp	.LBB15_7
.LBB15_9:
	movq	32(%rsp), %rax
	movb	23(%rsp), %cl
	movb	%cl, 71(%rsp)
	movb	71(%rsp), %cl
	movb	%cl, 1(%rax)
	movb	$1, (%rax)
	jmp	.LBB15_6
.LBB15_10:
	movq	32(%rsp), %rax
	movq	8(%rsp), %rcx
	movq	%rcx, 8(%rax)
	movb	$3, (%rax)
	jmp	.LBB15_6
.LBB15_11:
	movq	40(%rsp), %rax
	addq	$136, %rsp
	.cfi_def_cfa_offset 8
	retq
.LBB15_12:
	.cfi_def_cfa_offset 144
	jmp	.LBB15_11
.LBB15_13:
	ud2
.LBB15_14:
	movq	112(%rsp), %rdi
	callq	_Unwind_Resume@PLT
.LBB15_15:
	jmp	.LBB15_14
.Lfunc_end15:
	.size	_ZN3std2io5error14repr_bitpacked11decode_repr17hcf4c5bb97e8b607eE, .Lfunc_end15-_ZN3std2io5error14repr_bitpacked11decode_repr17hcf4c5bb97e8b607eE
	.cfi_endproc
	.section	.rodata._ZN3std2io5error14repr_bitpacked11decode_repr17hcf4c5bb97e8b607eE,"a",@progbits
	.p2align	2, 0x0
.LJTI15_0:
	.long	.LBB15_4-.LJTI15_0
	.long	.LBB15_5-.LJTI15_0
	.long	.LBB15_2-.LJTI15_0
	.long	.LBB15_3-.LJTI15_0
	.section	.gcc_except_table._ZN3std2io5error14repr_bitpacked11decode_repr17hcf4c5bb97e8b607eE,"a",@progbits
	.p2align	2, 0x0
GCC_except_table15:
.Lexception2:
	.byte	255
	.byte	255
	.byte	1
	.uleb128 .Lcst_end2-.Lcst_begin2
.Lcst_begin2:
	.uleb128 .Ltmp31-.Lfunc_begin2
	.uleb128 .Ltmp28-.Ltmp31
	.uleb128 .Ltmp33-.Lfunc_begin2
	.byte	0
	.uleb128 .Ltmp28-.Lfunc_begin2
	.uleb128 .Lfunc_end15-.Ltmp28
	.byte	0
	.byte	0
.Lcst_end2:
	.p2align	2, 0x0

	.section	.text._ZN3std2io5error14repr_bitpacked14kind_from_prim17h6a6252451959207bE,"ax",@progbits
	.p2align	4, 0x90
	.type	_ZN3std2io5error14repr_bitpacked14kind_from_prim17h6a6252451959207bE,@function
_ZN3std2io5error14repr_bitpacked14kind_from_prim17h6a6252451959207bE:
	.cfi_startproc
	movl	%edi, -8(%rsp)
	cmpl	$0, -8(%rsp)
	jne	.LBB16_2
	movb	$0, -1(%rsp)
	jmp	.LBB16_3
.LBB16_2:
	cmpl	$1, -8(%rsp)
	je	.LBB16_4
	jmp	.LBB16_5
.LBB16_3:
	movb	-1(%rsp), %al
	retq
.LBB16_4:
	movb	$1, -1(%rsp)
	jmp	.LBB16_3
.LBB16_5:
	cmpl	$2, -8(%rsp)
	jne	.LBB16_7
	movb	$2, -1(%rsp)
	jmp	.LBB16_3
.LBB16_7:
	cmpl	$3, -8(%rsp)
	jne	.LBB16_9
	movb	$3, -1(%rsp)
	jmp	.LBB16_3
.LBB16_9:
	cmpl	$4, -8(%rsp)
	jne	.LBB16_11
	movb	$4, -1(%rsp)
	jmp	.LBB16_3
.LBB16_11:
	cmpl	$5, -8(%rsp)
	jne	.LBB16_13
	movb	$5, -1(%rsp)
	jmp	.LBB16_3
.LBB16_13:
	cmpl	$6, -8(%rsp)
	jne	.LBB16_15
	movb	$6, -1(%rsp)
	jmp	.LBB16_3
.LBB16_15:
	cmpl	$7, -8(%rsp)
	jne	.LBB16_17
	movb	$7, -1(%rsp)
	jmp	.LBB16_3
.LBB16_17:
	cmpl	$8, -8(%rsp)
	jne	.LBB16_19
	movb	$8, -1(%rsp)
	jmp	.LBB16_3
.LBB16_19:
	cmpl	$9, -8(%rsp)
	jne	.LBB16_21
	movb	$9, -1(%rsp)
	jmp	.LBB16_3
.LBB16_21:
	cmpl	$10, -8(%rsp)
	jne	.LBB16_23
	movb	$10, -1(%rsp)
	jmp	.LBB16_3
.LBB16_23:
	cmpl	$11, -8(%rsp)
	jne	.LBB16_25
	movb	$11, -1(%rsp)
	jmp	.LBB16_3
.LBB16_25:
	cmpl	$12, -8(%rsp)
	jne	.LBB16_27
	movb	$12, -1(%rsp)
	jmp	.LBB16_3
.LBB16_27:
	cmpl	$13, -8(%rsp)
	jne	.LBB16_29
	movb	$13, -1(%rsp)
	jmp	.LBB16_3
.LBB16_29:
	cmpl	$14, -8(%rsp)
	jne	.LBB16_31
	movb	$14, -1(%rsp)
	jmp	.LBB16_3
.LBB16_31:
	cmpl	$15, -8(%rsp)
	jne	.LBB16_33
	movb	$15, -1(%rsp)
	jmp	.LBB16_3
.LBB16_33:
	cmpl	$16, -8(%rsp)
	jne	.LBB16_35
	movb	$16, -1(%rsp)
	jmp	.LBB16_3
.LBB16_35:
	cmpl	$17, -8(%rsp)
	jne	.LBB16_37
	movb	$17, -1(%rsp)
	jmp	.LBB16_3
.LBB16_37:
	cmpl	$18, -8(%rsp)
	jne	.LBB16_39
	movb	$18, -1(%rsp)
	jmp	.LBB16_3
.LBB16_39:
	cmpl	$19, -8(%rsp)
	jne	.LBB16_41
	movb	$19, -1(%rsp)
	jmp	.LBB16_3
.LBB16_41:
	cmpl	$20, -8(%rsp)
	jne	.LBB16_43
	movb	$20, -1(%rsp)
	jmp	.LBB16_3
.LBB16_43:
	cmpl	$21, -8(%rsp)
	jne	.LBB16_45
	movb	$21, -1(%rsp)
	jmp	.LBB16_3
.LBB16_45:
	cmpl	$22, -8(%rsp)
	jne	.LBB16_47
	movb	$22, -1(%rsp)
	jmp	.LBB16_3
.LBB16_47:
	cmpl	$23, -8(%rsp)
	jne	.LBB16_49
	movb	$23, -1(%rsp)
	jmp	.LBB16_3
.LBB16_49:
	cmpl	$24, -8(%rsp)
	jne	.LBB16_51
	movb	$24, -1(%rsp)
	jmp	.LBB16_3
.LBB16_51:
	cmpl	$25, -8(%rsp)
	jne	.LBB16_53
	movb	$25, -1(%rsp)
	jmp	.LBB16_3
.LBB16_53:
	cmpl	$26, -8(%rsp)
	jne	.LBB16_55
	movb	$26, -1(%rsp)
	jmp	.LBB16_3
.LBB16_55:
	cmpl	$27, -8(%rsp)
	jne	.LBB16_57
	movb	$27, -1(%rsp)
	jmp	.LBB16_3
.LBB16_57:
	cmpl	$28, -8(%rsp)
	jne	.LBB16_59
	movb	$28, -1(%rsp)
	jmp	.LBB16_3
.LBB16_59:
	cmpl	$29, -8(%rsp)
	jne	.LBB16_61
	movb	$29, -1(%rsp)
	jmp	.LBB16_3
.LBB16_61:
	cmpl	$30, -8(%rsp)
	jne	.LBB16_63
	movb	$30, -1(%rsp)
	jmp	.LBB16_3
.LBB16_63:
	cmpl	$31, -8(%rsp)
	jne	.LBB16_65
	movb	$31, -1(%rsp)
	jmp	.LBB16_3
.LBB16_65:
	cmpl	$32, -8(%rsp)
	jne	.LBB16_67
	movb	$32, -1(%rsp)
	jmp	.LBB16_3
.LBB16_67:
	cmpl	$33, -8(%rsp)
	jne	.LBB16_69
	movb	$33, -1(%rsp)
	jmp	.LBB16_3
.LBB16_69:
	cmpl	$34, -8(%rsp)
	jne	.LBB16_71
	movb	$34, -1(%rsp)
	jmp	.LBB16_3
.LBB16_71:
	cmpl	$35, -8(%rsp)
	jne	.LBB16_73
	movb	$35, -1(%rsp)
	jmp	.LBB16_3
.LBB16_73:
	cmpl	$39, -8(%rsp)
	jne	.LBB16_75
	movb	$39, -1(%rsp)
	jmp	.LBB16_3
.LBB16_75:
	cmpl	$37, -8(%rsp)
	jne	.LBB16_77
	movb	$37, -1(%rsp)
	jmp	.LBB16_3
.LBB16_77:
	cmpl	$36, -8(%rsp)
	jne	.LBB16_79
	movb	$36, -1(%rsp)
	jmp	.LBB16_3
.LBB16_79:
	cmpl	$38, -8(%rsp)
	jne	.LBB16_81
	movb	$38, -1(%rsp)
	jmp	.LBB16_3
.LBB16_81:
	cmpl	$40, -8(%rsp)
	jne	.LBB16_83
	movb	$40, -1(%rsp)
	jmp	.LBB16_3
.LBB16_83:
	movb	$41, -1(%rsp)
	jmp	.LBB16_3
.Lfunc_end16:
	.size	_ZN3std2io5error14repr_bitpacked14kind_from_prim17h6a6252451959207bE, .Lfunc_end16-_ZN3std2io5error14repr_bitpacked14kind_from_prim17h6a6252451959207bE
	.cfi_endproc

	.section	.text._ZN3std2rt10lang_start17h03bf1326ed387a58E,"ax",@progbits
	.hidden	_ZN3std2rt10lang_start17h03bf1326ed387a58E
	.globl	_ZN3std2rt10lang_start17h03bf1326ed387a58E
	.p2align	4, 0x90
	.type	_ZN3std2rt10lang_start17h03bf1326ed387a58E,@function
_ZN3std2rt10lang_start17h03bf1326ed387a58E:
	.cfi_startproc
	subq	$24, %rsp
	.cfi_def_cfa_offset 32
	movl	%ecx, %eax
	movq	%rdx, %rcx
	movq	%rsi, %rdx
	movq	%rdi, 16(%rsp)
	leaq	16(%rsp), %rdi
	leaq	.L__unnamed_5(%rip), %rsi
	movzbl	%al, %r8d
	callq	*_ZN3std2rt19lang_start_internal17hdaf8b62dc8f7de54E@GOTPCREL(%rip)
	movq	%rax, 8(%rsp)
	movq	8(%rsp), %rax
	addq	$24, %rsp
	.cfi_def_cfa_offset 8
	retq
.Lfunc_end17:
	.size	_ZN3std2rt10lang_start17h03bf1326ed387a58E, .Lfunc_end17-_ZN3std2rt10lang_start17h03bf1326ed387a58E
	.cfi_endproc

	.section	".text._ZN3std2rt10lang_start28_$u7b$$u7b$closure$u7d$$u7d$17h3eba39e20883ec79E","ax",@progbits
	.p2align	4, 0x90
	.type	_ZN3std2rt10lang_start28_$u7b$$u7b$closure$u7d$$u7d$17h3eba39e20883ec79E,@function
_ZN3std2rt10lang_start28_$u7b$$u7b$closure$u7d$$u7d$17h3eba39e20883ec79E:
	.cfi_startproc
	pushq	%rax
	.cfi_def_cfa_offset 16
	movq	(%rdi), %rdi
	callq	_ZN3std10sys_common9backtrace28__rust_begin_short_backtrace17h6e82ec7fa63e24efE
	movq	%rax, %rdi
	callq	_ZN79_$LT$core..result..Result$LT$T$C$E$GT$$u20$as$u20$std..process..Termination$GT$6report17h7b8ecc069d7ee2adE
	movb	%al, 7(%rsp)
	movzbl	7(%rsp), %eax
	popq	%rcx
	.cfi_def_cfa_offset 8
	retq
.Lfunc_end18:
	.size	_ZN3std2rt10lang_start28_$u7b$$u7b$closure$u7d$$u7d$17h3eba39e20883ec79E, .Lfunc_end18-_ZN3std2rt10lang_start28_$u7b$$u7b$closure$u7d$$u7d$17h3eba39e20883ec79E
	.cfi_endproc

	.section	.text._ZN3std3ffi6os_str5OsStr15to_string_lossy17hd15181ab92a53af0E,"ax",@progbits
	.p2align	4, 0x90
	.type	_ZN3std3ffi6os_str5OsStr15to_string_lossy17hd15181ab92a53af0E,@function
_ZN3std3ffi6os_str5OsStr15to_string_lossy17hd15181ab92a53af0E:
	.cfi_startproc
	pushq	%rax
	.cfi_def_cfa_offset 16
	movq	%rdi, %rax
	movq	%rax, (%rsp)
	callq	*_ZN3std3sys6os_str5bytes5Slice15to_string_lossy17h82c18ef499c748cdE@GOTPCREL(%rip)
	movq	(%rsp), %rax
	popq	%rcx
	.cfi_def_cfa_offset 8
	retq
.Lfunc_end19:
	.size	_ZN3std3ffi6os_str5OsStr15to_string_lossy17hd15181ab92a53af0E, .Lfunc_end19-_ZN3std3ffi6os_str5OsStr15to_string_lossy17hd15181ab92a53af0E
	.cfi_endproc

	.section	.text._ZN3std4path4Path15to_string_lossy17hf17daf3965c8032dE,"ax",@progbits
	.p2align	4, 0x90
	.type	_ZN3std4path4Path15to_string_lossy17hf17daf3965c8032dE,@function
_ZN3std4path4Path15to_string_lossy17hf17daf3965c8032dE:
	.cfi_startproc
	pushq	%rax
	.cfi_def_cfa_offset 16
	movq	%rdi, %rax
	movq	%rax, (%rsp)
	callq	*_ZN3std3sys6os_str5bytes5Slice15to_string_lossy17h82c18ef499c748cdE@GOTPCREL(%rip)
	movq	(%rsp), %rax
	popq	%rcx
	.cfi_def_cfa_offset 8
	retq
.Lfunc_end20:
	.size	_ZN3std4path4Path15to_string_lossy17hf17daf3965c8032dE, .Lfunc_end20-_ZN3std4path4Path15to_string_lossy17hf17daf3965c8032dE
	.cfi_endproc

	.section	".text._ZN3std4path77_$LT$impl$u20$core..convert..AsRef$LT$std..path..Path$GT$$u20$for$u20$str$GT$6as_ref17he6c9218ba984019fE","ax",@progbits
	.p2align	4, 0x90
	.type	_ZN3std4path77_$LT$impl$u20$core..convert..AsRef$LT$std..path..Path$GT$$u20$for$u20$str$GT$6as_ref17he6c9218ba984019fE,@function
_ZN3std4path77_$LT$impl$u20$core..convert..AsRef$LT$std..path..Path$GT$$u20$for$u20$str$GT$6as_ref17he6c9218ba984019fE:
	.cfi_startproc
	movq	%rsi, %rdx
	movq	%rdi, %rax
	retq
.Lfunc_end21:
	.size	_ZN3std4path77_$LT$impl$u20$core..convert..AsRef$LT$std..path..Path$GT$$u20$for$u20$str$GT$6as_ref17he6c9218ba984019fE, .Lfunc_end21-_ZN3std4path77_$LT$impl$u20$core..convert..AsRef$LT$std..path..Path$GT$$u20$for$u20$str$GT$6as_ref17he6c9218ba984019fE
	.cfi_endproc

	.section	".text._ZN42_$LT$$RF$T$u20$as$u20$core..fmt..Debug$GT$3fmt17h61a99038dd74318fE","ax",@progbits
	.p2align	4, 0x90
	.type	_ZN42_$LT$$RF$T$u20$as$u20$core..fmt..Debug$GT$3fmt17h61a99038dd74318fE,@function
_ZN42_$LT$$RF$T$u20$as$u20$core..fmt..Debug$GT$3fmt17h61a99038dd74318fE:
	.cfi_startproc
	pushq	%rax
	.cfi_def_cfa_offset 16
	movq	(%rdi), %rdi
	callq	_ZN4core3fmt3num52_$LT$impl$u20$core..fmt..Debug$u20$for$u20$usize$GT$3fmt17h982e827b8a7b0f6bE
	andb	$1, %al
	movzbl	%al, %eax
	popq	%rcx
	.cfi_def_cfa_offset 8
	retq
.Lfunc_end22:
	.size	_ZN42_$LT$$RF$T$u20$as$u20$core..fmt..Debug$GT$3fmt17h61a99038dd74318fE, .Lfunc_end22-_ZN42_$LT$$RF$T$u20$as$u20$core..fmt..Debug$GT$3fmt17h61a99038dd74318fE
	.cfi_endproc

	.section	".text._ZN42_$LT$$RF$T$u20$as$u20$core..fmt..Debug$GT$3fmt17he93cc078f3867be4E","ax",@progbits
	.p2align	4, 0x90
	.type	_ZN42_$LT$$RF$T$u20$as$u20$core..fmt..Debug$GT$3fmt17he93cc078f3867be4E,@function
_ZN42_$LT$$RF$T$u20$as$u20$core..fmt..Debug$GT$3fmt17he93cc078f3867be4E:
	.cfi_startproc
	pushq	%rax
	.cfi_def_cfa_offset 16
	movq	(%rdi), %rdi
	callq	_ZN66_$LT$core..option..Option$LT$T$GT$$u20$as$u20$core..fmt..Debug$GT$3fmt17h904816f1ea3774a0E
	andb	$1, %al
	movzbl	%al, %eax
	popq	%rcx
	.cfi_def_cfa_offset 8
	retq
.Lfunc_end23:
	.size	_ZN42_$LT$$RF$T$u20$as$u20$core..fmt..Debug$GT$3fmt17he93cc078f3867be4E, .Lfunc_end23-_ZN42_$LT$$RF$T$u20$as$u20$core..fmt..Debug$GT$3fmt17he93cc078f3867be4E
	.cfi_endproc

	.section	".text._ZN48_$LT$$RF$A$u20$as$u20$core..alloc..Allocator$GT$10deallocate17h4f853cf612aa99afE","ax",@progbits
	.p2align	4, 0x90
	.type	_ZN48_$LT$$RF$A$u20$as$u20$core..alloc..Allocator$GT$10deallocate17h4f853cf612aa99afE,@function
_ZN48_$LT$$RF$A$u20$as$u20$core..alloc..Allocator$GT$10deallocate17h4f853cf612aa99afE:
	.cfi_startproc
	pushq	%rax
	.cfi_def_cfa_offset 16
	movq	(%rdi), %rdi
	callq	_ZN63_$LT$alloc..alloc..Global$u20$as$u20$core..alloc..Allocator$GT$10deallocate17hc598934e69f3c12eE
	popq	%rax
	.cfi_def_cfa_offset 8
	retq
.Lfunc_end24:
	.size	_ZN48_$LT$$RF$A$u20$as$u20$core..alloc..Allocator$GT$10deallocate17h4f853cf612aa99afE, .Lfunc_end24-_ZN48_$LT$$RF$A$u20$as$u20$core..alloc..Allocator$GT$10deallocate17h4f853cf612aa99afE
	.cfi_endproc

	.section	".text._ZN4core3cmp5impls50_$LT$impl$u20$core..cmp..Ord$u20$for$u20$usize$GT$3cmp17h080a8fd3da9f9d10E","ax",@progbits
	.p2align	4, 0x90
	.type	_ZN4core3cmp5impls50_$LT$impl$u20$core..cmp..Ord$u20$for$u20$usize$GT$3cmp17h080a8fd3da9f9d10E,@function
_ZN4core3cmp5impls50_$LT$impl$u20$core..cmp..Ord$u20$for$u20$usize$GT$3cmp17h080a8fd3da9f9d10E:
	.cfi_startproc
	movq	(%rdi), %rax
	movq	%rax, -24(%rsp)
	movq	(%rsi), %rcx
	movq	%rcx, -16(%rsp)
	cmpq	%rcx, %rax
	jb	.LBB25_2
	movq	-24(%rsp), %rax
	movq	-16(%rsp), %rcx
	cmpq	%rcx, %rax
	je	.LBB25_4
	jmp	.LBB25_3
.LBB25_2:
	movb	$-1, -1(%rsp)
	jmp	.LBB25_6
.LBB25_3:
	movb	$1, -1(%rsp)
	jmp	.LBB25_5
.LBB25_4:
	movb	$0, -1(%rsp)
.LBB25_5:
	jmp	.LBB25_6
.LBB25_6:
	movb	-1(%rsp), %al
	retq
.Lfunc_end25:
	.size	_ZN4core3cmp5impls50_$LT$impl$u20$core..cmp..Ord$u20$for$u20$usize$GT$3cmp17h080a8fd3da9f9d10E, .Lfunc_end25-_ZN4core3cmp5impls50_$LT$impl$u20$core..cmp..Ord$u20$for$u20$usize$GT$3cmp17h080a8fd3da9f9d10E
	.cfi_endproc

	.section	.text._ZN4core3cmp6max_by17hb93fa388b2ad5bbeE,"ax",@progbits
	.p2align	4, 0x90
	.type	_ZN4core3cmp6max_by17hb93fa388b2ad5bbeE,@function
_ZN4core3cmp6max_by17hb93fa388b2ad5bbeE:
.Lfunc_begin3:
	.cfi_startproc
	.cfi_personality 155, DW.ref.rust_eh_personality
	.cfi_lsda 27, .Lexception3
	subq	$88, %rsp
	.cfi_def_cfa_offset 96
	movq	%rdi, 16(%rsp)
	movq	%rsi, 24(%rsp)
	movb	$1, 71(%rsp)
	movb	$1, 70(%rsp)
	leaq	16(%rsp), %rax
	movq	%rax, 48(%rsp)
	leaq	24(%rsp), %rax
	movq	%rax, 56(%rsp)
	movq	48(%rsp), %rdi
	movq	56(%rsp), %rsi
.Ltmp34:
	callq	_ZN4core3ops8function6FnOnce9call_once17he4ddb8f5c96e317eE
.Ltmp35:
	movb	%al, 15(%rsp)
	jmp	.LBB26_3
.LBB26_1:
	jmp	.LBB26_12
.LBB26_2:
.Ltmp36:
	movq	%rax, %rcx
	movl	%edx, %eax
	movq	%rcx, 72(%rsp)
	movl	%eax, 80(%rsp)
	jmp	.LBB26_1
.LBB26_3:
	movb	15(%rsp), %al
	movb	%al, 47(%rsp)
	movb	47(%rsp), %al
	incb	%al
	subb	$2, %al
	jb	.LBB26_5
	jmp	.LBB26_15
.LBB26_15:
	jmp	.LBB26_6
	.cfi_def_cfa_offset 8
	ud2
.LBB26_5:
	.cfi_def_cfa_offset 96
	movb	$0, 70(%rsp)
	movq	24(%rsp), %rax
	movq	%rax, 32(%rsp)
	jmp	.LBB26_7
.LBB26_6:
	movb	$0, 71(%rsp)
	movq	16(%rsp), %rax
	movq	%rax, 32(%rsp)
.LBB26_7:
	testb	$1, 70(%rsp)
	jne	.LBB26_9
.LBB26_8:
	testb	$1, 71(%rsp)
	jne	.LBB26_11
	jmp	.LBB26_10
.LBB26_9:
	jmp	.LBB26_8
.LBB26_10:
	movq	32(%rsp), %rax
	addq	$88, %rsp
	.cfi_def_cfa_offset 8
	retq
.LBB26_11:
	.cfi_def_cfa_offset 96
	jmp	.LBB26_10
.LBB26_12:
	testb	$1, 71(%rsp)
	jne	.LBB26_14
.LBB26_13:
	movq	72(%rsp), %rdi
	callq	_Unwind_Resume@PLT
.LBB26_14:
	jmp	.LBB26_13
.Lfunc_end26:
	.size	_ZN4core3cmp6max_by17hb93fa388b2ad5bbeE, .Lfunc_end26-_ZN4core3cmp6max_by17hb93fa388b2ad5bbeE
	.cfi_endproc
	.section	.gcc_except_table._ZN4core3cmp6max_by17hb93fa388b2ad5bbeE,"a",@progbits
	.p2align	2, 0x0
GCC_except_table26:
.Lexception3:
	.byte	255
	.byte	255
	.byte	1
	.uleb128 .Lcst_end3-.Lcst_begin3
.Lcst_begin3:
	.uleb128 .Ltmp34-.Lfunc_begin3
	.uleb128 .Ltmp35-.Ltmp34
	.uleb128 .Ltmp36-.Lfunc_begin3
	.byte	0
	.uleb128 .Ltmp35-.Lfunc_begin3
	.uleb128 .Lfunc_end26-.Ltmp35
	.byte	0
	.byte	0
.Lcst_end3:
	.p2align	2, 0x0

	.section	".text._ZN4core3fmt3num52_$LT$impl$u20$core..fmt..Debug$u20$for$u20$usize$GT$3fmt17h982e827b8a7b0f6bE","ax",@progbits
	.p2align	4, 0x90
	.type	_ZN4core3fmt3num52_$LT$impl$u20$core..fmt..Debug$u20$for$u20$usize$GT$3fmt17h982e827b8a7b0f6bE,@function
_ZN4core3fmt3num52_$LT$impl$u20$core..fmt..Debug$u20$for$u20$usize$GT$3fmt17h982e827b8a7b0f6bE:
	.cfi_startproc
	subq	$24, %rsp
	.cfi_def_cfa_offset 32
	movq	%rdi, (%rsp)
	movq	%rsi, 8(%rsp)
	movl	52(%rsi), %eax
	andl	$16, %eax
	cmpl	$0, %eax
	jne	.LBB27_2
	movq	8(%rsp), %rax
	movl	52(%rax), %eax
	andl	$32, %eax
	cmpl	$0, %eax
	je	.LBB27_3
	jmp	.LBB27_4
.LBB27_2:
	movq	8(%rsp), %rsi
	movq	(%rsp), %rdi
	callq	*_ZN4core3fmt3num55_$LT$impl$u20$core..fmt..LowerHex$u20$for$u20$usize$GT$3fmt17h56c519c4637bcd89E@GOTPCREL(%rip)
	andb	$1, %al
	movb	%al, 23(%rsp)
	jmp	.LBB27_6
.LBB27_3:
	movq	8(%rsp), %rsi
	movq	(%rsp), %rdi
	callq	*_ZN4core3fmt3num3imp54_$LT$impl$u20$core..fmt..Display$u20$for$u20$usize$GT$3fmt17he756d3674ca19dc2E@GOTPCREL(%rip)
	andb	$1, %al
	movb	%al, 23(%rsp)
	jmp	.LBB27_5
.LBB27_4:
	movq	8(%rsp), %rsi
	movq	(%rsp), %rdi
	callq	*_ZN4core3fmt3num55_$LT$impl$u20$core..fmt..UpperHex$u20$for$u20$usize$GT$3fmt17h4907d9e86356b691E@GOTPCREL(%rip)
	andb	$1, %al
	movb	%al, 23(%rsp)
.LBB27_5:
	jmp	.LBB27_6
.LBB27_6:
	movb	23(%rsp), %al
	andb	$1, %al
	movzbl	%al, %eax
	addq	$24, %rsp
	.cfi_def_cfa_offset 8
	retq
.Lfunc_end27:
	.size	_ZN4core3fmt3num52_$LT$impl$u20$core..fmt..Debug$u20$for$u20$usize$GT$3fmt17h982e827b8a7b0f6bE, .Lfunc_end27-_ZN4core3fmt3num52_$LT$impl$u20$core..fmt..Debug$u20$for$u20$usize$GT$3fmt17h982e827b8a7b0f6bE
	.cfi_endproc

	.section	.text._ZN4core3fmt9Arguments6new_v117h3c2740b9046a8f1dE,"ax",@progbits
	.p2align	4, 0x90
	.type	_ZN4core3fmt9Arguments6new_v117h3c2740b9046a8f1dE,@function
_ZN4core3fmt9Arguments6new_v117h3c2740b9046a8f1dE:
	.cfi_startproc
	subq	$152, %rsp
	.cfi_def_cfa_offset 160
	movq	%r8, 8(%rsp)
	movq	%rcx, 16(%rsp)
	movq	%rdx, 24(%rsp)
	movq	%rsi, 32(%rsp)
	movq	%rdi, 40(%rsp)
	movq	%rdi, 48(%rsp)
	cmpq	%r8, %rdx
	jb	.LBB28_2
	movq	24(%rsp), %rax
	movq	8(%rsp), %rcx
	addq	$1, %rcx
	cmpq	%rcx, %rax
	jbe	.LBB28_3
.LBB28_2:
	xorl	%eax, %eax
	testb	$1, %al
	jne	.LBB28_5
	jmp	.LBB28_4
.LBB28_3:
	movq	48(%rsp), %rax
	movq	40(%rsp), %rcx
	movq	8(%rsp), %rdx
	movq	16(%rsp), %rsi
	movq	24(%rsp), %rdi
	movq	32(%rsp), %r8
	movq	%r8, (%rcx)
	movq	%rdi, 8(%rcx)
	movq	.L__unnamed_6(%rip), %r8
	movq	.L__unnamed_6+8(%rip), %rdi
	movq	%r8, 32(%rcx)
	movq	%rdi, 40(%rcx)
	movq	%rsi, 16(%rcx)
	movq	%rdx, 24(%rcx)
	addq	$152, %rsp
	.cfi_def_cfa_offset 8
	retq
.LBB28_4:
	.cfi_def_cfa_offset 160
	leaq	.L__unnamed_7(%rip), %rax
	movq	%rax, 56(%rsp)
	movq	$1, 64(%rsp)
	movq	.L__unnamed_6(%rip), %rcx
	movq	.L__unnamed_6+8(%rip), %rax
	movq	%rcx, 88(%rsp)
	movq	%rax, 96(%rsp)
	leaq	.L__unnamed_8(%rip), %rax
	movq	%rax, 72(%rsp)
	movq	$0, 80(%rsp)
	leaq	.L__unnamed_9(%rip), %rsi
	movq	_ZN4core9panicking9panic_fmt17hc69c4d258fe11477E@GOTPCREL(%rip), %rax
	leaq	56(%rsp), %rdi
	callq	*%rax
.LBB28_5:
	leaq	.L__unnamed_7(%rip), %rsi
	leaq	104(%rsp), %rdi
	movq	%rdi, (%rsp)
	movl	$1, %edx
	callq	_ZN4core3fmt9Arguments9new_const17he6f8f63bfe90a978E
	movq	(%rsp), %rdi
	leaq	.L__unnamed_10(%rip), %rsi
	movq	_ZN4core9panicking9panic_fmt17hc69c4d258fe11477E@GOTPCREL(%rip), %rax
	callq	*%rax
.Lfunc_end28:
	.size	_ZN4core3fmt9Arguments6new_v117h3c2740b9046a8f1dE, .Lfunc_end28-_ZN4core3fmt9Arguments6new_v117h3c2740b9046a8f1dE
	.cfi_endproc

	.section	.text._ZN4core3fmt9Arguments9new_const17he6f8f63bfe90a978E,"ax",@progbits
	.p2align	4, 0x90
	.type	_ZN4core3fmt9Arguments9new_const17he6f8f63bfe90a978E,@function
_ZN4core3fmt9Arguments9new_const17he6f8f63bfe90a978E:
	.cfi_startproc
	subq	$88, %rsp
	.cfi_def_cfa_offset 96
	movq	%rdx, 8(%rsp)
	movq	%rsi, 16(%rsp)
	movq	%rdi, 24(%rsp)
	movq	%rdi, 32(%rsp)
	cmpq	$1, %rdx
	ja	.LBB29_2
	movq	32(%rsp), %rax
	movq	24(%rsp), %rcx
	movq	8(%rsp), %rdx
	movq	16(%rsp), %rsi
	movq	%rsi, (%rcx)
	movq	%rdx, 8(%rcx)
	movq	.L__unnamed_6(%rip), %rsi
	movq	.L__unnamed_6+8(%rip), %rdx
	movq	%rsi, 32(%rcx)
	movq	%rdx, 40(%rcx)
	leaq	.L__unnamed_8(%rip), %rdx
	movq	%rdx, 16(%rcx)
	movq	$0, 24(%rcx)
	addq	$88, %rsp
	.cfi_def_cfa_offset 8
	retq
.LBB29_2:
	.cfi_def_cfa_offset 96
	leaq	.L__unnamed_7(%rip), %rsi
	leaq	40(%rsp), %rdi
	movq	%rdi, (%rsp)
	movl	$1, %edx
	callq	_ZN4core3fmt9Arguments9new_const17he6f8f63bfe90a978E
	movq	(%rsp), %rdi
	leaq	.L__unnamed_10(%rip), %rsi
	movq	_ZN4core9panicking9panic_fmt17hc69c4d258fe11477E@GOTPCREL(%rip), %rax
	callq	*%rax
.Lfunc_end29:
	.size	_ZN4core3fmt9Arguments9new_const17he6f8f63bfe90a978E, .Lfunc_end29-_ZN4core3fmt9Arguments9new_const17he6f8f63bfe90a978E
	.cfi_endproc

	.section	".text._ZN4core3ops8function6FnOnce40call_once$u7b$$u7b$vtable.shim$u7d$$u7d$17he983d61f56b63433E","ax",@progbits
	.p2align	4, 0x90
	.type	_ZN4core3ops8function6FnOnce40call_once$u7b$$u7b$vtable.shim$u7d$$u7d$17he983d61f56b63433E,@function
_ZN4core3ops8function6FnOnce40call_once$u7b$$u7b$vtable.shim$u7d$$u7d$17he983d61f56b63433E:
	.cfi_startproc
	pushq	%rax
	.cfi_def_cfa_offset 16
	movq	(%rdi), %rdi
	callq	_ZN4core3ops8function6FnOnce9call_once17h81b532eb349be55bE
	popq	%rcx
	.cfi_def_cfa_offset 8
	retq
.Lfunc_end30:
	.size	_ZN4core3ops8function6FnOnce40call_once$u7b$$u7b$vtable.shim$u7d$$u7d$17he983d61f56b63433E, .Lfunc_end30-_ZN4core3ops8function6FnOnce40call_once$u7b$$u7b$vtable.shim$u7d$$u7d$17he983d61f56b63433E
	.cfi_endproc

	.section	.text._ZN4core3ops8function6FnOnce9call_once17h161bbaff7da7c2dfE,"ax",@progbits
	.p2align	4, 0x90
	.type	_ZN4core3ops8function6FnOnce9call_once17h161bbaff7da7c2dfE,@function
_ZN4core3ops8function6FnOnce9call_once17h161bbaff7da7c2dfE:
	.cfi_startproc
	pushq	%rax
	.cfi_def_cfa_offset 16
	callq	*%rdi
	popq	%rcx
	.cfi_def_cfa_offset 8
	retq
.Lfunc_end31:
	.size	_ZN4core3ops8function6FnOnce9call_once17h161bbaff7da7c2dfE, .Lfunc_end31-_ZN4core3ops8function6FnOnce9call_once17h161bbaff7da7c2dfE
	.cfi_endproc

	.section	.text._ZN4core3ops8function6FnOnce9call_once17h81b532eb349be55bE,"ax",@progbits
	.p2align	4, 0x90
	.type	_ZN4core3ops8function6FnOnce9call_once17h81b532eb349be55bE,@function
_ZN4core3ops8function6FnOnce9call_once17h81b532eb349be55bE:
.Lfunc_begin4:
	.cfi_startproc
	.cfi_personality 155, DW.ref.rust_eh_personality
	.cfi_lsda 27, .Lexception4
	subq	$40, %rsp
	.cfi_def_cfa_offset 48
	movq	%rdi, 8(%rsp)
.Ltmp37:
	leaq	8(%rsp), %rdi
	callq	_ZN3std2rt10lang_start28_$u7b$$u7b$closure$u7d$$u7d$17h3eba39e20883ec79E
.Ltmp38:
	movl	%eax, 4(%rsp)
	jmp	.LBB32_3
.LBB32_1:
	movq	24(%rsp), %rdi
	callq	_Unwind_Resume@PLT
.LBB32_2:
.Ltmp39:
	movq	%rax, %rcx
	movl	%edx, %eax
	movq	%rcx, 24(%rsp)
	movl	%eax, 32(%rsp)
	jmp	.LBB32_1
.LBB32_3:
	movl	4(%rsp), %eax
	addq	$40, %rsp
	.cfi_def_cfa_offset 8
	retq
.Lfunc_end32:
	.size	_ZN4core3ops8function6FnOnce9call_once17h81b532eb349be55bE, .Lfunc_end32-_ZN4core3ops8function6FnOnce9call_once17h81b532eb349be55bE
	.cfi_endproc
	.section	.gcc_except_table._ZN4core3ops8function6FnOnce9call_once17h81b532eb349be55bE,"a",@progbits
	.p2align	2, 0x0
GCC_except_table32:
.Lexception4:
	.byte	255
	.byte	255
	.byte	1
	.uleb128 .Lcst_end4-.Lcst_begin4
.Lcst_begin4:
	.uleb128 .Ltmp37-.Lfunc_begin4
	.uleb128 .Ltmp38-.Ltmp37
	.uleb128 .Ltmp39-.Lfunc_begin4
	.byte	0
	.uleb128 .Ltmp38-.Lfunc_begin4
	.uleb128 .Lfunc_end32-.Ltmp38
	.byte	0
	.byte	0
.Lcst_end4:
	.p2align	2, 0x0

	.section	.text._ZN4core3ops8function6FnOnce9call_once17hb159873e46b1228dE,"ax",@progbits
	.p2align	4, 0x90
	.type	_ZN4core3ops8function6FnOnce9call_once17hb159873e46b1228dE,@function
_ZN4core3ops8function6FnOnce9call_once17hb159873e46b1228dE:
	.cfi_startproc
	subq	$24, %rsp
	.cfi_def_cfa_offset 32
	movq	%rdi, %rax
	movq	%rax, (%rsp)
	movq	%rsi, 8(%rsp)
	movq	%rdx, 16(%rsp)
	movq	8(%rsp), %rsi
	movq	16(%rsp), %rdx
	callq	_ZN5alloc3str56_$LT$impl$u20$alloc..borrow..ToOwned$u20$for$u20$str$GT$8to_owned17h6f45098aff51a8edE
	movq	(%rsp), %rax
	addq	$24, %rsp
	.cfi_def_cfa_offset 8
	retq
.Lfunc_end33:
	.size	_ZN4core3ops8function6FnOnce9call_once17hb159873e46b1228dE, .Lfunc_end33-_ZN4core3ops8function6FnOnce9call_once17hb159873e46b1228dE
	.cfi_endproc

	.section	.text._ZN4core3ops8function6FnOnce9call_once17he4ddb8f5c96e317eE,"ax",@progbits
	.p2align	4, 0x90
	.type	_ZN4core3ops8function6FnOnce9call_once17he4ddb8f5c96e317eE,@function
_ZN4core3ops8function6FnOnce9call_once17he4ddb8f5c96e317eE:
	.cfi_startproc
	subq	$24, %rsp
	.cfi_def_cfa_offset 32
	movq	%rdi, 8(%rsp)
	movq	%rsi, 16(%rsp)
	movq	8(%rsp), %rdi
	movq	16(%rsp), %rsi
	callq	_ZN4core3cmp5impls50_$LT$impl$u20$core..cmp..Ord$u20$for$u20$usize$GT$3cmp17h080a8fd3da9f9d10E
	addq	$24, %rsp
	.cfi_def_cfa_offset 8
	retq
.Lfunc_end34:
	.size	_ZN4core3ops8function6FnOnce9call_once17he4ddb8f5c96e317eE, .Lfunc_end34-_ZN4core3ops8function6FnOnce9call_once17he4ddb8f5c96e317eE
	.cfi_endproc

	.section	.text._ZN4core3ops8function6FnOnce9call_once17he6798d1b43940830E,"ax",@progbits
	.p2align	4, 0x90
	.type	_ZN4core3ops8function6FnOnce9call_once17he6798d1b43940830E,@function
_ZN4core3ops8function6FnOnce9call_once17he6798d1b43940830E:
	.cfi_startproc
	subq	$24, %rsp
	.cfi_def_cfa_offset 32
	movb	%sil, %al
	movq	%rdi, 8(%rsp)
	andb	$1, %al
	movb	%al, 16(%rsp)
	movq	8(%rsp), %rdi
	movzbl	16(%rsp), %esi
	callq	_ZN3std2fs7ReadDir17h45bb46ecebe41bbbE
	addq	$24, %rsp
	.cfi_def_cfa_offset 8
	retq
.Lfunc_end35:
	.size	_ZN4core3ops8function6FnOnce9call_once17he6798d1b43940830E, .Lfunc_end35-_ZN4core3ops8function6FnOnce9call_once17he6798d1b43940830E
	.cfi_endproc

	.section	".text._ZN4core3ptr101drop_in_place$LT$std..io..error..ErrorData$LT$alloc..boxed..Box$LT$std..io..error..Custom$GT$$GT$$GT$17h5368efe510d36a1cE","ax",@progbits
	.p2align	4, 0x90
	.type	_ZN4core3ptr101drop_in_place$LT$std..io..error..ErrorData$LT$alloc..boxed..Box$LT$std..io..error..Custom$GT$$GT$$GT$17h5368efe510d36a1cE,@function
_ZN4core3ptr101drop_in_place$LT$std..io..error..ErrorData$LT$alloc..boxed..Box$LT$std..io..error..Custom$GT$$GT$$GT$17h5368efe510d36a1cE:
	.cfi_startproc
	pushq	%rax
	.cfi_def_cfa_offset 16
	movq	%rdi, (%rsp)
	movb	(%rdi), %al
	subb	$3, %al
	jb	.LBB36_2
	jmp	.LBB36_1
.LBB36_1:
	movq	(%rsp), %rdi
	addq	$8, %rdi
	callq	_ZN4core3ptr68drop_in_place$LT$alloc..boxed..Box$LT$std..io..error..Custom$GT$$GT$17hdb68555a8c11bc5dE
.LBB36_2:
	popq	%rax
	.cfi_def_cfa_offset 8
	retq
.Lfunc_end36:
	.size	_ZN4core3ptr101drop_in_place$LT$std..io..error..ErrorData$LT$alloc..boxed..Box$LT$std..io..error..Custom$GT$$GT$$GT$17h5368efe510d36a1cE, .Lfunc_end36-_ZN4core3ptr101drop_in_place$LT$std..io..error..ErrorData$LT$alloc..boxed..Box$LT$std..io..error..Custom$GT$$GT$$GT$17h5368efe510d36a1cE
	.cfi_endproc

	.section	".text._ZN4core3ptr110drop_in_place$LT$alloc..sync..Weak$LT$std..sys..pal..unix..fs..InnerReadDir$C$$RF$alloc..alloc..Global$GT$$GT$17h9d91de5a4ec8c66cE","ax",@progbits
	.p2align	4, 0x90
	.type	_ZN4core3ptr110drop_in_place$LT$alloc..sync..Weak$LT$std..sys..pal..unix..fs..InnerReadDir$C$$RF$alloc..alloc..Global$GT$$GT$17h9d91de5a4ec8c66cE,@function
_ZN4core3ptr110drop_in_place$LT$alloc..sync..Weak$LT$std..sys..pal..unix..fs..InnerReadDir$C$$RF$alloc..alloc..Global$GT$$GT$17h9d91de5a4ec8c66cE:
	.cfi_startproc
	pushq	%rax
	.cfi_def_cfa_offset 16
	callq	_ZN72_$LT$alloc..sync..Weak$LT$T$C$A$GT$$u20$as$u20$core..ops..drop..Drop$GT$4drop17h329b47dff3f91360E
	popq	%rax
	.cfi_def_cfa_offset 8
	retq
.Lfunc_end37:
	.size	_ZN4core3ptr110drop_in_place$LT$alloc..sync..Weak$LT$std..sys..pal..unix..fs..InnerReadDir$C$$RF$alloc..alloc..Global$GT$$GT$17h9d91de5a4ec8c66cE, .Lfunc_end37-_ZN4core3ptr110drop_in_place$LT$alloc..sync..Weak$LT$std..sys..pal..unix..fs..InnerReadDir$C$$RF$alloc..alloc..Global$GT$$GT$17h9d91de5a4ec8c66cE
	.cfi_endproc

	.section	".text._ZN4core3ptr118drop_in_place$LT$alloc..boxed..Box$LT$dyn$u20$core..error..Error$u2b$core..marker..Send$u2b$core..marker..Sync$GT$$GT$17hbdc6659c9e32fd63E","ax",@progbits
	.p2align	4, 0x90
	.type	_ZN4core3ptr118drop_in_place$LT$alloc..boxed..Box$LT$dyn$u20$core..error..Error$u2b$core..marker..Send$u2b$core..marker..Sync$GT$$GT$17hbdc6659c9e32fd63E,@function
_ZN4core3ptr118drop_in_place$LT$alloc..boxed..Box$LT$dyn$u20$core..error..Error$u2b$core..marker..Send$u2b$core..marker..Sync$GT$$GT$17hbdc6659c9e32fd63E:
.Lfunc_begin5:
	.cfi_startproc
	.cfi_personality 155, DW.ref.rust_eh_personality
	.cfi_lsda 27, .Lexception5
	subq	$24, %rsp
	.cfi_def_cfa_offset 32
	movq	%rdi, %rax
	movq	%rax, (%rsp)
	movq	(%rax), %rdi
	movq	8(%rax), %rax
	movq	(%rax), %rax
.Ltmp40:
	callq	*%rax
.Ltmp41:
	jmp	.LBB38_3
.LBB38_1:
.Ltmp43:
	movq	(%rsp), %rdi
	callq	_ZN72_$LT$alloc..boxed..Box$LT$T$C$A$GT$$u20$as$u20$core..ops..drop..Drop$GT$4drop17h28a8330a39f8544aE
.Ltmp44:
	jmp	.LBB38_5
.LBB38_2:
.Ltmp42:
	movq	%rax, %rcx
	movl	%edx, %eax
	movq	%rcx, 8(%rsp)
	movl	%eax, 16(%rsp)
	jmp	.LBB38_1
.LBB38_3:
	movq	(%rsp), %rdi
	callq	_ZN72_$LT$alloc..boxed..Box$LT$T$C$A$GT$$u20$as$u20$core..ops..drop..Drop$GT$4drop17h28a8330a39f8544aE
	addq	$24, %rsp
	.cfi_def_cfa_offset 8
	retq
.LBB38_4:
	.cfi_def_cfa_offset 32
.Ltmp45:
	movq	_ZN4core9panicking16panic_in_cleanup17h76c6e1c84248d3ffE@GOTPCREL(%rip), %rax
	callq	*%rax
.LBB38_5:
	movq	8(%rsp), %rdi
	callq	_Unwind_Resume@PLT
.Lfunc_end38:
	.size	_ZN4core3ptr118drop_in_place$LT$alloc..boxed..Box$LT$dyn$u20$core..error..Error$u2b$core..marker..Send$u2b$core..marker..Sync$GT$$GT$17hbdc6659c9e32fd63E, .Lfunc_end38-_ZN4core3ptr118drop_in_place$LT$alloc..boxed..Box$LT$dyn$u20$core..error..Error$u2b$core..marker..Send$u2b$core..marker..Sync$GT$$GT$17hbdc6659c9e32fd63E
	.cfi_endproc
	.section	".gcc_except_table._ZN4core3ptr118drop_in_place$LT$alloc..boxed..Box$LT$dyn$u20$core..error..Error$u2b$core..marker..Send$u2b$core..marker..Sync$GT$$GT$17hbdc6659c9e32fd63E","a",@progbits
	.p2align	2, 0x0
GCC_except_table38:
.Lexception5:
	.byte	255
	.byte	155
	.uleb128 .Lttbase1-.Lttbaseref1
.Lttbaseref1:
	.byte	1
	.uleb128 .Lcst_end5-.Lcst_begin5
.Lcst_begin5:
	.uleb128 .Ltmp40-.Lfunc_begin5
	.uleb128 .Ltmp41-.Ltmp40
	.uleb128 .Ltmp42-.Lfunc_begin5
	.byte	0
	.uleb128 .Ltmp43-.Lfunc_begin5
	.uleb128 .Ltmp44-.Ltmp43
	.uleb128 .Ltmp45-.Lfunc_begin5
	.byte	1
	.uleb128 .Ltmp44-.Lfunc_begin5
	.uleb128 .Lfunc_end38-.Ltmp44
	.byte	0
	.byte	0
.Lcst_end5:
	.byte	127
	.byte	0
	.p2align	2, 0x0
.Lttbase1:
	.byte	0
	.p2align	2, 0x0

	.section	".text._ZN4core3ptr137drop_in_place$LT$std..rt..lang_start$LT$core..result..Result$LT$$LP$$RP$$C$std..io..error..Error$GT$$GT$..$u7b$$u7b$closure$u7d$$u7d$$GT$17h8bd7c6c091affad1E","ax",@progbits
	.p2align	4, 0x90
	.type	_ZN4core3ptr137drop_in_place$LT$std..rt..lang_start$LT$core..result..Result$LT$$LP$$RP$$C$std..io..error..Error$GT$$GT$..$u7b$$u7b$closure$u7d$$u7d$$GT$17h8bd7c6c091affad1E,@function
_ZN4core3ptr137drop_in_place$LT$std..rt..lang_start$LT$core..result..Result$LT$$LP$$RP$$C$std..io..error..Error$GT$$GT$..$u7b$$u7b$closure$u7d$$u7d$$GT$17h8bd7c6c091affad1E:
	.cfi_startproc
	retq
.Lfunc_end39:
	.size	_ZN4core3ptr137drop_in_place$LT$std..rt..lang_start$LT$core..result..Result$LT$$LP$$RP$$C$std..io..error..Error$GT$$GT$..$u7b$$u7b$closure$u7d$$u7d$$GT$17h8bd7c6c091affad1E, .Lfunc_end39-_ZN4core3ptr137drop_in_place$LT$std..rt..lang_start$LT$core..result..Result$LT$$LP$$RP$$C$std..io..error..Error$GT$$GT$..$u7b$$u7b$closure$u7d$$u7d$$GT$17h8bd7c6c091affad1E
	.cfi_endproc

	.section	".text._ZN4core3ptr179drop_in_place$LT$$LT$alloc..vec..into_iter..IntoIter$LT$T$C$A$GT$$u20$as$u20$core..ops..drop..Drop$GT$..drop..DropGuard$LT$$RF$alloc..string..String$C$alloc..alloc..Global$GT$$GT$17hf972de96fa3258f6E","ax",@progbits
	.p2align	4, 0x90
	.type	_ZN4core3ptr179drop_in_place$LT$$LT$alloc..vec..into_iter..IntoIter$LT$T$C$A$GT$$u20$as$u20$core..ops..drop..Drop$GT$..drop..DropGuard$LT$$RF$alloc..string..String$C$alloc..alloc..Global$GT$$GT$17hf972de96fa3258f6E,@function
_ZN4core3ptr179drop_in_place$LT$$LT$alloc..vec..into_iter..IntoIter$LT$T$C$A$GT$$u20$as$u20$core..ops..drop..Drop$GT$..drop..DropGuard$LT$$RF$alloc..string..String$C$alloc..alloc..Global$GT$$GT$17hf972de96fa3258f6E:
	.cfi_startproc
	pushq	%rax
	.cfi_def_cfa_offset 16
	callq	_ZN157_$LT$$LT$alloc..vec..into_iter..IntoIter$LT$T$C$A$GT$$u20$as$u20$core..ops..drop..Drop$GT$..drop..DropGuard$LT$T$C$A$GT$$u20$as$u20$core..ops..drop..Drop$GT$4drop17h9a874ed5c68e15e7E
	popq	%rax
	.cfi_def_cfa_offset 8
	retq
.Lfunc_end40:
	.size	_ZN4core3ptr179drop_in_place$LT$$LT$alloc..vec..into_iter..IntoIter$LT$T$C$A$GT$$u20$as$u20$core..ops..drop..Drop$GT$..drop..DropGuard$LT$$RF$alloc..string..String$C$alloc..alloc..Global$GT$$GT$17hf972de96fa3258f6E, .Lfunc_end40-_ZN4core3ptr179drop_in_place$LT$$LT$alloc..vec..into_iter..IntoIter$LT$T$C$A$GT$$u20$as$u20$core..ops..drop..Drop$GT$..drop..DropGuard$LT$$RF$alloc..string..String$C$alloc..alloc..Global$GT$$GT$17hf972de96fa3258f6E
	.cfi_endproc

	.section	".text._ZN4core3ptr180drop_in_place$LT$$LT$alloc..vec..into_iter..IntoIter$LT$T$C$A$GT$$u20$as$u20$core..ops..drop..Drop$GT$..drop..DropGuard$LT$std..ffi..os_str..OsString$C$alloc..alloc..Global$GT$$GT$17hdbe9d5819a53565bE","ax",@progbits
	.p2align	4, 0x90
	.type	_ZN4core3ptr180drop_in_place$LT$$LT$alloc..vec..into_iter..IntoIter$LT$T$C$A$GT$$u20$as$u20$core..ops..drop..Drop$GT$..drop..DropGuard$LT$std..ffi..os_str..OsString$C$alloc..alloc..Global$GT$$GT$17hdbe9d5819a53565bE,@function
_ZN4core3ptr180drop_in_place$LT$$LT$alloc..vec..into_iter..IntoIter$LT$T$C$A$GT$$u20$as$u20$core..ops..drop..Drop$GT$..drop..DropGuard$LT$std..ffi..os_str..OsString$C$alloc..alloc..Global$GT$$GT$17hdbe9d5819a53565bE:
	.cfi_startproc
	pushq	%rax
	.cfi_def_cfa_offset 16
	callq	_ZN157_$LT$$LT$alloc..vec..into_iter..IntoIter$LT$T$C$A$GT$$u20$as$u20$core..ops..drop..Drop$GT$..drop..DropGuard$LT$T$C$A$GT$$u20$as$u20$core..ops..drop..Drop$GT$4drop17h23436762289bedd7E
	popq	%rax
	.cfi_def_cfa_offset 8
	retq
.Lfunc_end41:
	.size	_ZN4core3ptr180drop_in_place$LT$$LT$alloc..vec..into_iter..IntoIter$LT$T$C$A$GT$$u20$as$u20$core..ops..drop..Drop$GT$..drop..DropGuard$LT$std..ffi..os_str..OsString$C$alloc..alloc..Global$GT$$GT$17hdbe9d5819a53565bE, .Lfunc_end41-_ZN4core3ptr180drop_in_place$LT$$LT$alloc..vec..into_iter..IntoIter$LT$T$C$A$GT$$u20$as$u20$core..ops..drop..Drop$GT$..drop..DropGuard$LT$std..ffi..os_str..OsString$C$alloc..alloc..Global$GT$$GT$17hdbe9d5819a53565bE
	.cfi_endproc

	.section	".text._ZN4core3ptr30drop_in_place$LT$$RF$usize$GT$17ha81164d430d05e3cE","ax",@progbits
	.p2align	4, 0x90
	.type	_ZN4core3ptr30drop_in_place$LT$$RF$usize$GT$17ha81164d430d05e3cE,@function
_ZN4core3ptr30drop_in_place$LT$$RF$usize$GT$17ha81164d430d05e3cE:
	.cfi_startproc
	retq
.Lfunc_end42:
	.size	_ZN4core3ptr30drop_in_place$LT$$RF$usize$GT$17ha81164d430d05e3cE, .Lfunc_end42-_ZN4core3ptr30drop_in_place$LT$$RF$usize$GT$17ha81164d430d05e3cE
	.cfi_endproc

	.section	".text._ZN4core3ptr35drop_in_place$LT$std..env..Args$GT$17hde71d8da036503d8E","ax",@progbits
	.p2align	4, 0x90
	.type	_ZN4core3ptr35drop_in_place$LT$std..env..Args$GT$17hde71d8da036503d8E,@function
_ZN4core3ptr35drop_in_place$LT$std..env..Args$GT$17hde71d8da036503d8E:
	.cfi_startproc
	pushq	%rax
	.cfi_def_cfa_offset 16
	callq	_ZN4core3ptr37drop_in_place$LT$std..env..ArgsOs$GT$17h8aee8bbefc2a3f0eE
	popq	%rax
	.cfi_def_cfa_offset 8
	retq
.Lfunc_end43:
	.size	_ZN4core3ptr35drop_in_place$LT$std..env..Args$GT$17hde71d8da036503d8E, .Lfunc_end43-_ZN4core3ptr35drop_in_place$LT$std..env..Args$GT$17hde71d8da036503d8E
	.cfi_endproc

	.section	".text._ZN4core3ptr37drop_in_place$LT$std..env..ArgsOs$GT$17h8aee8bbefc2a3f0eE","ax",@progbits
	.p2align	4, 0x90
	.type	_ZN4core3ptr37drop_in_place$LT$std..env..ArgsOs$GT$17h8aee8bbefc2a3f0eE,@function
_ZN4core3ptr37drop_in_place$LT$std..env..ArgsOs$GT$17h8aee8bbefc2a3f0eE:
	.cfi_startproc
	pushq	%rax
	.cfi_def_cfa_offset 16
	callq	_ZN4core3ptr52drop_in_place$LT$std..sys..pal..unix..args..Args$GT$17hd0aa104f4462183cE
	popq	%rax
	.cfi_def_cfa_offset 8
	retq
.Lfunc_end44:
	.size	_ZN4core3ptr37drop_in_place$LT$std..env..ArgsOs$GT$17h8aee8bbefc2a3f0eE, .Lfunc_end44-_ZN4core3ptr37drop_in_place$LT$std..env..ArgsOs$GT$17h8aee8bbefc2a3f0eE
	.cfi_endproc

	.section	".text._ZN4core3ptr37drop_in_place$LT$std..fs..ReadDir$GT$17ha07c4db12129cbaeE","ax",@progbits
	.p2align	4, 0x90
	.type	_ZN4core3ptr37drop_in_place$LT$std..fs..ReadDir$GT$17ha07c4db12129cbaeE,@function
_ZN4core3ptr37drop_in_place$LT$std..fs..ReadDir$GT$17ha07c4db12129cbaeE:
	.cfi_startproc
	pushq	%rax
	.cfi_def_cfa_offset 16
	callq	_ZN4core3ptr53drop_in_place$LT$std..sys..pal..unix..fs..ReadDir$GT$17h804b1c9f327e616fE
	popq	%rax
	.cfi_def_cfa_offset 8
	retq
.Lfunc_end45:
	.size	_ZN4core3ptr37drop_in_place$LT$std..fs..ReadDir$GT$17ha07c4db12129cbaeE, .Lfunc_end45-_ZN4core3ptr37drop_in_place$LT$std..fs..ReadDir$GT$17ha07c4db12129cbaeE
	.cfi_endproc

	.section	".text._ZN4core3ptr38drop_in_place$LT$std..fs..DirEntry$GT$17h0cf48b2f6d6d786aE","ax",@progbits
	.p2align	4, 0x90
	.type	_ZN4core3ptr38drop_in_place$LT$std..fs..DirEntry$GT$17h0cf48b2f6d6d786aE,@function
_ZN4core3ptr38drop_in_place$LT$std..fs..DirEntry$GT$17h0cf48b2f6d6d786aE:
	.cfi_startproc
	pushq	%rax
	.cfi_def_cfa_offset 16
	callq	_ZN4core3ptr54drop_in_place$LT$std..sys..pal..unix..fs..DirEntry$GT$17hb79ff40304fc74aeE
	popq	%rax
	.cfi_def_cfa_offset 8
	retq
.Lfunc_end46:
	.size	_ZN4core3ptr38drop_in_place$LT$std..fs..DirEntry$GT$17h0cf48b2f6d6d786aE, .Lfunc_end46-_ZN4core3ptr38drop_in_place$LT$std..fs..DirEntry$GT$17h0cf48b2f6d6d786aE
	.cfi_endproc

	.section	".text._ZN4core3ptr39drop_in_place$LT$std..path..PathBuf$GT$17h102c33ab261ea3baE","ax",@progbits
	.p2align	4, 0x90
	.type	_ZN4core3ptr39drop_in_place$LT$std..path..PathBuf$GT$17h102c33ab261ea3baE,@function
_ZN4core3ptr39drop_in_place$LT$std..path..PathBuf$GT$17h102c33ab261ea3baE:
	.cfi_startproc
	pushq	%rax
	.cfi_def_cfa_offset 16
	callq	_ZN4core3ptr47drop_in_place$LT$std..ffi..os_str..OsString$GT$17hb7ec0db92b1ca403E
	popq	%rax
	.cfi_def_cfa_offset 8
	retq
.Lfunc_end47:
	.size	_ZN4core3ptr39drop_in_place$LT$std..path..PathBuf$GT$17h102c33ab261ea3baE, .Lfunc_end47-_ZN4core3ptr39drop_in_place$LT$std..path..PathBuf$GT$17h102c33ab261ea3baE
	.cfi_endproc

	.section	".text._ZN4core3ptr42drop_in_place$LT$alloc..string..String$GT$17h592997dd52716563E","ax",@progbits
	.p2align	4, 0x90
	.type	_ZN4core3ptr42drop_in_place$LT$alloc..string..String$GT$17h592997dd52716563E,@function
_ZN4core3ptr42drop_in_place$LT$alloc..string..String$GT$17h592997dd52716563E:
	.cfi_startproc
	pushq	%rax
	.cfi_def_cfa_offset 16
	callq	_ZN4core3ptr46drop_in_place$LT$alloc..vec..Vec$LT$u8$GT$$GT$17h8c1f10bbf3c82480E
	popq	%rax
	.cfi_def_cfa_offset 8
	retq
.Lfunc_end48:
	.size	_ZN4core3ptr42drop_in_place$LT$alloc..string..String$GT$17h592997dd52716563E, .Lfunc_end48-_ZN4core3ptr42drop_in_place$LT$alloc..string..String$GT$17h592997dd52716563E
	.cfi_endproc

	.section	".text._ZN4core3ptr42drop_in_place$LT$std..io..error..Error$GT$17h8782279d28987bc3E","ax",@progbits
	.p2align	4, 0x90
	.type	_ZN4core3ptr42drop_in_place$LT$std..io..error..Error$GT$17h8782279d28987bc3E,@function
_ZN4core3ptr42drop_in_place$LT$std..io..error..Error$GT$17h8782279d28987bc3E:
	.cfi_startproc
	pushq	%rax
	.cfi_def_cfa_offset 16
	callq	_ZN4core3ptr57drop_in_place$LT$std..io..error..repr_bitpacked..Repr$GT$17hed1ed3e19e80f8c1E
	popq	%rax
	.cfi_def_cfa_offset 8
	retq
.Lfunc_end49:
	.size	_ZN4core3ptr42drop_in_place$LT$std..io..error..Error$GT$17h8782279d28987bc3E, .Lfunc_end49-_ZN4core3ptr42drop_in_place$LT$std..io..error..Error$GT$17h8782279d28987bc3E
	.cfi_endproc

	.section	".text._ZN4core3ptr43drop_in_place$LT$std..io..error..Custom$GT$17h2e7a51388ee8f61aE","ax",@progbits
	.p2align	4, 0x90
	.type	_ZN4core3ptr43drop_in_place$LT$std..io..error..Custom$GT$17h2e7a51388ee8f61aE,@function
_ZN4core3ptr43drop_in_place$LT$std..io..error..Custom$GT$17h2e7a51388ee8f61aE:
	.cfi_startproc
	pushq	%rax
	.cfi_def_cfa_offset 16
	callq	_ZN4core3ptr118drop_in_place$LT$alloc..boxed..Box$LT$dyn$u20$core..error..Error$u2b$core..marker..Send$u2b$core..marker..Sync$GT$$GT$17hbdc6659c9e32fd63E
	popq	%rax
	.cfi_def_cfa_offset 8
	retq
.Lfunc_end50:
	.size	_ZN4core3ptr43drop_in_place$LT$std..io..error..Custom$GT$17h2e7a51388ee8f61aE, .Lfunc_end50-_ZN4core3ptr43drop_in_place$LT$std..io..error..Custom$GT$17h2e7a51388ee8f61aE
	.cfi_endproc

	.section	".text._ZN4core3ptr46drop_in_place$LT$alloc..vec..Vec$LT$u8$GT$$GT$17h8c1f10bbf3c82480E","ax",@progbits
	.p2align	4, 0x90
	.type	_ZN4core3ptr46drop_in_place$LT$alloc..vec..Vec$LT$u8$GT$$GT$17h8c1f10bbf3c82480E,@function
_ZN4core3ptr46drop_in_place$LT$alloc..vec..Vec$LT$u8$GT$$GT$17h8c1f10bbf3c82480E:
.Lfunc_begin6:
	.cfi_startproc
	.cfi_personality 155, DW.ref.rust_eh_personality
	.cfi_lsda 27, .Lexception6
	subq	$24, %rsp
	.cfi_def_cfa_offset 32
	movq	%rdi, (%rsp)
.Ltmp46:
	callq	_ZN70_$LT$alloc..vec..Vec$LT$T$C$A$GT$$u20$as$u20$core..ops..drop..Drop$GT$4drop17hdd058fe80c6b0a71E
.Ltmp47:
	jmp	.LBB51_3
.LBB51_1:
.Ltmp49:
	movq	(%rsp), %rdi
	callq	_ZN4core3ptr53drop_in_place$LT$alloc..raw_vec..RawVec$LT$u8$GT$$GT$17h8c17586ba697ec4cE
.Ltmp50:
	jmp	.LBB51_5
.LBB51_2:
.Ltmp48:
	movq	%rax, %rcx
	movl	%edx, %eax
	movq	%rcx, 8(%rsp)
	movl	%eax, 16(%rsp)
	jmp	.LBB51_1
.LBB51_3:
	movq	(%rsp), %rdi
	callq	_ZN4core3ptr53drop_in_place$LT$alloc..raw_vec..RawVec$LT$u8$GT$$GT$17h8c17586ba697ec4cE
	addq	$24, %rsp
	.cfi_def_cfa_offset 8
	retq
.LBB51_4:
	.cfi_def_cfa_offset 32
.Ltmp51:
	movq	_ZN4core9panicking16panic_in_cleanup17h76c6e1c84248d3ffE@GOTPCREL(%rip), %rax
	callq	*%rax
.LBB51_5:
	movq	8(%rsp), %rdi
	callq	_Unwind_Resume@PLT
.Lfunc_end51:
	.size	_ZN4core3ptr46drop_in_place$LT$alloc..vec..Vec$LT$u8$GT$$GT$17h8c1f10bbf3c82480E, .Lfunc_end51-_ZN4core3ptr46drop_in_place$LT$alloc..vec..Vec$LT$u8$GT$$GT$17h8c1f10bbf3c82480E
	.cfi_endproc
	.section	".gcc_except_table._ZN4core3ptr46drop_in_place$LT$alloc..vec..Vec$LT$u8$GT$$GT$17h8c1f10bbf3c82480E","a",@progbits
	.p2align	2, 0x0
GCC_except_table51:
.Lexception6:
	.byte	255
	.byte	155
	.uleb128 .Lttbase2-.Lttbaseref2
.Lttbaseref2:
	.byte	1
	.uleb128 .Lcst_end6-.Lcst_begin6
.Lcst_begin6:
	.uleb128 .Ltmp46-.Lfunc_begin6
	.uleb128 .Ltmp47-.Ltmp46
	.uleb128 .Ltmp48-.Lfunc_begin6
	.byte	0
	.uleb128 .Ltmp49-.Lfunc_begin6
	.uleb128 .Ltmp50-.Ltmp49
	.uleb128 .Ltmp51-.Lfunc_begin6
	.byte	1
	.uleb128 .Ltmp50-.Lfunc_begin6
	.uleb128 .Lfunc_end51-.Ltmp50
	.byte	0
	.byte	0
.Lcst_end6:
	.byte	127
	.byte	0
	.p2align	2, 0x0
.Lttbase2:
	.byte	0
	.p2align	2, 0x0

	.section	".text._ZN4core3ptr47drop_in_place$LT$alloc..ffi..c_str..CString$GT$17h74e488e465bcd3cbE","ax",@progbits
	.p2align	4, 0x90
	.type	_ZN4core3ptr47drop_in_place$LT$alloc..ffi..c_str..CString$GT$17h74e488e465bcd3cbE,@function
_ZN4core3ptr47drop_in_place$LT$alloc..ffi..c_str..CString$GT$17h74e488e465bcd3cbE:
.Lfunc_begin7:
	.cfi_startproc
	.cfi_personality 155, DW.ref.rust_eh_personality
	.cfi_lsda 27, .Lexception7
	subq	$24, %rsp
	.cfi_def_cfa_offset 32
	movq	%rdi, (%rsp)
.Ltmp52:
	callq	_ZN68_$LT$alloc..ffi..c_str..CString$u20$as$u20$core..ops..drop..Drop$GT$4drop17h4df80b61f4bb5ac0E
.Ltmp53:
	jmp	.LBB52_3
.LBB52_1:
.Ltmp55:
	movq	(%rsp), %rdi
	callq	_ZN4core3ptr58drop_in_place$LT$alloc..boxed..Box$LT$$u5b$u8$u5d$$GT$$GT$17h23a638ed4960a434E
.Ltmp56:
	jmp	.LBB52_5
.LBB52_2:
.Ltmp54:
	movq	%rax, %rcx
	movl	%edx, %eax
	movq	%rcx, 8(%rsp)
	movl	%eax, 16(%rsp)
	jmp	.LBB52_1
.LBB52_3:
	movq	(%rsp), %rdi
	callq	_ZN4core3ptr58drop_in_place$LT$alloc..boxed..Box$LT$$u5b$u8$u5d$$GT$$GT$17h23a638ed4960a434E
	addq	$24, %rsp
	.cfi_def_cfa_offset 8
	retq
.LBB52_4:
	.cfi_def_cfa_offset 32
.Ltmp57:
	movq	_ZN4core9panicking16panic_in_cleanup17h76c6e1c84248d3ffE@GOTPCREL(%rip), %rax
	callq	*%rax
.LBB52_5:
	movq	8(%rsp), %rdi
	callq	_Unwind_Resume@PLT
.Lfunc_end52:
	.size	_ZN4core3ptr47drop_in_place$LT$alloc..ffi..c_str..CString$GT$17h74e488e465bcd3cbE, .Lfunc_end52-_ZN4core3ptr47drop_in_place$LT$alloc..ffi..c_str..CString$GT$17h74e488e465bcd3cbE
	.cfi_endproc
	.section	".gcc_except_table._ZN4core3ptr47drop_in_place$LT$alloc..ffi..c_str..CString$GT$17h74e488e465bcd3cbE","a",@progbits
	.p2align	2, 0x0
GCC_except_table52:
.Lexception7:
	.byte	255
	.byte	155
	.uleb128 .Lttbase3-.Lttbaseref3
.Lttbaseref3:
	.byte	1
	.uleb128 .Lcst_end7-.Lcst_begin7
.Lcst_begin7:
	.uleb128 .Ltmp52-.Lfunc_begin7
	.uleb128 .Ltmp53-.Ltmp52
	.uleb128 .Ltmp54-.Lfunc_begin7
	.byte	0
	.uleb128 .Ltmp55-.Lfunc_begin7
	.uleb128 .Ltmp56-.Ltmp55
	.uleb128 .Ltmp57-.Lfunc_begin7
	.byte	1
	.uleb128 .Ltmp56-.Lfunc_begin7
	.uleb128 .Lfunc_end52-.Ltmp56
	.byte	0
	.byte	0
.Lcst_end7:
	.byte	127
	.byte	0
	.p2align	2, 0x0
.Lttbase3:
	.byte	0
	.p2align	2, 0x0

	.section	".text._ZN4core3ptr47drop_in_place$LT$std..ffi..os_str..OsString$GT$17hb7ec0db92b1ca403E","ax",@progbits
	.p2align	4, 0x90
	.type	_ZN4core3ptr47drop_in_place$LT$std..ffi..os_str..OsString$GT$17hb7ec0db92b1ca403E,@function
_ZN4core3ptr47drop_in_place$LT$std..ffi..os_str..OsString$GT$17hb7ec0db92b1ca403E:
	.cfi_startproc
	pushq	%rax
	.cfi_def_cfa_offset 16
	callq	_ZN4core3ptr49drop_in_place$LT$std..sys..os_str..bytes..Buf$GT$17h277a4b97a51cfa6eE
	popq	%rax
	.cfi_def_cfa_offset 8
	retq
.Lfunc_end53:
	.size	_ZN4core3ptr47drop_in_place$LT$std..ffi..os_str..OsString$GT$17hb7ec0db92b1ca403E, .Lfunc_end53-_ZN4core3ptr47drop_in_place$LT$std..ffi..os_str..OsString$GT$17hb7ec0db92b1ca403E
	.cfi_endproc

	.section	".text._ZN4core3ptr49drop_in_place$LT$std..sys..os_str..bytes..Buf$GT$17h277a4b97a51cfa6eE","ax",@progbits
	.p2align	4, 0x90
	.type	_ZN4core3ptr49drop_in_place$LT$std..sys..os_str..bytes..Buf$GT$17h277a4b97a51cfa6eE,@function
_ZN4core3ptr49drop_in_place$LT$std..sys..os_str..bytes..Buf$GT$17h277a4b97a51cfa6eE:
	.cfi_startproc
	pushq	%rax
	.cfi_def_cfa_offset 16
	callq	_ZN4core3ptr46drop_in_place$LT$alloc..vec..Vec$LT$u8$GT$$GT$17h8c1f10bbf3c82480E
	popq	%rax
	.cfi_def_cfa_offset 8
	retq
.Lfunc_end54:
	.size	_ZN4core3ptr49drop_in_place$LT$std..sys..os_str..bytes..Buf$GT$17h277a4b97a51cfa6eE, .Lfunc_end54-_ZN4core3ptr49drop_in_place$LT$std..sys..os_str..bytes..Buf$GT$17h277a4b97a51cfa6eE
	.cfi_endproc

	.section	".text._ZN4core3ptr49drop_in_place$LT$std..sys..pal..unix..fs..Dir$GT$17h149697111e52b193E","ax",@progbits
	.p2align	4, 0x90
	.type	_ZN4core3ptr49drop_in_place$LT$std..sys..pal..unix..fs..Dir$GT$17h149697111e52b193E,@function
_ZN4core3ptr49drop_in_place$LT$std..sys..pal..unix..fs..Dir$GT$17h149697111e52b193E:
	.cfi_startproc
	pushq	%rax
	.cfi_def_cfa_offset 16
	callq	*_ZN70_$LT$std..sys..pal..unix..fs..Dir$u20$as$u20$core..ops..drop..Drop$GT$4drop17hd36201482dbc2955E@GOTPCREL(%rip)
	popq	%rax
	.cfi_def_cfa_offset 8
	retq
.Lfunc_end55:
	.size	_ZN4core3ptr49drop_in_place$LT$std..sys..pal..unix..fs..Dir$GT$17h149697111e52b193E, .Lfunc_end55-_ZN4core3ptr49drop_in_place$LT$std..sys..pal..unix..fs..Dir$GT$17h149697111e52b193E
	.cfi_endproc

	.section	".text._ZN4core3ptr50drop_in_place$LT$alloc..borrow..Cow$LT$str$GT$$GT$17h31a476972b49ef5fE","ax",@progbits
	.p2align	4, 0x90
	.type	_ZN4core3ptr50drop_in_place$LT$alloc..borrow..Cow$LT$str$GT$$GT$17h31a476972b49ef5fE,@function
_ZN4core3ptr50drop_in_place$LT$alloc..borrow..Cow$LT$str$GT$$GT$17h31a476972b49ef5fE:
	.cfi_startproc
	pushq	%rax
	.cfi_def_cfa_offset 16
	movq	%rdi, (%rsp)
	movabsq	$-9223372036854775808, %rdx
	movl	$1, %eax
	xorl	%ecx, %ecx
	cmpq	%rdx, (%rdi)
	cmoveq	%rcx, %rax
	cmpq	$0, %rax
	jne	.LBB56_2
.LBB56_1:
	popq	%rax
	.cfi_def_cfa_offset 8
	retq
.LBB56_2:
	.cfi_def_cfa_offset 16
	movq	(%rsp), %rdi
	callq	_ZN4core3ptr42drop_in_place$LT$alloc..string..String$GT$17h592997dd52716563E
	jmp	.LBB56_1
.Lfunc_end56:
	.size	_ZN4core3ptr50drop_in_place$LT$alloc..borrow..Cow$LT$str$GT$$GT$17h31a476972b49ef5fE, .Lfunc_end56-_ZN4core3ptr50drop_in_place$LT$alloc..borrow..Cow$LT$str$GT$$GT$17h31a476972b49ef5fE
	.cfi_endproc

	.section	".text._ZN4core3ptr52drop_in_place$LT$$u5b$alloc..string..String$u5d$$GT$17h4f02d233d57ca5c6E","ax",@progbits
	.p2align	4, 0x90
	.type	_ZN4core3ptr52drop_in_place$LT$$u5b$alloc..string..String$u5d$$GT$17h4f02d233d57ca5c6E,@function
_ZN4core3ptr52drop_in_place$LT$$u5b$alloc..string..String$u5d$$GT$17h4f02d233d57ca5c6E:
.Lfunc_begin8:
	.cfi_startproc
	.cfi_personality 155, DW.ref.rust_eh_personality
	.cfi_lsda 27, .Lexception8
	subq	$40, %rsp
	.cfi_def_cfa_offset 48
	movq	%rdi, (%rsp)
	movq	%rsi, 8(%rsp)
	movq	$0, 16(%rsp)
.LBB57_1:
	movq	8(%rsp), %rax
	cmpq	%rax, 16(%rsp)
	je	.LBB57_3
	movq	(%rsp), %rcx
	movq	16(%rsp), %rax
	leaq	(%rax,%rax,2), %rdx
	leaq	(%rcx,%rdx,8), %rdi
	incq	%rax
	movq	%rax, 16(%rsp)
.Ltmp58:
	callq	_ZN4core3ptr42drop_in_place$LT$alloc..string..String$GT$17h592997dd52716563E
.Ltmp59:
	jmp	.LBB57_1
.LBB57_3:
	addq	$40, %rsp
	.cfi_def_cfa_offset 8
	retq
.LBB57_4:
	.cfi_def_cfa_offset 48
	movq	8(%rsp), %rax
	cmpq	%rax, 16(%rsp)
	je	.LBB57_7
	jmp	.LBB57_6
.LBB57_5:
.Ltmp60:
	movq	%rax, %rcx
	movl	%edx, %eax
	movq	%rcx, 24(%rsp)
	movl	%eax, 32(%rsp)
	jmp	.LBB57_4
.LBB57_6:
	movq	(%rsp), %rcx
	movq	16(%rsp), %rax
	leaq	(%rax,%rax,2), %rdx
	leaq	(%rcx,%rdx,8), %rdi
	incq	%rax
	movq	%rax, 16(%rsp)
.Ltmp61:
	callq	_ZN4core3ptr42drop_in_place$LT$alloc..string..String$GT$17h592997dd52716563E
.Ltmp62:
	jmp	.LBB57_4
.LBB57_7:
	movq	24(%rsp), %rdi
	callq	_Unwind_Resume@PLT
.LBB57_8:
.Ltmp63:
	movq	_ZN4core9panicking16panic_in_cleanup17h76c6e1c84248d3ffE@GOTPCREL(%rip), %rax
	callq	*%rax
.Lfunc_end57:
	.size	_ZN4core3ptr52drop_in_place$LT$$u5b$alloc..string..String$u5d$$GT$17h4f02d233d57ca5c6E, .Lfunc_end57-_ZN4core3ptr52drop_in_place$LT$$u5b$alloc..string..String$u5d$$GT$17h4f02d233d57ca5c6E
	.cfi_endproc
	.section	".gcc_except_table._ZN4core3ptr52drop_in_place$LT$$u5b$alloc..string..String$u5d$$GT$17h4f02d233d57ca5c6E","a",@progbits
	.p2align	2, 0x0
GCC_except_table57:
.Lexception8:
	.byte	255
	.byte	155
	.uleb128 .Lttbase4-.Lttbaseref4
.Lttbaseref4:
	.byte	1
	.uleb128 .Lcst_end8-.Lcst_begin8
.Lcst_begin8:
	.uleb128 .Ltmp58-.Lfunc_begin8
	.uleb128 .Ltmp59-.Ltmp58
	.uleb128 .Ltmp60-.Lfunc_begin8
	.byte	0
	.uleb128 .Ltmp61-.Lfunc_begin8
	.uleb128 .Ltmp62-.Ltmp61
	.uleb128 .Ltmp63-.Lfunc_begin8
	.byte	1
	.uleb128 .Ltmp62-.Lfunc_begin8
	.uleb128 .Lfunc_end57-.Ltmp62
	.byte	0
	.byte	0
.Lcst_end8:
	.byte	127
	.byte	0
	.p2align	2, 0x0
.Lttbase4:
	.byte	0
	.p2align	2, 0x0

	.section	".text._ZN4core3ptr52drop_in_place$LT$std..sys..pal..unix..args..Args$GT$17hd0aa104f4462183cE","ax",@progbits
	.p2align	4, 0x90
	.type	_ZN4core3ptr52drop_in_place$LT$std..sys..pal..unix..args..Args$GT$17hd0aa104f4462183cE,@function
_ZN4core3ptr52drop_in_place$LT$std..sys..pal..unix..args..Args$GT$17hd0aa104f4462183cE:
	.cfi_startproc
	pushq	%rax
	.cfi_def_cfa_offset 16
	callq	_ZN4core3ptr86drop_in_place$LT$alloc..vec..into_iter..IntoIter$LT$std..ffi..os_str..OsString$GT$$GT$17hc1f240210428900bE
	popq	%rax
	.cfi_def_cfa_offset 8
	retq
.Lfunc_end58:
	.size	_ZN4core3ptr52drop_in_place$LT$std..sys..pal..unix..args..Args$GT$17hd0aa104f4462183cE, .Lfunc_end58-_ZN4core3ptr52drop_in_place$LT$std..sys..pal..unix..args..Args$GT$17hd0aa104f4462183cE
	.cfi_endproc

	.section	".text._ZN4core3ptr53drop_in_place$LT$alloc..raw_vec..RawVec$LT$u8$GT$$GT$17h8c17586ba697ec4cE","ax",@progbits
	.p2align	4, 0x90
	.type	_ZN4core3ptr53drop_in_place$LT$alloc..raw_vec..RawVec$LT$u8$GT$$GT$17h8c17586ba697ec4cE,@function
_ZN4core3ptr53drop_in_place$LT$alloc..raw_vec..RawVec$LT$u8$GT$$GT$17h8c17586ba697ec4cE:
	.cfi_startproc
	pushq	%rax
	.cfi_def_cfa_offset 16
	callq	_ZN77_$LT$alloc..raw_vec..RawVec$LT$T$C$A$GT$$u20$as$u20$core..ops..drop..Drop$GT$4drop17hfee495bbb0595c39E
	popq	%rax
	.cfi_def_cfa_offset 8
	retq
.Lfunc_end59:
	.size	_ZN4core3ptr53drop_in_place$LT$alloc..raw_vec..RawVec$LT$u8$GT$$GT$17h8c17586ba697ec4cE, .Lfunc_end59-_ZN4core3ptr53drop_in_place$LT$alloc..raw_vec..RawVec$LT$u8$GT$$GT$17h8c17586ba697ec4cE
	.cfi_endproc

	.section	".text._ZN4core3ptr53drop_in_place$LT$std..sys..pal..unix..fs..ReadDir$GT$17h804b1c9f327e616fE","ax",@progbits
	.p2align	4, 0x90
	.type	_ZN4core3ptr53drop_in_place$LT$std..sys..pal..unix..fs..ReadDir$GT$17h804b1c9f327e616fE,@function
_ZN4core3ptr53drop_in_place$LT$std..sys..pal..unix..fs..ReadDir$GT$17h804b1c9f327e616fE:
	.cfi_startproc
	pushq	%rax
	.cfi_def_cfa_offset 16
	callq	_ZN4core3ptr82drop_in_place$LT$alloc..sync..Arc$LT$std..sys..pal..unix..fs..InnerReadDir$GT$$GT$17h6668854c5460b72dE
	popq	%rax
	.cfi_def_cfa_offset 8
	retq
.Lfunc_end60:
	.size	_ZN4core3ptr53drop_in_place$LT$std..sys..pal..unix..fs..ReadDir$GT$17h804b1c9f327e616fE, .Lfunc_end60-_ZN4core3ptr53drop_in_place$LT$std..sys..pal..unix..fs..ReadDir$GT$17h804b1c9f327e616fE
	.cfi_endproc

	.section	".text._ZN4core3ptr54drop_in_place$LT$std..sys..pal..unix..fs..DirEntry$GT$17hb79ff40304fc74aeE","ax",@progbits
	.p2align	4, 0x90
	.type	_ZN4core3ptr54drop_in_place$LT$std..sys..pal..unix..fs..DirEntry$GT$17hb79ff40304fc74aeE,@function
_ZN4core3ptr54drop_in_place$LT$std..sys..pal..unix..fs..DirEntry$GT$17hb79ff40304fc74aeE:
.Lfunc_begin9:
	.cfi_startproc
	.cfi_personality 155, DW.ref.rust_eh_personality
	.cfi_lsda 27, .Lexception9
	subq	$24, %rsp
	.cfi_def_cfa_offset 32
	movq	%rdi, (%rsp)
.Ltmp64:
	callq	_ZN4core3ptr82drop_in_place$LT$alloc..sync..Arc$LT$std..sys..pal..unix..fs..InnerReadDir$GT$$GT$17h6668854c5460b72dE
.Ltmp65:
	jmp	.LBB61_3
.LBB61_1:
	movq	(%rsp), %rdi
	addq	$8, %rdi
.Ltmp67:
	callq	_ZN4core3ptr47drop_in_place$LT$alloc..ffi..c_str..CString$GT$17h74e488e465bcd3cbE
.Ltmp68:
	jmp	.LBB61_5
.LBB61_2:
.Ltmp66:
	movq	%rax, %rcx
	movl	%edx, %eax
	movq	%rcx, 8(%rsp)
	movl	%eax, 16(%rsp)
	jmp	.LBB61_1
.LBB61_3:
	movq	(%rsp), %rdi
	addq	$8, %rdi
	callq	_ZN4core3ptr47drop_in_place$LT$alloc..ffi..c_str..CString$GT$17h74e488e465bcd3cbE
	addq	$24, %rsp
	.cfi_def_cfa_offset 8
	retq
.LBB61_4:
	.cfi_def_cfa_offset 32
.Ltmp69:
	movq	_ZN4core9panicking16panic_in_cleanup17h76c6e1c84248d3ffE@GOTPCREL(%rip), %rax
	callq	*%rax
.LBB61_5:
	movq	8(%rsp), %rdi
	callq	_Unwind_Resume@PLT
.Lfunc_end61:
	.size	_ZN4core3ptr54drop_in_place$LT$std..sys..pal..unix..fs..DirEntry$GT$17hb79ff40304fc74aeE, .Lfunc_end61-_ZN4core3ptr54drop_in_place$LT$std..sys..pal..unix..fs..DirEntry$GT$17hb79ff40304fc74aeE
	.cfi_endproc
	.section	".gcc_except_table._ZN4core3ptr54drop_in_place$LT$std..sys..pal..unix..fs..DirEntry$GT$17hb79ff40304fc74aeE","a",@progbits
	.p2align	2, 0x0
GCC_except_table61:
.Lexception9:
	.byte	255
	.byte	155
	.uleb128 .Lttbase5-.Lttbaseref5
.Lttbaseref5:
	.byte	1
	.uleb128 .Lcst_end9-.Lcst_begin9
.Lcst_begin9:
	.uleb128 .Ltmp64-.Lfunc_begin9
	.uleb128 .Ltmp65-.Ltmp64
	.uleb128 .Ltmp66-.Lfunc_begin9
	.byte	0
	.uleb128 .Ltmp67-.Lfunc_begin9
	.uleb128 .Ltmp68-.Ltmp67
	.uleb128 .Ltmp69-.Lfunc_begin9
	.byte	1
	.uleb128 .Ltmp68-.Lfunc_begin9
	.uleb128 .Lfunc_end61-.Ltmp68
	.byte	0
	.byte	0
.Lcst_end9:
	.byte	127
	.byte	0
	.p2align	2, 0x0
.Lttbase5:
	.byte	0
	.p2align	2, 0x0

	.section	".text._ZN4core3ptr57drop_in_place$LT$$u5b$std..ffi..os_str..OsString$u5d$$GT$17h8f7ccf905a60aa12E","ax",@progbits
	.p2align	4, 0x90
	.type	_ZN4core3ptr57drop_in_place$LT$$u5b$std..ffi..os_str..OsString$u5d$$GT$17h8f7ccf905a60aa12E,@function
_ZN4core3ptr57drop_in_place$LT$$u5b$std..ffi..os_str..OsString$u5d$$GT$17h8f7ccf905a60aa12E:
.Lfunc_begin10:
	.cfi_startproc
	.cfi_personality 155, DW.ref.rust_eh_personality
	.cfi_lsda 27, .Lexception10
	subq	$40, %rsp
	.cfi_def_cfa_offset 48
	movq	%rdi, (%rsp)
	movq	%rsi, 8(%rsp)
	movq	$0, 16(%rsp)
.LBB62_1:
	movq	8(%rsp), %rax
	cmpq	%rax, 16(%rsp)
	je	.LBB62_3
	movq	(%rsp), %rcx
	movq	16(%rsp), %rax
	leaq	(%rax,%rax,2), %rdx
	leaq	(%rcx,%rdx,8), %rdi
	incq	%rax
	movq	%rax, 16(%rsp)
.Ltmp70:
	callq	_ZN4core3ptr47drop_in_place$LT$std..ffi..os_str..OsString$GT$17hb7ec0db92b1ca403E
.Ltmp71:
	jmp	.LBB62_1
.LBB62_3:
	addq	$40, %rsp
	.cfi_def_cfa_offset 8
	retq
.LBB62_4:
	.cfi_def_cfa_offset 48
	movq	8(%rsp), %rax
	cmpq	%rax, 16(%rsp)
	je	.LBB62_7
	jmp	.LBB62_6
.LBB62_5:
.Ltmp72:
	movq	%rax, %rcx
	movl	%edx, %eax
	movq	%rcx, 24(%rsp)
	movl	%eax, 32(%rsp)
	jmp	.LBB62_4
.LBB62_6:
	movq	(%rsp), %rcx
	movq	16(%rsp), %rax
	leaq	(%rax,%rax,2), %rdx
	leaq	(%rcx,%rdx,8), %rdi
	incq	%rax
	movq	%rax, 16(%rsp)
.Ltmp73:
	callq	_ZN4core3ptr47drop_in_place$LT$std..ffi..os_str..OsString$GT$17hb7ec0db92b1ca403E
.Ltmp74:
	jmp	.LBB62_4
.LBB62_7:
	movq	24(%rsp), %rdi
	callq	_Unwind_Resume@PLT
.LBB62_8:
.Ltmp75:
	movq	_ZN4core9panicking16panic_in_cleanup17h76c6e1c84248d3ffE@GOTPCREL(%rip), %rax
	callq	*%rax
.Lfunc_end62:
	.size	_ZN4core3ptr57drop_in_place$LT$$u5b$std..ffi..os_str..OsString$u5d$$GT$17h8f7ccf905a60aa12E, .Lfunc_end62-_ZN4core3ptr57drop_in_place$LT$$u5b$std..ffi..os_str..OsString$u5d$$GT$17h8f7ccf905a60aa12E
	.cfi_endproc
	.section	".gcc_except_table._ZN4core3ptr57drop_in_place$LT$$u5b$std..ffi..os_str..OsString$u5d$$GT$17h8f7ccf905a60aa12E","a",@progbits
	.p2align	2, 0x0
GCC_except_table62:
.Lexception10:
	.byte	255
	.byte	155
	.uleb128 .Lttbase6-.Lttbaseref6
.Lttbaseref6:
	.byte	1
	.uleb128 .Lcst_end10-.Lcst_begin10
.Lcst_begin10:
	.uleb128 .Ltmp70-.Lfunc_begin10
	.uleb128 .Ltmp71-.Ltmp70
	.uleb128 .Ltmp72-.Lfunc_begin10
	.byte	0
	.uleb128 .Ltmp73-.Lfunc_begin10
	.uleb128 .Ltmp74-.Ltmp73
	.uleb128 .Ltmp75-.Lfunc_begin10
	.byte	1
	.uleb128 .Ltmp74-.Lfunc_begin10
	.uleb128 .Lfunc_end62-.Ltmp74
	.byte	0
	.byte	0
.Lcst_end10:
	.byte	127
	.byte	0
	.p2align	2, 0x0
.Lttbase6:
	.byte	0
	.p2align	2, 0x0

	.section	".text._ZN4core3ptr57drop_in_place$LT$std..io..error..repr_bitpacked..Repr$GT$17hed1ed3e19e80f8c1E","ax",@progbits
	.p2align	4, 0x90
	.type	_ZN4core3ptr57drop_in_place$LT$std..io..error..repr_bitpacked..Repr$GT$17hed1ed3e19e80f8c1E,@function
_ZN4core3ptr57drop_in_place$LT$std..io..error..repr_bitpacked..Repr$GT$17hed1ed3e19e80f8c1E:
	.cfi_startproc
	pushq	%rax
	.cfi_def_cfa_offset 16
	callq	_ZN78_$LT$std..io..error..repr_bitpacked..Repr$u20$as$u20$core..ops..drop..Drop$GT$4drop17h62d9c6ae68812cebE
	popq	%rax
	.cfi_def_cfa_offset 8
	retq
.Lfunc_end63:
	.size	_ZN4core3ptr57drop_in_place$LT$std..io..error..repr_bitpacked..Repr$GT$17hed1ed3e19e80f8c1E, .Lfunc_end63-_ZN4core3ptr57drop_in_place$LT$std..io..error..repr_bitpacked..Repr$GT$17hed1ed3e19e80f8c1E
	.cfi_endproc

	.section	".text._ZN4core3ptr58drop_in_place$LT$$RF$core..option..Option$LT$usize$GT$$GT$17h2db2b55e71d39260E","ax",@progbits
	.p2align	4, 0x90
	.type	_ZN4core3ptr58drop_in_place$LT$$RF$core..option..Option$LT$usize$GT$$GT$17h2db2b55e71d39260E,@function
_ZN4core3ptr58drop_in_place$LT$$RF$core..option..Option$LT$usize$GT$$GT$17h2db2b55e71d39260E:
	.cfi_startproc
	retq
.Lfunc_end64:
	.size	_ZN4core3ptr58drop_in_place$LT$$RF$core..option..Option$LT$usize$GT$$GT$17h2db2b55e71d39260E, .Lfunc_end64-_ZN4core3ptr58drop_in_place$LT$$RF$core..option..Option$LT$usize$GT$$GT$17h2db2b55e71d39260E
	.cfi_endproc

	.section	".text._ZN4core3ptr58drop_in_place$LT$alloc..boxed..Box$LT$$u5b$u8$u5d$$GT$$GT$17h23a638ed4960a434E","ax",@progbits
	.p2align	4, 0x90
	.type	_ZN4core3ptr58drop_in_place$LT$alloc..boxed..Box$LT$$u5b$u8$u5d$$GT$$GT$17h23a638ed4960a434E,@function
_ZN4core3ptr58drop_in_place$LT$alloc..boxed..Box$LT$$u5b$u8$u5d$$GT$$GT$17h23a638ed4960a434E:
	.cfi_startproc
	subq	$24, %rsp
	.cfi_def_cfa_offset 32
	movq	%rdi, (%rsp)
	movq	(%rsp), %rdi
	callq	_ZN72_$LT$alloc..boxed..Box$LT$T$C$A$GT$$u20$as$u20$core..ops..drop..Drop$GT$4drop17hbe97dbb24eb52fadE
	addq	$24, %rsp
	.cfi_def_cfa_offset 8
	retq
.Lfunc_end65:
	.size	_ZN4core3ptr58drop_in_place$LT$alloc..boxed..Box$LT$$u5b$u8$u5d$$GT$$GT$17h23a638ed4960a434E, .Lfunc_end65-_ZN4core3ptr58drop_in_place$LT$alloc..boxed..Box$LT$$u5b$u8$u5d$$GT$$GT$17h23a638ed4960a434E
	.cfi_endproc

	.section	".text._ZN4core3ptr58drop_in_place$LT$std..sys..pal..unix..fs..InnerReadDir$GT$17h254a8f5792736631E","ax",@progbits
	.p2align	4, 0x90
	.type	_ZN4core3ptr58drop_in_place$LT$std..sys..pal..unix..fs..InnerReadDir$GT$17h254a8f5792736631E,@function
_ZN4core3ptr58drop_in_place$LT$std..sys..pal..unix..fs..InnerReadDir$GT$17h254a8f5792736631E:
.Lfunc_begin11:
	.cfi_startproc
	.cfi_personality 155, DW.ref.rust_eh_personality
	.cfi_lsda 27, .Lexception11
	subq	$24, %rsp
	.cfi_def_cfa_offset 32
	movq	%rdi, (%rsp)
	addq	$24, %rdi
.Ltmp76:
	callq	_ZN4core3ptr49drop_in_place$LT$std..sys..pal..unix..fs..Dir$GT$17h149697111e52b193E
.Ltmp77:
	jmp	.LBB66_3
.LBB66_1:
.Ltmp79:
	movq	(%rsp), %rdi
	callq	_ZN4core3ptr39drop_in_place$LT$std..path..PathBuf$GT$17h102c33ab261ea3baE
.Ltmp80:
	jmp	.LBB66_5
.LBB66_2:
.Ltmp78:
	movq	%rax, %rcx
	movl	%edx, %eax
	movq	%rcx, 8(%rsp)
	movl	%eax, 16(%rsp)
	jmp	.LBB66_1
.LBB66_3:
	movq	(%rsp), %rdi
	callq	_ZN4core3ptr39drop_in_place$LT$std..path..PathBuf$GT$17h102c33ab261ea3baE
	addq	$24, %rsp
	.cfi_def_cfa_offset 8
	retq
.LBB66_4:
	.cfi_def_cfa_offset 32
.Ltmp81:
	movq	_ZN4core9panicking16panic_in_cleanup17h76c6e1c84248d3ffE@GOTPCREL(%rip), %rax
	callq	*%rax
.LBB66_5:
	movq	8(%rsp), %rdi
	callq	_Unwind_Resume@PLT
.Lfunc_end66:
	.size	_ZN4core3ptr58drop_in_place$LT$std..sys..pal..unix..fs..InnerReadDir$GT$17h254a8f5792736631E, .Lfunc_end66-_ZN4core3ptr58drop_in_place$LT$std..sys..pal..unix..fs..InnerReadDir$GT$17h254a8f5792736631E
	.cfi_endproc
	.section	".gcc_except_table._ZN4core3ptr58drop_in_place$LT$std..sys..pal..unix..fs..InnerReadDir$GT$17h254a8f5792736631E","a",@progbits
	.p2align	2, 0x0
GCC_except_table66:
.Lexception11:
	.byte	255
	.byte	155
	.uleb128 .Lttbase7-.Lttbaseref7
.Lttbaseref7:
	.byte	1
	.uleb128 .Lcst_end11-.Lcst_begin11
.Lcst_begin11:
	.uleb128 .Ltmp76-.Lfunc_begin11
	.uleb128 .Ltmp77-.Ltmp76
	.uleb128 .Ltmp78-.Lfunc_begin11
	.byte	0
	.uleb128 .Ltmp79-.Lfunc_begin11
	.uleb128 .Ltmp80-.Ltmp79
	.uleb128 .Ltmp81-.Lfunc_begin11
	.byte	1
	.uleb128 .Ltmp80-.Lfunc_begin11
	.uleb128 .Lfunc_end66-.Ltmp80
	.byte	0
	.byte	0
.Lcst_end11:
	.byte	127
	.byte	0
	.p2align	2, 0x0
.Lttbase7:
	.byte	0
	.p2align	2, 0x0

	.section	".text._ZN4core3ptr65drop_in_place$LT$alloc..vec..Vec$LT$alloc..string..String$GT$$GT$17ha8b8cbcdb81272f6E","ax",@progbits
	.p2align	4, 0x90
	.type	_ZN4core3ptr65drop_in_place$LT$alloc..vec..Vec$LT$alloc..string..String$GT$$GT$17ha8b8cbcdb81272f6E,@function
_ZN4core3ptr65drop_in_place$LT$alloc..vec..Vec$LT$alloc..string..String$GT$$GT$17ha8b8cbcdb81272f6E:
.Lfunc_begin12:
	.cfi_startproc
	.cfi_personality 155, DW.ref.rust_eh_personality
	.cfi_lsda 27, .Lexception12
	subq	$24, %rsp
	.cfi_def_cfa_offset 32
	movq	%rdi, (%rsp)
.Ltmp82:
	callq	_ZN70_$LT$alloc..vec..Vec$LT$T$C$A$GT$$u20$as$u20$core..ops..drop..Drop$GT$4drop17h8a7a8e141de84187E
.Ltmp83:
	jmp	.LBB67_3
.LBB67_1:
.Ltmp85:
	movq	(%rsp), %rdi
	callq	_ZN4core3ptr72drop_in_place$LT$alloc..raw_vec..RawVec$LT$alloc..string..String$GT$$GT$17h8467109e57b34427E
.Ltmp86:
	jmp	.LBB67_5
.LBB67_2:
.Ltmp84:
	movq	%rax, %rcx
	movl	%edx, %eax
	movq	%rcx, 8(%rsp)
	movl	%eax, 16(%rsp)
	jmp	.LBB67_1
.LBB67_3:
	movq	(%rsp), %rdi
	callq	_ZN4core3ptr72drop_in_place$LT$alloc..raw_vec..RawVec$LT$alloc..string..String$GT$$GT$17h8467109e57b34427E
	addq	$24, %rsp
	.cfi_def_cfa_offset 8
	retq
.LBB67_4:
	.cfi_def_cfa_offset 32
.Ltmp87:
	movq	_ZN4core9panicking16panic_in_cleanup17h76c6e1c84248d3ffE@GOTPCREL(%rip), %rax
	callq	*%rax
.LBB67_5:
	movq	8(%rsp), %rdi
	callq	_Unwind_Resume@PLT
.Lfunc_end67:
	.size	_ZN4core3ptr65drop_in_place$LT$alloc..vec..Vec$LT$alloc..string..String$GT$$GT$17ha8b8cbcdb81272f6E, .Lfunc_end67-_ZN4core3ptr65drop_in_place$LT$alloc..vec..Vec$LT$alloc..string..String$GT$$GT$17ha8b8cbcdb81272f6E
	.cfi_endproc
	.section	".gcc_except_table._ZN4core3ptr65drop_in_place$LT$alloc..vec..Vec$LT$alloc..string..String$GT$$GT$17ha8b8cbcdb81272f6E","a",@progbits
	.p2align	2, 0x0
GCC_except_table67:
.Lexception12:
	.byte	255
	.byte	155
	.uleb128 .Lttbase8-.Lttbaseref8
.Lttbaseref8:
	.byte	1
	.uleb128 .Lcst_end12-.Lcst_begin12
.Lcst_begin12:
	.uleb128 .Ltmp82-.Lfunc_begin12
	.uleb128 .Ltmp83-.Ltmp82
	.uleb128 .Ltmp84-.Lfunc_begin12
	.byte	0
	.uleb128 .Ltmp85-.Lfunc_begin12
	.uleb128 .Ltmp86-.Ltmp85
	.uleb128 .Ltmp87-.Lfunc_begin12
	.byte	1
	.uleb128 .Ltmp86-.Lfunc_begin12
	.uleb128 .Lfunc_end67-.Ltmp86
	.byte	0
	.byte	0
.Lcst_end12:
	.byte	127
	.byte	0
	.p2align	2, 0x0
.Lttbase8:
	.byte	0
	.p2align	2, 0x0

	.section	".text._ZN4core3ptr68drop_in_place$LT$alloc..boxed..Box$LT$std..io..error..Custom$GT$$GT$17hdb68555a8c11bc5dE","ax",@progbits
	.p2align	4, 0x90
	.type	_ZN4core3ptr68drop_in_place$LT$alloc..boxed..Box$LT$std..io..error..Custom$GT$$GT$17hdb68555a8c11bc5dE,@function
_ZN4core3ptr68drop_in_place$LT$alloc..boxed..Box$LT$std..io..error..Custom$GT$$GT$17hdb68555a8c11bc5dE:
.Lfunc_begin13:
	.cfi_startproc
	.cfi_personality 155, DW.ref.rust_eh_personality
	.cfi_lsda 27, .Lexception13
	subq	$24, %rsp
	.cfi_def_cfa_offset 32
	movq	%rdi, (%rsp)
	movq	(%rdi), %rdi
.Ltmp88:
	callq	_ZN4core3ptr43drop_in_place$LT$std..io..error..Custom$GT$17h2e7a51388ee8f61aE
.Ltmp89:
	jmp	.LBB68_3
.LBB68_1:
.Ltmp91:
	movq	(%rsp), %rdi
	callq	_ZN72_$LT$alloc..boxed..Box$LT$T$C$A$GT$$u20$as$u20$core..ops..drop..Drop$GT$4drop17he5751c9f15325df5E
.Ltmp92:
	jmp	.LBB68_5
.LBB68_2:
.Ltmp90:
	movq	%rax, %rcx
	movl	%edx, %eax
	movq	%rcx, 8(%rsp)
	movl	%eax, 16(%rsp)
	jmp	.LBB68_1
.LBB68_3:
	movq	(%rsp), %rdi
	callq	_ZN72_$LT$alloc..boxed..Box$LT$T$C$A$GT$$u20$as$u20$core..ops..drop..Drop$GT$4drop17he5751c9f15325df5E
	addq	$24, %rsp
	.cfi_def_cfa_offset 8
	retq
.LBB68_4:
	.cfi_def_cfa_offset 32
.Ltmp93:
	movq	_ZN4core9panicking16panic_in_cleanup17h76c6e1c84248d3ffE@GOTPCREL(%rip), %rax
	callq	*%rax
.LBB68_5:
	movq	8(%rsp), %rdi
	callq	_Unwind_Resume@PLT
.Lfunc_end68:
	.size	_ZN4core3ptr68drop_in_place$LT$alloc..boxed..Box$LT$std..io..error..Custom$GT$$GT$17hdb68555a8c11bc5dE, .Lfunc_end68-_ZN4core3ptr68drop_in_place$LT$alloc..boxed..Box$LT$std..io..error..Custom$GT$$GT$17hdb68555a8c11bc5dE
	.cfi_endproc
	.section	".gcc_except_table._ZN4core3ptr68drop_in_place$LT$alloc..boxed..Box$LT$std..io..error..Custom$GT$$GT$17hdb68555a8c11bc5dE","a",@progbits
	.p2align	2, 0x0
GCC_except_table68:
.Lexception13:
	.byte	255
	.byte	155
	.uleb128 .Lttbase9-.Lttbaseref9
.Lttbaseref9:
	.byte	1
	.uleb128 .Lcst_end13-.Lcst_begin13
.Lcst_begin13:
	.uleb128 .Ltmp88-.Lfunc_begin13
	.uleb128 .Ltmp89-.Ltmp88
	.uleb128 .Ltmp90-.Lfunc_begin13
	.byte	0
	.uleb128 .Ltmp91-.Lfunc_begin13
	.uleb128 .Ltmp92-.Ltmp91
	.uleb128 .Ltmp93-.Lfunc_begin13
	.byte	1
	.uleb128 .Ltmp92-.Lfunc_begin13
	.uleb128 .Lfunc_end68-.Ltmp92
	.byte	0
	.byte	0
.Lcst_end13:
	.byte	127
	.byte	0
	.p2align	2, 0x0
.Lttbase9:
	.byte	0
	.p2align	2, 0x0

	.section	".text._ZN4core3ptr69drop_in_place$LT$alloc..vec..Vec$LT$$RF$alloc..string..String$GT$$GT$17hb9dd62610509c6d2E","ax",@progbits
	.p2align	4, 0x90
	.type	_ZN4core3ptr69drop_in_place$LT$alloc..vec..Vec$LT$$RF$alloc..string..String$GT$$GT$17hb9dd62610509c6d2E,@function
_ZN4core3ptr69drop_in_place$LT$alloc..vec..Vec$LT$$RF$alloc..string..String$GT$$GT$17hb9dd62610509c6d2E:
.Lfunc_begin14:
	.cfi_startproc
	.cfi_personality 155, DW.ref.rust_eh_personality
	.cfi_lsda 27, .Lexception14
	subq	$24, %rsp
	.cfi_def_cfa_offset 32
	movq	%rdi, (%rsp)
.Ltmp94:
	callq	_ZN70_$LT$alloc..vec..Vec$LT$T$C$A$GT$$u20$as$u20$core..ops..drop..Drop$GT$4drop17hdced6b0ea72a4607E
.Ltmp95:
	jmp	.LBB69_3
.LBB69_1:
.Ltmp97:
	movq	(%rsp), %rdi
	callq	_ZN4core3ptr76drop_in_place$LT$alloc..raw_vec..RawVec$LT$$RF$alloc..string..String$GT$$GT$17hdbce744b3e0be787E
.Ltmp98:
	jmp	.LBB69_5
.LBB69_2:
.Ltmp96:
	movq	%rax, %rcx
	movl	%edx, %eax
	movq	%rcx, 8(%rsp)
	movl	%eax, 16(%rsp)
	jmp	.LBB69_1
.LBB69_3:
	movq	(%rsp), %rdi
	callq	_ZN4core3ptr76drop_in_place$LT$alloc..raw_vec..RawVec$LT$$RF$alloc..string..String$GT$$GT$17hdbce744b3e0be787E
	addq	$24, %rsp
	.cfi_def_cfa_offset 8
	retq
.LBB69_4:
	.cfi_def_cfa_offset 32
.Ltmp99:
	movq	_ZN4core9panicking16panic_in_cleanup17h76c6e1c84248d3ffE@GOTPCREL(%rip), %rax
	callq	*%rax
.LBB69_5:
	movq	8(%rsp), %rdi
	callq	_Unwind_Resume@PLT
.Lfunc_end69:
	.size	_ZN4core3ptr69drop_in_place$LT$alloc..vec..Vec$LT$$RF$alloc..string..String$GT$$GT$17hb9dd62610509c6d2E, .Lfunc_end69-_ZN4core3ptr69drop_in_place$LT$alloc..vec..Vec$LT$$RF$alloc..string..String$GT$$GT$17hb9dd62610509c6d2E
	.cfi_endproc
	.section	".gcc_except_table._ZN4core3ptr69drop_in_place$LT$alloc..vec..Vec$LT$$RF$alloc..string..String$GT$$GT$17hb9dd62610509c6d2E","a",@progbits
	.p2align	2, 0x0
GCC_except_table69:
.Lexception14:
	.byte	255
	.byte	155
	.uleb128 .Lttbase10-.Lttbaseref10
.Lttbaseref10:
	.byte	1
	.uleb128 .Lcst_end14-.Lcst_begin14
.Lcst_begin14:
	.uleb128 .Ltmp94-.Lfunc_begin14
	.uleb128 .Ltmp95-.Ltmp94
	.uleb128 .Ltmp96-.Lfunc_begin14
	.byte	0
	.uleb128 .Ltmp97-.Lfunc_begin14
	.uleb128 .Ltmp98-.Ltmp97
	.uleb128 .Ltmp99-.Lfunc_begin14
	.byte	1
	.uleb128 .Ltmp98-.Lfunc_begin14
	.uleb128 .Lfunc_end69-.Ltmp98
	.byte	0
	.byte	0
.Lcst_end14:
	.byte	127
	.byte	0
	.p2align	2, 0x0
.Lttbase10:
	.byte	0
	.p2align	2, 0x0

	.section	".text._ZN4core3ptr70drop_in_place$LT$core..option..Option$LT$alloc..string..String$GT$$GT$17h4b2330cf5761b0a5E","ax",@progbits
	.p2align	4, 0x90
	.type	_ZN4core3ptr70drop_in_place$LT$core..option..Option$LT$alloc..string..String$GT$$GT$17h4b2330cf5761b0a5E,@function
_ZN4core3ptr70drop_in_place$LT$core..option..Option$LT$alloc..string..String$GT$$GT$17h4b2330cf5761b0a5E:
	.cfi_startproc
	pushq	%rax
	.cfi_def_cfa_offset 16
	movq	%rdi, (%rsp)
	movabsq	$-9223372036854775808, %rdx
	movl	$1, %eax
	xorl	%ecx, %ecx
	cmpq	%rdx, (%rdi)
	cmoveq	%rcx, %rax
	cmpq	$0, %rax
	jne	.LBB70_2
.LBB70_1:
	popq	%rax
	.cfi_def_cfa_offset 8
	retq
.LBB70_2:
	.cfi_def_cfa_offset 16
	movq	(%rsp), %rdi
	callq	_ZN4core3ptr42drop_in_place$LT$alloc..string..String$GT$17h592997dd52716563E
	jmp	.LBB70_1
.Lfunc_end70:
	.size	_ZN4core3ptr70drop_in_place$LT$core..option..Option$LT$alloc..string..String$GT$$GT$17h4b2330cf5761b0a5E, .Lfunc_end70-_ZN4core3ptr70drop_in_place$LT$core..option..Option$LT$alloc..string..String$GT$$GT$17h4b2330cf5761b0a5E
	.cfi_endproc

	.section	".text._ZN4core3ptr72drop_in_place$LT$alloc..raw_vec..RawVec$LT$alloc..string..String$GT$$GT$17h8467109e57b34427E","ax",@progbits
	.p2align	4, 0x90
	.type	_ZN4core3ptr72drop_in_place$LT$alloc..raw_vec..RawVec$LT$alloc..string..String$GT$$GT$17h8467109e57b34427E,@function
_ZN4core3ptr72drop_in_place$LT$alloc..raw_vec..RawVec$LT$alloc..string..String$GT$$GT$17h8467109e57b34427E:
	.cfi_startproc
	pushq	%rax
	.cfi_def_cfa_offset 16
	callq	_ZN77_$LT$alloc..raw_vec..RawVec$LT$T$C$A$GT$$u20$as$u20$core..ops..drop..Drop$GT$4drop17h7401f20b0557b03fE
	popq	%rax
	.cfi_def_cfa_offset 8
	retq
.Lfunc_end71:
	.size	_ZN4core3ptr72drop_in_place$LT$alloc..raw_vec..RawVec$LT$alloc..string..String$GT$$GT$17h8467109e57b34427E, .Lfunc_end71-_ZN4core3ptr72drop_in_place$LT$alloc..raw_vec..RawVec$LT$alloc..string..String$GT$$GT$17h8467109e57b34427E
	.cfi_endproc

	.section	".text._ZN4core3ptr76drop_in_place$LT$alloc..raw_vec..RawVec$LT$$RF$alloc..string..String$GT$$GT$17hdbce744b3e0be787E","ax",@progbits
	.p2align	4, 0x90
	.type	_ZN4core3ptr76drop_in_place$LT$alloc..raw_vec..RawVec$LT$$RF$alloc..string..String$GT$$GT$17hdbce744b3e0be787E,@function
_ZN4core3ptr76drop_in_place$LT$alloc..raw_vec..RawVec$LT$$RF$alloc..string..String$GT$$GT$17hdbce744b3e0be787E:
	.cfi_startproc
	pushq	%rax
	.cfi_def_cfa_offset 16
	callq	_ZN77_$LT$alloc..raw_vec..RawVec$LT$T$C$A$GT$$u20$as$u20$core..ops..drop..Drop$GT$4drop17hba7610193fafbc2aE
	popq	%rax
	.cfi_def_cfa_offset 8
	retq
.Lfunc_end72:
	.size	_ZN4core3ptr76drop_in_place$LT$alloc..raw_vec..RawVec$LT$$RF$alloc..string..String$GT$$GT$17hdbce744b3e0be787E, .Lfunc_end72-_ZN4core3ptr76drop_in_place$LT$alloc..raw_vec..RawVec$LT$$RF$alloc..string..String$GT$$GT$17hdbce744b3e0be787E
	.cfi_endproc

	.section	".text._ZN4core3ptr77drop_in_place$LT$alloc..raw_vec..RawVec$LT$std..ffi..os_str..OsString$GT$$GT$17hf263c81a2b622b82E","ax",@progbits
	.p2align	4, 0x90
	.type	_ZN4core3ptr77drop_in_place$LT$alloc..raw_vec..RawVec$LT$std..ffi..os_str..OsString$GT$$GT$17hf263c81a2b622b82E,@function
_ZN4core3ptr77drop_in_place$LT$alloc..raw_vec..RawVec$LT$std..ffi..os_str..OsString$GT$$GT$17hf263c81a2b622b82E:
	.cfi_startproc
	pushq	%rax
	.cfi_def_cfa_offset 16
	callq	_ZN77_$LT$alloc..raw_vec..RawVec$LT$T$C$A$GT$$u20$as$u20$core..ops..drop..Drop$GT$4drop17hc02f3368c89475e4E
	popq	%rax
	.cfi_def_cfa_offset 8
	retq
.Lfunc_end73:
	.size	_ZN4core3ptr77drop_in_place$LT$alloc..raw_vec..RawVec$LT$std..ffi..os_str..OsString$GT$$GT$17hf263c81a2b622b82E, .Lfunc_end73-_ZN4core3ptr77drop_in_place$LT$alloc..raw_vec..RawVec$LT$std..ffi..os_str..OsString$GT$$GT$17hf263c81a2b622b82E
	.cfi_endproc

	.section	".text._ZN4core3ptr82drop_in_place$LT$alloc..sync..Arc$LT$std..sys..pal..unix..fs..InnerReadDir$GT$$GT$17h6668854c5460b72dE","ax",@progbits
	.p2align	4, 0x90
	.type	_ZN4core3ptr82drop_in_place$LT$alloc..sync..Arc$LT$std..sys..pal..unix..fs..InnerReadDir$GT$$GT$17h6668854c5460b72dE,@function
_ZN4core3ptr82drop_in_place$LT$alloc..sync..Arc$LT$std..sys..pal..unix..fs..InnerReadDir$GT$$GT$17h6668854c5460b72dE:
	.cfi_startproc
	pushq	%rax
	.cfi_def_cfa_offset 16
	callq	_ZN71_$LT$alloc..sync..Arc$LT$T$C$A$GT$$u20$as$u20$core..ops..drop..Drop$GT$4drop17h1c35d81d1d277ca2E
	popq	%rax
	.cfi_def_cfa_offset 8
	retq
.Lfunc_end74:
	.size	_ZN4core3ptr82drop_in_place$LT$alloc..sync..Arc$LT$std..sys..pal..unix..fs..InnerReadDir$GT$$GT$17h6668854c5460b72dE, .Lfunc_end74-_ZN4core3ptr82drop_in_place$LT$alloc..sync..Arc$LT$std..sys..pal..unix..fs..InnerReadDir$GT$$GT$17h6668854c5460b72dE
	.cfi_endproc

	.section	".text._ZN4core3ptr85drop_in_place$LT$alloc..vec..into_iter..IntoIter$LT$$RF$alloc..string..String$GT$$GT$17ha98ed9b674dc962cE","ax",@progbits
	.p2align	4, 0x90
	.type	_ZN4core3ptr85drop_in_place$LT$alloc..vec..into_iter..IntoIter$LT$$RF$alloc..string..String$GT$$GT$17ha98ed9b674dc962cE,@function
_ZN4core3ptr85drop_in_place$LT$alloc..vec..into_iter..IntoIter$LT$$RF$alloc..string..String$GT$$GT$17ha98ed9b674dc962cE:
	.cfi_startproc
	pushq	%rax
	.cfi_def_cfa_offset 16
	callq	_ZN86_$LT$alloc..vec..into_iter..IntoIter$LT$T$C$A$GT$$u20$as$u20$core..ops..drop..Drop$GT$4drop17h6713010f926e1955E
	popq	%rax
	.cfi_def_cfa_offset 8
	retq
.Lfunc_end75:
	.size	_ZN4core3ptr85drop_in_place$LT$alloc..vec..into_iter..IntoIter$LT$$RF$alloc..string..String$GT$$GT$17ha98ed9b674dc962cE, .Lfunc_end75-_ZN4core3ptr85drop_in_place$LT$alloc..vec..into_iter..IntoIter$LT$$RF$alloc..string..String$GT$$GT$17ha98ed9b674dc962cE
	.cfi_endproc

	.section	".text._ZN4core3ptr86drop_in_place$LT$alloc..vec..into_iter..IntoIter$LT$std..ffi..os_str..OsString$GT$$GT$17hc1f240210428900bE","ax",@progbits
	.p2align	4, 0x90
	.type	_ZN4core3ptr86drop_in_place$LT$alloc..vec..into_iter..IntoIter$LT$std..ffi..os_str..OsString$GT$$GT$17hc1f240210428900bE,@function
_ZN4core3ptr86drop_in_place$LT$alloc..vec..into_iter..IntoIter$LT$std..ffi..os_str..OsString$GT$$GT$17hc1f240210428900bE:
	.cfi_startproc
	pushq	%rax
	.cfi_def_cfa_offset 16
	callq	_ZN86_$LT$alloc..vec..into_iter..IntoIter$LT$T$C$A$GT$$u20$as$u20$core..ops..drop..Drop$GT$4drop17h16b03257dea6c722E
	popq	%rax
	.cfi_def_cfa_offset 8
	retq
.Lfunc_end76:
	.size	_ZN4core3ptr86drop_in_place$LT$alloc..vec..into_iter..IntoIter$LT$std..ffi..os_str..OsString$GT$$GT$17hc1f240210428900bE, .Lfunc_end76-_ZN4core3ptr86drop_in_place$LT$alloc..vec..into_iter..IntoIter$LT$std..ffi..os_str..OsString$GT$$GT$17hc1f240210428900bE
	.cfi_endproc

	.section	".text._ZN4core3ptr93drop_in_place$LT$dyn$u20$core..error..Error$u2b$core..marker..Send$u2b$core..marker..Sync$GT$17h043ae01c85a75196E","ax",@progbits
	.p2align	4, 0x90
	.type	_ZN4core3ptr93drop_in_place$LT$dyn$u20$core..error..Error$u2b$core..marker..Send$u2b$core..marker..Sync$GT$17h043ae01c85a75196E,@function
_ZN4core3ptr93drop_in_place$LT$dyn$u20$core..error..Error$u2b$core..marker..Send$u2b$core..marker..Sync$GT$17h043ae01c85a75196E:
	.cfi_startproc
	pushq	%rax
	.cfi_def_cfa_offset 16
	callq	*(%rsi)
	popq	%rax
	.cfi_def_cfa_offset 8
	retq
.Lfunc_end77:
	.size	_ZN4core3ptr93drop_in_place$LT$dyn$u20$core..error..Error$u2b$core..marker..Send$u2b$core..marker..Sync$GT$17h043ae01c85a75196E, .Lfunc_end77-_ZN4core3ptr93drop_in_place$LT$dyn$u20$core..error..Error$u2b$core..marker..Send$u2b$core..marker..Sync$GT$17h043ae01c85a75196E
	.cfi_endproc

	.section	".text._ZN4core3str21_$LT$impl$u20$str$GT$11starts_with17h9e007cc372642f92E","ax",@progbits
	.p2align	4, 0x90
	.type	_ZN4core3str21_$LT$impl$u20$str$GT$11starts_with17h9e007cc372642f92E,@function
_ZN4core3str21_$LT$impl$u20$str$GT$11starts_with17h9e007cc372642f92E:
	.cfi_startproc
	subq	$24, %rsp
	.cfi_def_cfa_offset 32
	movq	%rcx, 8(%rsp)
	movq	%rdx, 16(%rsp)
	movq	%rsi, %rcx
	movq	8(%rsp), %rsi
	movq	%rdi, %rdx
	movq	16(%rsp), %rdi
	callq	_ZN55_$LT$$RF$str$u20$as$u20$core..str..pattern..Pattern$GT$12is_prefix_of17hdc9a2310ec748439E
	andb	$1, %al
	movzbl	%al, %eax
	addq	$24, %rsp
	.cfi_def_cfa_offset 8
	retq
.Lfunc_end78:
	.size	_ZN4core3str21_$LT$impl$u20$str$GT$11starts_with17h9e007cc372642f92E, .Lfunc_end78-_ZN4core3str21_$LT$impl$u20$str$GT$11starts_with17h9e007cc372642f92E
	.cfi_endproc

	.section	".text._ZN4core3str6traits54_$LT$impl$u20$core..cmp..PartialEq$u20$for$u20$str$GT$2eq17h92a52c3da13a9964E","ax",@progbits
	.p2align	4, 0x90
	.type	_ZN4core3str6traits54_$LT$impl$u20$core..cmp..PartialEq$u20$for$u20$str$GT$2eq17h92a52c3da13a9964E,@function
_ZN4core3str6traits54_$LT$impl$u20$core..cmp..PartialEq$u20$for$u20$str$GT$2eq17h92a52c3da13a9964E:
	.cfi_startproc
	subq	$40, %rsp
	.cfi_def_cfa_offset 48
	movq	%rdi, 8(%rsp)
	movq	%rsi, 16(%rsp)
	movq	%rdx, 24(%rsp)
	movq	%rcx, 32(%rsp)
	movq	8(%rsp), %rdi
	movq	16(%rsp), %rsi
	movq	24(%rsp), %rdx
	movq	32(%rsp), %rcx
	callq	_ZN73_$LT$$u5b$A$u5d$$u20$as$u20$core..slice..cmp..SlicePartialEq$LT$B$GT$$GT$5equal17h0c1194f6a46538c1E
	andb	$1, %al
	movzbl	%al, %eax
	addq	$40, %rsp
	.cfi_def_cfa_offset 8
	retq
.Lfunc_end79:
	.size	_ZN4core3str6traits54_$LT$impl$u20$core..cmp..PartialEq$u20$for$u20$str$GT$2eq17h92a52c3da13a9964E, .Lfunc_end79-_ZN4core3str6traits54_$LT$impl$u20$core..cmp..PartialEq$u20$for$u20$str$GT$2eq17h92a52c3da13a9964E
	.cfi_endproc

	.section	.text._ZN4core4iter6traits10exact_size17ExactSizeIterator3len17hb9582e2de0eb8f1dE,"ax",@progbits
	.p2align	4, 0x90
	.type	_ZN4core4iter6traits10exact_size17ExactSizeIterator3len17hb9582e2de0eb8f1dE,@function
_ZN4core4iter6traits10exact_size17ExactSizeIterator3len17hb9582e2de0eb8f1dE:
	.cfi_startproc
	subq	$120, %rsp
	.cfi_def_cfa_offset 128
	movq	%rdi, %rsi
	leaq	24(%rsp), %rdi
	callq	_ZN103_$LT$alloc..vec..into_iter..IntoIter$LT$T$C$A$GT$$u20$as$u20$core..iter..traits..iterator..Iterator$GT$9size_hint17h51c035a86c78a673E
	movq	24(%rsp), %rax
	movq	%rax, (%rsp)
	movq	32(%rsp), %rdx
	movq	40(%rsp), %rcx
	movq	%rdx, 8(%rsp)
	movq	%rcx, 16(%rsp)
	movq	%rax, 56(%rsp)
	movq	$1, 48(%rsp)
	cmpq	$0, 8(%rsp)
	jne	.LBB80_2
	cmpq	$0, 48(%rsp)
	sete	%al
	andb	$1, %al
	movb	%al, 71(%rsp)
	jmp	.LBB80_3
.LBB80_2:
	cmpq	$1, 48(%rsp)
	je	.LBB80_4
	jmp	.LBB80_5
.LBB80_3:
	testb	$1, 71(%rsp)
	jne	.LBB80_7
	jmp	.LBB80_6
.LBB80_4:
	movq	16(%rsp), %rax
	cmpq	56(%rsp), %rax
	sete	%al
	andb	$1, %al
	movb	%al, 71(%rsp)
	jmp	.LBB80_3
.LBB80_5:
	movb	$0, 71(%rsp)
	jmp	.LBB80_3
.LBB80_6:
	movq	$0, 72(%rsp)
	leaq	.L__unnamed_11(%rip), %r8
	xorl	%edi, %edi
	leaq	8(%rsp), %rsi
	leaq	48(%rsp), %rdx
	leaq	72(%rsp), %rcx
	callq	_ZN4core9panicking13assert_failed17haa4806e4cea6282cE
.LBB80_7:
	movq	(%rsp), %rax
	addq	$120, %rsp
	.cfi_def_cfa_offset 8
	retq
.Lfunc_end80:
	.size	_ZN4core4iter6traits10exact_size17ExactSizeIterator3len17hb9582e2de0eb8f1dE, .Lfunc_end80-_ZN4core4iter6traits10exact_size17ExactSizeIterator3len17hb9582e2de0eb8f1dE
	.cfi_endproc

	.section	.text._ZN4core4iter6traits10exact_size17ExactSizeIterator3len17hd38c7e2b07f9a8a2E,"ax",@progbits
	.p2align	4, 0x90
	.type	_ZN4core4iter6traits10exact_size17ExactSizeIterator3len17hd38c7e2b07f9a8a2E,@function
_ZN4core4iter6traits10exact_size17ExactSizeIterator3len17hd38c7e2b07f9a8a2E:
	.cfi_startproc
	subq	$120, %rsp
	.cfi_def_cfa_offset 128
	movq	%rdi, %rsi
	leaq	24(%rsp), %rdi
	callq	_ZN103_$LT$alloc..vec..into_iter..IntoIter$LT$T$C$A$GT$$u20$as$u20$core..iter..traits..iterator..Iterator$GT$9size_hint17h72b7d77af46b67e7E
	movq	24(%rsp), %rax
	movq	%rax, (%rsp)
	movq	32(%rsp), %rdx
	movq	40(%rsp), %rcx
	movq	%rdx, 8(%rsp)
	movq	%rcx, 16(%rsp)
	movq	%rax, 56(%rsp)
	movq	$1, 48(%rsp)
	cmpq	$0, 8(%rsp)
	jne	.LBB81_2
	cmpq	$0, 48(%rsp)
	sete	%al
	andb	$1, %al
	movb	%al, 71(%rsp)
	jmp	.LBB81_3
.LBB81_2:
	cmpq	$1, 48(%rsp)
	je	.LBB81_4
	jmp	.LBB81_5
.LBB81_3:
	testb	$1, 71(%rsp)
	jne	.LBB81_7
	jmp	.LBB81_6
.LBB81_4:
	movq	16(%rsp), %rax
	cmpq	56(%rsp), %rax
	sete	%al
	andb	$1, %al
	movb	%al, 71(%rsp)
	jmp	.LBB81_3
.LBB81_5:
	movb	$0, 71(%rsp)
	jmp	.LBB81_3
.LBB81_6:
	movq	$0, 72(%rsp)
	leaq	.L__unnamed_11(%rip), %r8
	xorl	%edi, %edi
	leaq	8(%rsp), %rsi
	leaq	48(%rsp), %rdx
	leaq	72(%rsp), %rcx
	callq	_ZN4core9panicking13assert_failed17haa4806e4cea6282cE
.LBB81_7:
	movq	(%rsp), %rax
	addq	$120, %rsp
	.cfi_def_cfa_offset 8
	retq
.Lfunc_end81:
	.size	_ZN4core4iter6traits10exact_size17ExactSizeIterator3len17hd38c7e2b07f9a8a2E, .Lfunc_end81-_ZN4core4iter6traits10exact_size17ExactSizeIterator3len17hd38c7e2b07f9a8a2E
	.cfi_endproc

	.section	.text._ZN4core4iter6traits8iterator8Iterator7collect17h329ef0cd6d406bddE,"ax",@progbits
	.p2align	4, 0x90
	.type	_ZN4core4iter6traits8iterator8Iterator7collect17h329ef0cd6d406bddE,@function
_ZN4core4iter6traits8iterator8Iterator7collect17h329ef0cd6d406bddE:
	.cfi_startproc
	pushq	%rax
	.cfi_def_cfa_offset 16
	movq	%rdi, %rax
	movq	%rax, (%rsp)
	callq	_ZN95_$LT$alloc..vec..Vec$LT$T$GT$$u20$as$u20$core..iter..traits..collect..FromIterator$LT$T$GT$$GT$9from_iter17hb4db25c75fb1d6fcE
	movq	(%rsp), %rax
	popq	%rcx
	.cfi_def_cfa_offset 8
	retq
.Lfunc_end82:
	.size	_ZN4core4iter6traits8iterator8Iterator7collect17h329ef0cd6d406bddE, .Lfunc_end82-_ZN4core4iter6traits8iterator8Iterator7collect17h329ef0cd6d406bddE
	.cfi_endproc

	.section	.text._ZN4core4sync6atomic5fence17h7bb06440988765d9E,"ax",@progbits
	.p2align	4, 0x90
	.type	_ZN4core4sync6atomic5fence17h7bb06440988765d9E,@function
_ZN4core4sync6atomic5fence17h7bb06440988765d9E:
	.cfi_startproc
	subq	$120, %rsp
	.cfi_def_cfa_offset 128
	movb	%dil, %al
	movb	%al, 23(%rsp)
	movzbl	23(%rsp), %eax
	movq	%rax, 8(%rsp)
	movq	8(%rsp), %rax
	leaq	.LJTI83_0(%rip), %rcx
	movslq	(%rcx,%rax,4), %rax
	addq	%rcx, %rax
	jmpq	*%rax
	.cfi_def_cfa_offset 8
	ud2
.LBB83_2:
	.cfi_def_cfa_offset 128
	xorl	%eax, %eax
	testb	$1, %al
	jne	.LBB83_8
	jmp	.LBB83_7
.LBB83_3:
	#MEMBARRIER
	jmp	.LBB83_9
.LBB83_4:
	#MEMBARRIER
	jmp	.LBB83_9
.LBB83_5:
	#MEMBARRIER
	jmp	.LBB83_9
.LBB83_6:
	mfence
	jmp	.LBB83_9
.LBB83_7:
	leaq	.L__unnamed_12(%rip), %rax
	movq	%rax, 24(%rsp)
	movq	$1, 32(%rsp)
	movq	.L__unnamed_6(%rip), %rcx
	movq	.L__unnamed_6+8(%rip), %rax
	movq	%rcx, 56(%rsp)
	movq	%rax, 64(%rsp)
	leaq	.L__unnamed_8(%rip), %rax
	movq	%rax, 40(%rsp)
	movq	$0, 48(%rsp)
	leaq	.L__unnamed_13(%rip), %rsi
	movq	_ZN4core9panicking9panic_fmt17hc69c4d258fe11477E@GOTPCREL(%rip), %rax
	leaq	24(%rsp), %rdi
	callq	*%rax
.LBB83_8:
	leaq	.L__unnamed_7(%rip), %rsi
	leaq	72(%rsp), %rdi
	movq	%rdi, (%rsp)
	movl	$1, %edx
	callq	_ZN4core3fmt9Arguments9new_const17he6f8f63bfe90a978E
	movq	(%rsp), %rdi
	leaq	.L__unnamed_10(%rip), %rsi
	movq	_ZN4core9panicking9panic_fmt17hc69c4d258fe11477E@GOTPCREL(%rip), %rax
	callq	*%rax
.LBB83_9:
	addq	$120, %rsp
	.cfi_def_cfa_offset 8
	retq
.Lfunc_end83:
	.size	_ZN4core4sync6atomic5fence17h7bb06440988765d9E, .Lfunc_end83-_ZN4core4sync6atomic5fence17h7bb06440988765d9E
	.cfi_endproc
	.section	.rodata._ZN4core4sync6atomic5fence17h7bb06440988765d9E,"a",@progbits
	.p2align	2, 0x0
.LJTI83_0:
	.long	.LBB83_2-.LJTI83_0
	.long	.LBB83_3-.LJTI83_0
	.long	.LBB83_4-.LJTI83_0
	.long	.LBB83_5-.LJTI83_0
	.long	.LBB83_6-.LJTI83_0

	.section	.text._ZN4core5alloc6layout6Layout5array5inner17hef423d46b29a4009E,"ax",@progbits
	.p2align	4, 0x90
	.type	_ZN4core5alloc6layout6Layout5array5inner17hef423d46b29a4009E,@function
_ZN4core5alloc6layout6Layout5array5inner17hef423d46b29a4009E:
	.cfi_startproc
	subq	$88, %rsp
	.cfi_def_cfa_offset 96
	movq	%rdi, 16(%rsp)
	movq	%rsi, 24(%rsp)
	movq	%rdx, 32(%rsp)
	cmpq	$0, %rdi
	jne	.LBB84_2
.LBB84_1:
	movq	24(%rsp), %rax
	movq	32(%rsp), %rdx
	movq	16(%rsp), %rcx
	imulq	%rdx, %rcx
	movq	%rax, 80(%rsp)
	movq	80(%rsp), %rax
	movq	%rcx, 64(%rsp)
	movq	%rax, 56(%rsp)
	movq	56(%rsp), %rcx
	movq	64(%rsp), %rax
	movq	%rcx, 40(%rsp)
	movq	%rax, 48(%rsp)
	jmp	.LBB84_7
.LBB84_2:
	movq	16(%rsp), %rax
	movq	24(%rsp), %rcx
	movq	%rcx, 72(%rsp)
	movq	72(%rsp), %rdx
	subq	$1, %rdx
	movabsq	$9223372036854775807, %rcx
	subq	%rdx, %rcx
	movq	%rcx, 8(%rsp)
	cmpq	$0, %rax
	sete	%al
	testb	$1, %al
	jne	.LBB84_4
	movq	16(%rsp), %rcx
	movq	8(%rsp), %rax
	xorl	%edx, %edx
	divq	%rcx
	movq	%rax, %rcx
	movq	32(%rsp), %rax
	cmpq	%rcx, %rax
	ja	.LBB84_6
	jmp	.LBB84_5
.LBB84_4:
	leaq	str.1(%rip), %rdi
	leaq	.L__unnamed_14(%rip), %rdx
	movq	_ZN4core9panicking5panic17h90e84101c01877efE@GOTPCREL(%rip), %rax
	movl	$25, %esi
	callq	*%rax
.LBB84_5:
	jmp	.LBB84_1
.LBB84_6:
	movq	.L__unnamed_6(%rip), %rcx
	movq	.L__unnamed_6+8(%rip), %rax
	movq	%rcx, 40(%rsp)
	movq	%rax, 48(%rsp)
.LBB84_7:
	movq	40(%rsp), %rax
	movq	48(%rsp), %rdx
	addq	$88, %rsp
	.cfi_def_cfa_offset 8
	retq
.Lfunc_end84:
	.size	_ZN4core5alloc6layout6Layout5array5inner17hef423d46b29a4009E, .Lfunc_end84-_ZN4core5alloc6layout6Layout5array5inner17hef423d46b29a4009E
	.cfi_endproc

	.section	".text._ZN4core5slice29_$LT$impl$u20$$u5b$T$u5d$$GT$11starts_with17h800495e5dec65ac9E","ax",@progbits
	.p2align	4, 0x90
	.type	_ZN4core5slice29_$LT$impl$u20$$u5b$T$u5d$$GT$11starts_with17h800495e5dec65ac9E,@function
_ZN4core5slice29_$LT$impl$u20$$u5b$T$u5d$$GT$11starts_with17h800495e5dec65ac9E:
	.cfi_startproc
	subq	$88, %rsp
	.cfi_def_cfa_offset 96
	movq	%rdi, 8(%rsp)
	movq	%rsi, 16(%rsp)
	movq	%rdx, 32(%rsp)
	movq	%rcx, 40(%rsp)
	movq	40(%rsp), %rax
	movq	%rax, 24(%rsp)
	cmpq	%rax, %rsi
	jae	.LBB85_2
	movb	$0, 55(%rsp)
	jmp	.LBB85_3
.LBB85_2:
	movq	16(%rsp), %rcx
	movq	8(%rsp), %rdx
	movq	24(%rsp), %rax
	movq	$0, 72(%rsp)
	movq	%rax, 80(%rsp)
	movq	72(%rsp), %rdi
	movq	80(%rsp), %rsi
	leaq	.L__unnamed_15(%rip), %r8
	callq	_ZN106_$LT$core..ops..range..Range$LT$usize$GT$$u20$as$u20$core..slice..index..SliceIndex$LT$$u5b$T$u5d$$GT$$GT$5index17hae191c9cec80b9c8E
	movq	%rax, 56(%rsp)
	movq	%rdx, 64(%rsp)
	movq	32(%rsp), %rdi
	movq	40(%rsp), %rsi
	movq	56(%rsp), %rdx
	movq	64(%rsp), %rcx
	callq	_ZN73_$LT$$u5b$A$u5d$$u20$as$u20$core..slice..cmp..SlicePartialEq$LT$B$GT$$GT$5equal17h0c1194f6a46538c1E
	andb	$1, %al
	movb	%al, 55(%rsp)
.LBB85_3:
	movb	55(%rsp), %al
	andb	$1, %al
	movzbl	%al, %eax
	addq	$88, %rsp
	.cfi_def_cfa_offset 8
	retq
.Lfunc_end85:
	.size	_ZN4core5slice29_$LT$impl$u20$$u5b$T$u5d$$GT$11starts_with17h800495e5dec65ac9E, .Lfunc_end85-_ZN4core5slice29_$LT$impl$u20$$u5b$T$u5d$$GT$11starts_with17h800495e5dec65ac9E
	.cfi_endproc

	.section	".text._ZN4core5slice4iter87_$LT$impl$u20$core..iter..traits..collect..IntoIterator$u20$for$u20$$RF$$u5b$T$u5d$$GT$9into_iter17h34c41e2d1162eff8E","ax",@progbits
	.p2align	4, 0x90
	.type	_ZN4core5slice4iter87_$LT$impl$u20$core..iter..traits..collect..IntoIterator$u20$for$u20$$RF$$u5b$T$u5d$$GT$9into_iter17h34c41e2d1162eff8E,@function
_ZN4core5slice4iter87_$LT$impl$u20$core..iter..traits..collect..IntoIterator$u20$for$u20$$RF$$u5b$T$u5d$$GT$9into_iter17h34c41e2d1162eff8E:
	.cfi_startproc
	movq	%rdi, -48(%rsp)
	movq	%rsi, -40(%rsp)
	xorl	%eax, %eax
	testb	$1, %al
	jne	.LBB86_2
	movq	-48(%rsp), %rax
	movq	-40(%rsp), %rcx
	imulq	$24, %rcx, %rcx
	addq	%rcx, %rax
	movq	%rax, -16(%rsp)
	jmp	.LBB86_3
.LBB86_2:
	movq	-40(%rsp), %rax
	movq	%rax, -16(%rsp)
.LBB86_3:
	movq	-48(%rsp), %rax
	movq	%rax, -8(%rsp)
	movq	-16(%rsp), %rax
	movq	-8(%rsp), %rcx
	movq	%rcx, -32(%rsp)
	movq	%rax, -24(%rsp)
	movq	-32(%rsp), %rax
	movq	-24(%rsp), %rdx
	retq
.Lfunc_end86:
	.size	_ZN4core5slice4iter87_$LT$impl$u20$core..iter..traits..collect..IntoIterator$u20$for$u20$$RF$$u5b$T$u5d$$GT$9into_iter17h34c41e2d1162eff8E, .Lfunc_end86-_ZN4core5slice4iter87_$LT$impl$u20$core..iter..traits..collect..IntoIterator$u20$for$u20$$RF$$u5b$T$u5d$$GT$9into_iter17h34c41e2d1162eff8E
	.cfi_endproc

	.section	".text._ZN4core6option15Option$LT$T$GT$11map_or_else17h7129b94e9fe4ade3E","ax",@progbits
	.p2align	4, 0x90
	.type	_ZN4core6option15Option$LT$T$GT$11map_or_else17h7129b94e9fe4ade3E,@function
_ZN4core6option15Option$LT$T$GT$11map_or_else17h7129b94e9fe4ade3E:
.Lfunc_begin15:
	.cfi_startproc
	.cfi_personality 155, DW.ref.rust_eh_personality
	.cfi_lsda 27, .Lexception15
	subq	$88, %rsp
	.cfi_def_cfa_offset 96
	movq	%rcx, 8(%rsp)
	movq	%rdi, 16(%rsp)
	movq	%rdi, 24(%rsp)
	movq	%rsi, 32(%rsp)
	movq	%rdx, 40(%rsp)
	movb	$1, 71(%rsp)
	movb	$1, 70(%rsp)
	movq	32(%rsp), %rdx
	movl	$1, %eax
	xorl	%ecx, %ecx
	cmpq	$0, %rdx
	cmoveq	%rcx, %rax
	cmpq	$0, %rax
	jne	.LBB87_2
	movq	8(%rsp), %rsi
	movq	16(%rsp), %rdi
	movb	$0, 71(%rsp)
.Ltmp102:
	callq	_ZN5alloc3fmt6format28_$u7b$$u7b$closure$u7d$$u7d$17hcc89487fda1d3f0eE
.Ltmp103:
	jmp	.LBB87_5
.LBB87_2:
	movq	16(%rsp), %rdi
	movq	32(%rsp), %rcx
	movq	40(%rsp), %rax
	movb	$0, 70(%rsp)
	movq	%rcx, 48(%rsp)
	movq	%rax, 56(%rsp)
	movq	48(%rsp), %rsi
	movq	56(%rsp), %rdx
.Ltmp100:
	callq	_ZN4core3ops8function6FnOnce9call_once17hb159873e46b1228dE
.Ltmp101:
	jmp	.LBB87_7
.LBB87_3:
	testb	$1, 70(%rsp)
	jne	.LBB87_13
	jmp	.LBB87_12
.LBB87_4:
.Ltmp104:
	movq	%rax, %rcx
	movl	%edx, %eax
	movq	%rcx, 72(%rsp)
	movl	%eax, 80(%rsp)
	jmp	.LBB87_3
.LBB87_5:
	jmp	.LBB87_6
.LBB87_6:
	testb	$1, 70(%rsp)
	jne	.LBB87_9
	jmp	.LBB87_8
.LBB87_7:
	jmp	.LBB87_6
.LBB87_8:
	testb	$1, 71(%rsp)
	jne	.LBB87_11
	jmp	.LBB87_10
.LBB87_9:
	jmp	.LBB87_8
.LBB87_10:
	movq	24(%rsp), %rax
	addq	$88, %rsp
	.cfi_def_cfa_offset 8
	retq
.LBB87_11:
	.cfi_def_cfa_offset 96
	jmp	.LBB87_10
.LBB87_12:
	testb	$1, 71(%rsp)
	jne	.LBB87_15
	jmp	.LBB87_14
.LBB87_13:
	jmp	.LBB87_12
.LBB87_14:
	movq	72(%rsp), %rdi
	callq	_Unwind_Resume@PLT
.LBB87_15:
	jmp	.LBB87_14
.Lfunc_end87:
	.size	_ZN4core6option15Option$LT$T$GT$11map_or_else17h7129b94e9fe4ade3E, .Lfunc_end87-_ZN4core6option15Option$LT$T$GT$11map_or_else17h7129b94e9fe4ade3E
	.cfi_endproc
	.section	".gcc_except_table._ZN4core6option15Option$LT$T$GT$11map_or_else17h7129b94e9fe4ade3E","a",@progbits
	.p2align	2, 0x0
GCC_except_table87:
.Lexception15:
	.byte	255
	.byte	255
	.byte	1
	.uleb128 .Lcst_end15-.Lcst_begin15
.Lcst_begin15:
	.uleb128 .Ltmp102-.Lfunc_begin15
	.uleb128 .Ltmp101-.Ltmp102
	.uleb128 .Ltmp104-.Lfunc_begin15
	.byte	0
	.uleb128 .Ltmp101-.Lfunc_begin15
	.uleb128 .Lfunc_end87-.Ltmp101
	.byte	0
	.byte	0
.Lcst_end15:
	.p2align	2, 0x0

	.section	".text._ZN4core6result19Result$LT$T$C$E$GT$3map17h69cc27577c770050E","ax",@progbits
	.p2align	4, 0x90
	.type	_ZN4core6result19Result$LT$T$C$E$GT$3map17h69cc27577c770050E,@function
_ZN4core6result19Result$LT$T$C$E$GT$3map17h69cc27577c770050E:
	.cfi_startproc
	subq	$56, %rsp
	.cfi_def_cfa_offset 64
	movq	%rsi, 8(%rsp)
	movq	%rdi, 16(%rsp)
	movq	%rdi, 24(%rsp)
	movb	$1, 55(%rsp)
	xorl	%eax, %eax
	movl	$1, %ecx
	cmpb	$2, 8(%rsi)
	cmoveq	%rcx, %rax
	cmpq	$0, %rax
	jne	.LBB88_2
	movq	8(%rsp), %rax
	movq	(%rax), %rcx
	movb	8(%rax), %al
	movb	$0, 55(%rsp)
	movq	%rcx, 32(%rsp)
	andb	$1, %al
	movb	%al, 40(%rsp)
	movq	32(%rsp), %rdi
	movb	40(%rsp), %al
	andb	$1, %al
	movzbl	%al, %esi
	callq	_ZN4core3ops8function6FnOnce9call_once17he6798d1b43940830E
	movq	%rax, %rcx
	movq	16(%rsp), %rax
	movq	%rcx, (%rax)
	andb	$1, %dl
	movb	%dl, 8(%rax)
	jmp	.LBB88_3
.LBB88_2:
	movq	16(%rsp), %rax
	movq	8(%rsp), %rcx
	movq	(%rcx), %rcx
	movq	%rcx, (%rax)
	movb	$2, 8(%rax)
.LBB88_3:
	testb	$1, 55(%rsp)
	jne	.LBB88_5
.LBB88_4:
	movq	24(%rsp), %rax
	addq	$56, %rsp
	.cfi_def_cfa_offset 8
	retq
.LBB88_5:
	.cfi_def_cfa_offset 64
	jmp	.LBB88_4
.Lfunc_end88:
	.size	_ZN4core6result19Result$LT$T$C$E$GT$3map17h69cc27577c770050E, .Lfunc_end88-_ZN4core6result19Result$LT$T$C$E$GT$3map17h69cc27577c770050E
	.cfi_endproc

	.section	".text._ZN4core6result19Result$LT$T$C$E$GT$7map_err17h40bddc94a83c752cE","ax",@progbits
	.p2align	4, 0x90
	.type	_ZN4core6result19Result$LT$T$C$E$GT$7map_err17h40bddc94a83c752cE,@function
_ZN4core6result19Result$LT$T$C$E$GT$7map_err17h40bddc94a83c752cE:
	.cfi_startproc
	subq	$56, %rsp
	.cfi_def_cfa_offset 64
	movq	%rcx, 8(%rsp)
	movq	%rdi, 16(%rsp)
	movq	%rdi, 24(%rsp)
	movq	%rsi, 32(%rsp)
	movq	%rdx, 40(%rsp)
	movb	$1, 55(%rsp)
	movq	32(%rsp), %rdx
	xorl	%eax, %eax
	movl	$1, %ecx
	cmpq	$0, %rdx
	cmoveq	%rcx, %rax
	cmpq	$0, %rax
	jne	.LBB89_2
	movq	16(%rsp), %rax
	movq	32(%rsp), %rdx
	movq	40(%rsp), %rcx
	movq	%rdx, 8(%rax)
	movq	%rcx, 16(%rax)
	movq	$0, (%rax)
	jmp	.LBB89_3
.LBB89_2:
	movq	8(%rsp), %rdi
	movb	$0, 55(%rsp)
	callq	_ZN5alloc7raw_vec11finish_grow28_$u7b$$u7b$closure$u7d$$u7d$17h9efc6a6e4107285cE
	movq	%rax, %rcx
	movq	16(%rsp), %rax
	movq	%rcx, 8(%rax)
	movq	%rdx, 16(%rax)
	movq	$1, (%rax)
.LBB89_3:
	testb	$1, 55(%rsp)
	jne	.LBB89_5
.LBB89_4:
	movq	24(%rsp), %rax
	addq	$56, %rsp
	.cfi_def_cfa_offset 8
	retq
.LBB89_5:
	.cfi_def_cfa_offset 64
	jmp	.LBB89_4
.Lfunc_end89:
	.size	_ZN4core6result19Result$LT$T$C$E$GT$7map_err17h40bddc94a83c752cE, .Lfunc_end89-_ZN4core6result19Result$LT$T$C$E$GT$7map_err17h40bddc94a83c752cE
	.cfi_endproc

	.section	".text._ZN4core6result19Result$LT$T$C$E$GT$7map_err17h762666d182c442d8E","ax",@progbits
	.p2align	4, 0x90
	.type	_ZN4core6result19Result$LT$T$C$E$GT$7map_err17h762666d182c442d8E,@function
_ZN4core6result19Result$LT$T$C$E$GT$7map_err17h762666d182c442d8E:
	.cfi_startproc
	subq	$56, %rsp
	.cfi_def_cfa_offset 64
	movq	%rdi, (%rsp)
	movq	%rsi, 8(%rsp)
	movb	$1, 55(%rsp)
	movabsq	$-9223372036854775807, %rdx
	movl	$1, %eax
	xorl	%ecx, %ecx
	cmpq	%rdx, (%rsp)
	cmoveq	%rcx, %rax
	cmpq	$0, %rax
	jne	.LBB90_2
	movabsq	$-9223372036854775807, %rax
	movq	%rax, 16(%rsp)
	jmp	.LBB90_3
.LBB90_2:
	movq	(%rsp), %rcx
	movq	8(%rsp), %rax
	movb	$0, 55(%rsp)
	movq	%rcx, 32(%rsp)
	movq	%rax, 40(%rsp)
	movq	32(%rsp), %rdi
	movq	40(%rsp), %rsi
	callq	_ZN5alloc7raw_vec14handle_reserve28_$u7b$$u7b$closure$u7d$$u7d$17hbb8a3905a70e080dE
	movq	%rax, 16(%rsp)
	movq	%rdx, 24(%rsp)
.LBB90_3:
	testb	$1, 55(%rsp)
	jne	.LBB90_5
.LBB90_4:
	movq	16(%rsp), %rax
	movq	24(%rsp), %rdx
	addq	$56, %rsp
	.cfi_def_cfa_offset 8
	retq
.LBB90_5:
	.cfi_def_cfa_offset 64
	jmp	.LBB90_4
.Lfunc_end90:
	.size	_ZN4core6result19Result$LT$T$C$E$GT$7map_err17h762666d182c442d8E, .Lfunc_end90-_ZN4core6result19Result$LT$T$C$E$GT$7map_err17h762666d182c442d8E
	.cfi_endproc

	.section	".text._ZN4core6result19Result$LT$T$C$E$GT$7map_err17ha35d5b3b04a95588E","ax",@progbits
	.p2align	4, 0x90
	.type	_ZN4core6result19Result$LT$T$C$E$GT$7map_err17ha35d5b3b04a95588E,@function
_ZN4core6result19Result$LT$T$C$E$GT$7map_err17ha35d5b3b04a95588E:
	.cfi_startproc
	subq	$40, %rsp
	.cfi_def_cfa_offset 48
	movq	%rdi, (%rsp)
	movq	%rdi, 8(%rsp)
	movq	%rsi, 16(%rsp)
	movq	%rdx, 24(%rsp)
	movb	$1, 39(%rsp)
	xorl	%eax, %eax
	movl	$1, %ecx
	cmpq	$0, 16(%rsp)
	cmoveq	%rcx, %rax
	cmpq	$0, %rax
	jne	.LBB91_2
	movq	(%rsp), %rax
	movq	16(%rsp), %rdx
	movq	24(%rsp), %rcx
	movq	%rdx, 8(%rax)
	movq	%rcx, 16(%rax)
	movq	$0, (%rax)
	jmp	.LBB91_3
.LBB91_2:
	movb	$0, 39(%rsp)
	callq	_ZN5alloc7raw_vec11finish_grow28_$u7b$$u7b$closure$u7d$$u7d$17h56b2a347c8217964E
	movq	%rax, %rcx
	movq	(%rsp), %rax
	movq	%rcx, 8(%rax)
	movq	%rdx, 16(%rax)
	movq	$1, (%rax)
.LBB91_3:
	testb	$1, 39(%rsp)
	jne	.LBB91_5
.LBB91_4:
	movq	8(%rsp), %rax
	addq	$40, %rsp
	.cfi_def_cfa_offset 8
	retq
.LBB91_5:
	.cfi_def_cfa_offset 48
	jmp	.LBB91_4
.Lfunc_end91:
	.size	_ZN4core6result19Result$LT$T$C$E$GT$7map_err17ha35d5b3b04a95588E, .Lfunc_end91-_ZN4core6result19Result$LT$T$C$E$GT$7map_err17ha35d5b3b04a95588E
	.cfi_endproc

	.section	.text._ZN4core9panicking13assert_failed17haa4806e4cea6282cE,"ax",@progbits
	.p2align	4, 0x90
	.type	_ZN4core9panicking13assert_failed17haa4806e4cea6282cE,@function
_ZN4core9panicking13assert_failed17haa4806e4cea6282cE:
	.cfi_startproc
	subq	$24, %rsp
	.cfi_def_cfa_offset 32
	movq	%rcx, %r9
	movb	%dil, %al
	movq	%rsi, 8(%rsp)
	movq	%rdx, 16(%rsp)
	movq	%rsp, %rcx
	movq	%r8, (%rcx)
	movzbl	%al, %edi
	leaq	.L__unnamed_16(%rip), %r8
	movq	_ZN4core9panicking19assert_failed_inner17hf6c64d802c7353bcE@GOTPCREL(%rip), %rax
	leaq	8(%rsp), %rsi
	leaq	16(%rsp), %rcx
	movq	%r8, %rdx
	callq	*%rax
.Lfunc_end92:
	.size	_ZN4core9panicking13assert_failed17haa4806e4cea6282cE, .Lfunc_end92-_ZN4core9panicking13assert_failed17haa4806e4cea6282cE
	.cfi_endproc

	.section	".text._ZN54_$LT$$LP$$RP$$u20$as$u20$std..process..Termination$GT$6report17h280a406b9df529b1E","ax",@progbits
	.p2align	4, 0x90
	.type	_ZN54_$LT$$LP$$RP$$u20$as$u20$std..process..Termination$GT$6report17h280a406b9df529b1E,@function
_ZN54_$LT$$LP$$RP$$u20$as$u20$std..process..Termination$GT$6report17h280a406b9df529b1E:
	.cfi_startproc
	xorl	%eax, %eax
	retq
.Lfunc_end93:
	.size	_ZN54_$LT$$LP$$RP$$u20$as$u20$std..process..Termination$GT$6report17h280a406b9df529b1E, .Lfunc_end93-_ZN54_$LT$$LP$$RP$$u20$as$u20$std..process..Termination$GT$6report17h280a406b9df529b1E
	.cfi_endproc

	.section	".text._ZN55_$LT$$RF$T$u20$as$u20$core..convert..AsRef$LT$U$GT$$GT$6as_ref17h8aa058de095d3f41E","ax",@progbits
	.p2align	4, 0x90
	.type	_ZN55_$LT$$RF$T$u20$as$u20$core..convert..AsRef$LT$U$GT$$GT$6as_ref17h8aa058de095d3f41E,@function
_ZN55_$LT$$RF$T$u20$as$u20$core..convert..AsRef$LT$U$GT$$GT$6as_ref17h8aa058de095d3f41E:
	.cfi_startproc
	pushq	%rax
	.cfi_def_cfa_offset 16
	movq	%rdi, %rax
	movq	(%rax), %rdi
	movq	8(%rax), %rsi
	callq	_ZN3std4path77_$LT$impl$u20$core..convert..AsRef$LT$std..path..Path$GT$$u20$for$u20$str$GT$6as_ref17he6c9218ba984019fE
	popq	%rcx
	.cfi_def_cfa_offset 8
	retq
.Lfunc_end94:
	.size	_ZN55_$LT$$RF$T$u20$as$u20$core..convert..AsRef$LT$U$GT$$GT$6as_ref17h8aa058de095d3f41E, .Lfunc_end94-_ZN55_$LT$$RF$T$u20$as$u20$core..convert..AsRef$LT$U$GT$$GT$6as_ref17h8aa058de095d3f41E
	.cfi_endproc

	.section	".text._ZN55_$LT$$RF$str$u20$as$u20$core..str..pattern..Pattern$GT$12is_prefix_of17hdc9a2310ec748439E","ax",@progbits
	.p2align	4, 0x90
	.type	_ZN55_$LT$$RF$str$u20$as$u20$core..str..pattern..Pattern$GT$12is_prefix_of17hdc9a2310ec748439E,@function
_ZN55_$LT$$RF$str$u20$as$u20$core..str..pattern..Pattern$GT$12is_prefix_of17hdc9a2310ec748439E:
	.cfi_startproc
	subq	$24, %rsp
	.cfi_def_cfa_offset 32
	movq	%rcx, 8(%rsp)
	movq	%rdx, 16(%rsp)
	movq	%rsi, %rcx
	movq	8(%rsp), %rsi
	movq	%rdi, %rdx
	movq	16(%rsp), %rdi
	callq	_ZN4core5slice29_$LT$impl$u20$$u5b$T$u5d$$GT$11starts_with17h800495e5dec65ac9E
	andb	$1, %al
	movzbl	%al, %eax
	addq	$24, %rsp
	.cfi_def_cfa_offset 8
	retq
.Lfunc_end95:
	.size	_ZN55_$LT$$RF$str$u20$as$u20$core..str..pattern..Pattern$GT$12is_prefix_of17hdc9a2310ec748439E, .Lfunc_end95-_ZN55_$LT$$RF$str$u20$as$u20$core..str..pattern..Pattern$GT$12is_prefix_of17hdc9a2310ec748439E
	.cfi_endproc

	.section	.text._ZN5alloc3fmt6format17hd965f065ef2c6da8E,"ax",@progbits
	.p2align	4, 0x90
	.type	_ZN5alloc3fmt6format17hd965f065ef2c6da8E,@function
_ZN5alloc3fmt6format17hd965f065ef2c6da8E:
	.cfi_startproc
	subq	$72, %rsp
	.cfi_def_cfa_offset 80
	movq	%rsi, (%rsp)
	movq	%rdi, 8(%rsp)
	movq	%rdi, 16(%rsp)
	movq	(%rsi), %rax
	movq	%rax, 24(%rsp)
	movq	8(%rsi), %rax
	movq	%rax, 32(%rsp)
	movq	24(%rsi), %rcx
	movq	%rcx, 40(%rsp)
	cmpq	$0, %rax
	jne	.LBB96_2
	movq	40(%rsp), %rax
	cmpq	$0, %rax
	je	.LBB96_3
	jmp	.LBB96_4
.LBB96_2:
	movq	32(%rsp), %rax
	cmpq	$1, %rax
	je	.LBB96_6
	jmp	.LBB96_4
.LBB96_3:
	leaq	.L__unnamed_8(%rip), %rax
	movq	%rax, 48(%rsp)
	movq	$0, 56(%rsp)
	jmp	.LBB96_5
.LBB96_4:
	movq	.L__unnamed_6(%rip), %rcx
	movq	.L__unnamed_6+8(%rip), %rax
	movq	%rcx, 48(%rsp)
	movq	%rax, 56(%rsp)
.LBB96_5:
	movq	8(%rsp), %rdi
	movq	(%rsp), %rax
	movq	%rax, 64(%rsp)
	movq	48(%rsp), %rsi
	movq	56(%rsp), %rdx
	movq	64(%rsp), %rcx
	callq	_ZN4core6option15Option$LT$T$GT$11map_or_else17h7129b94e9fe4ade3E
	movq	16(%rsp), %rax
	addq	$72, %rsp
	.cfi_def_cfa_offset 8
	retq
.LBB96_6:
	.cfi_def_cfa_offset 80
	movq	40(%rsp), %rax
	cmpq	$0, %rax
	jne	.LBB96_4
	movq	24(%rsp), %rax
	movq	(%rax), %rcx
	movq	8(%rax), %rax
	movq	%rcx, 48(%rsp)
	movq	%rax, 56(%rsp)
	jmp	.LBB96_5
.Lfunc_end96:
	.size	_ZN5alloc3fmt6format17hd965f065ef2c6da8E, .Lfunc_end96-_ZN5alloc3fmt6format17hd965f065ef2c6da8E
	.cfi_endproc

	.section	".text._ZN5alloc3fmt6format28_$u7b$$u7b$closure$u7d$$u7d$17hcc89487fda1d3f0eE","ax",@progbits
	.p2align	4, 0x90
	.type	_ZN5alloc3fmt6format28_$u7b$$u7b$closure$u7d$$u7d$17hcc89487fda1d3f0eE,@function
_ZN5alloc3fmt6format28_$u7b$$u7b$closure$u7d$$u7d$17hcc89487fda1d3f0eE:
	.cfi_startproc
	subq	$72, %rsp
	.cfi_def_cfa_offset 80
	movq	%rdi, 8(%rsp)
	movq	%rdi, 16(%rsp)
	leaq	24(%rsp), %rdi
	movl	$48, %edx
	callq	memcpy@PLT
	movq	8(%rsp), %rdi
	leaq	24(%rsp), %rsi
	callq	*_ZN5alloc3fmt6format12format_inner17h8acc7e10788d82b9E@GOTPCREL(%rip)
	movq	16(%rsp), %rax
	addq	$72, %rsp
	.cfi_def_cfa_offset 8
	retq
.Lfunc_end97:
	.size	_ZN5alloc3fmt6format28_$u7b$$u7b$closure$u7d$$u7d$17hcc89487fda1d3f0eE, .Lfunc_end97-_ZN5alloc3fmt6format28_$u7b$$u7b$closure$u7d$$u7d$17hcc89487fda1d3f0eE
	.cfi_endproc

	.section	".text._ZN5alloc3str56_$LT$impl$u20$alloc..borrow..ToOwned$u20$for$u20$str$GT$8to_owned17h6f45098aff51a8edE","ax",@progbits
	.p2align	4, 0x90
	.type	_ZN5alloc3str56_$LT$impl$u20$alloc..borrow..ToOwned$u20$for$u20$str$GT$8to_owned17h6f45098aff51a8edE,@function
_ZN5alloc3str56_$LT$impl$u20$alloc..borrow..ToOwned$u20$for$u20$str$GT$8to_owned17h6f45098aff51a8edE:
	.cfi_startproc
	subq	$88, %rsp
	.cfi_def_cfa_offset 96
	movq	%rdx, 16(%rsp)
	movq	%rsi, 8(%rsp)
	movq	%rdi, %rax
	movq	16(%rsp), %rdi
	movq	%rax, 24(%rsp)
	movq	%rax, 32(%rsp)
	xorl	%esi, %esi
	callq	_ZN5alloc7raw_vec19RawVec$LT$T$C$A$GT$11allocate_in17h6041a146d89fbbefE
	movq	8(%rsp), %rsi
	movq	%rax, %rcx
	movq	%rdx, %rax
	movq	16(%rsp), %rdx
	movq	%rcx, 64(%rsp)
	movq	%rax, 72(%rsp)
	movq	$0, 80(%rsp)
	movq	72(%rsp), %rdi
	shlq	$0, %rdx
	callq	memcpy@PLT
	movq	16(%rsp), %rdx
	movq	24(%rsp), %rdi
	movq	32(%rsp), %rax
	movq	%rdx, 80(%rsp)
	movq	64(%rsp), %rcx
	movq	%rcx, 40(%rsp)
	movq	72(%rsp), %rcx
	movq	%rcx, 48(%rsp)
	movq	80(%rsp), %rcx
	movq	%rcx, 56(%rsp)
	movq	40(%rsp), %rcx
	movq	%rcx, (%rdi)
	movq	48(%rsp), %rcx
	movq	%rcx, 8(%rdi)
	movq	56(%rsp), %rcx
	movq	%rcx, 16(%rdi)
	addq	$88, %rsp
	.cfi_def_cfa_offset 8
	retq
.Lfunc_end98:
	.size	_ZN5alloc3str56_$LT$impl$u20$alloc..borrow..ToOwned$u20$for$u20$str$GT$8to_owned17h6f45098aff51a8edE, .Lfunc_end98-_ZN5alloc3str56_$LT$impl$u20$alloc..borrow..ToOwned$u20$for$u20$str$GT$8to_owned17h6f45098aff51a8edE
	.cfi_endproc

	.section	".text._ZN5alloc3str83_$LT$impl$u20$core..borrow..Borrow$LT$str$GT$$u20$for$u20$alloc..string..String$GT$6borrow17h728c9a75b18307daE","ax",@progbits
	.p2align	4, 0x90
	.type	_ZN5alloc3str83_$LT$impl$u20$core..borrow..Borrow$LT$str$GT$$u20$for$u20$alloc..string..String$GT$6borrow17h728c9a75b18307daE,@function
_ZN5alloc3str83_$LT$impl$u20$core..borrow..Borrow$LT$str$GT$$u20$for$u20$alloc..string..String$GT$6borrow17h728c9a75b18307daE:
	.cfi_startproc
	movq	8(%rdi), %rcx
	movq	16(%rdi), %rax
	movq	%rcx, -16(%rsp)
	movq	%rax, -8(%rsp)
	movq	-16(%rsp), %rcx
	movq	-8(%rsp), %rax
	movq	%rcx, -32(%rsp)
	movq	%rax, -24(%rsp)
	movq	-32(%rsp), %rax
	movq	-24(%rsp), %rdx
	retq
.Lfunc_end99:
	.size	_ZN5alloc3str83_$LT$impl$u20$core..borrow..Borrow$LT$str$GT$$u20$for$u20$alloc..string..String$GT$6borrow17h728c9a75b18307daE, .Lfunc_end99-_ZN5alloc3str83_$LT$impl$u20$core..borrow..Borrow$LT$str$GT$$u20$for$u20$alloc..string..String$GT$6borrow17h728c9a75b18307daE
	.cfi_endproc

	.section	".text._ZN5alloc3vec12Vec$LT$T$GT$3new17h1325574e90af41c7E","ax",@progbits
	.p2align	4, 0x90
	.type	_ZN5alloc3vec12Vec$LT$T$GT$3new17h1325574e90af41c7E,@function
_ZN5alloc3vec12Vec$LT$T$GT$3new17h1325574e90af41c7E:
	.cfi_startproc
	movq	%rdi, %rax
	movq	$0, (%rdi)
	movl	$8, %ecx
	movq	%rcx, 8(%rdi)
	movq	$0, 16(%rdi)
	retq
.Lfunc_end100:
	.size	_ZN5alloc3vec12Vec$LT$T$GT$3new17h1325574e90af41c7E, .Lfunc_end100-_ZN5alloc3vec12Vec$LT$T$GT$3new17h1325574e90af41c7E
	.cfi_endproc

	.section	".text._ZN5alloc3vec16Vec$LT$T$C$A$GT$16extend_desugared17h0168c85d7da1e8b9E","ax",@progbits
	.p2align	4, 0x90
	.type	_ZN5alloc3vec16Vec$LT$T$C$A$GT$16extend_desugared17h0168c85d7da1e8b9E,@function
_ZN5alloc3vec16Vec$LT$T$C$A$GT$16extend_desugared17h0168c85d7da1e8b9E:
.Lfunc_begin16:
	.cfi_startproc
	.cfi_personality 155, DW.ref.rust_eh_personality
	.cfi_lsda 27, .Lexception16
	subq	$152, %rsp
	.cfi_def_cfa_offset 160
	movq	%rdi, 8(%rsp)
	movq	%rsi, 16(%rsp)
.LBB101_1:
.Ltmp105:
	movq	16(%rsp), %rsi
	movq	_ZN73_$LT$std..env..Args$u20$as$u20$core..iter..traits..iterator..Iterator$GT$4next17h535c671db2e5e21bE@GOTPCREL(%rip), %rax
	leaq	24(%rsp), %rdi
	callq	*%rax
.Ltmp106:
	jmp	.LBB101_4
.LBB101_2:
.Ltmp117:
	movq	16(%rsp), %rdi
	callq	_ZN4core3ptr35drop_in_place$LT$std..env..Args$GT$17hde71d8da036503d8E
.Ltmp118:
	jmp	.LBB101_19
.LBB101_3:
.Ltmp109:
	movq	%rax, %rcx
	movl	%edx, %eax
	movq	%rcx, 128(%rsp)
	movl	%eax, 136(%rsp)
	jmp	.LBB101_2
.LBB101_4:
	movabsq	$-9223372036854775808, %rdx
	movl	$1, %eax
	xorl	%ecx, %ecx
	cmpq	%rdx, 24(%rsp)
	cmoveq	%rcx, %rax
	cmpq	$1, %rax
	jne	.LBB101_6
	movq	8(%rsp), %rax
	movq	24(%rsp), %rcx
	movq	%rcx, 48(%rsp)
	movq	32(%rsp), %rcx
	movq	%rcx, 56(%rsp)
	movq	40(%rsp), %rcx
	movq	%rcx, 64(%rsp)
	movq	16(%rax), %rax
	movq	%rax, (%rsp)
	xorl	%eax, %eax
	testb	$1, %al
	jne	.LBB101_8
	jmp	.LBB101_7
.LBB101_6:
.Ltmp107:
	leaq	24(%rsp), %rdi
	callq	_ZN4core3ptr70drop_in_place$LT$core..option..Option$LT$alloc..string..String$GT$$GT$17h4b2330cf5761b0a5E
.Ltmp108:
	jmp	.LBB101_18
.LBB101_7:
	movq	8(%rsp), %rax
	movq	(%rax), %rax
	movq	%rax, 72(%rsp)
	jmp	.LBB101_9
.LBB101_8:
	movq	$-1, 72(%rsp)
.LBB101_9:
	movq	(%rsp), %rax
	cmpq	72(%rsp), %rax
	je	.LBB101_11
	jmp	.LBB101_12
.LBB101_11:
.Ltmp110:
	movq	16(%rsp), %rsi
	movq	_ZN73_$LT$std..env..Args$u20$as$u20$core..iter..traits..iterator..Iterator$GT$9size_hint17h1f179a76bfef4daaE@GOTPCREL(%rip), %rax
	leaq	80(%rsp), %rdi
	callq	*%rax
.Ltmp111:
	jmp	.LBB101_15
.LBB101_12:
	movq	8(%rsp), %rax
	movq	(%rsp), %rcx
	imulq	$24, %rcx, %rdx
	addq	8(%rax), %rdx
	movq	48(%rsp), %rsi
	movq	%rsi, 104(%rsp)
	movq	56(%rsp), %rsi
	movq	%rsi, 112(%rsp)
	movq	64(%rsp), %rsi
	movq	%rsi, 120(%rsp)
	movq	104(%rsp), %rsi
	movq	%rsi, (%rdx)
	movq	112(%rsp), %rsi
	movq	%rsi, 8(%rdx)
	movq	120(%rsp), %rsi
	movq	%rsi, 16(%rdx)
	addq	$1, %rcx
	movq	%rcx, 16(%rax)
	jmp	.LBB101_1
.LBB101_13:
.Ltmp115:
	leaq	48(%rsp), %rdi
	callq	_ZN4core3ptr42drop_in_place$LT$alloc..string..String$GT$17h592997dd52716563E
.Ltmp116:
	jmp	.LBB101_2
.LBB101_14:
.Ltmp114:
	movq	%rax, %rcx
	movl	%edx, %eax
	movq	%rcx, 128(%rsp)
	movl	%eax, 136(%rsp)
	jmp	.LBB101_13
.LBB101_15:
	movq	8(%rsp), %rdi
	movq	80(%rsp), %rax
	incq	%rax
	movq	$-1, %rcx
	cmoveq	%rcx, %rax
	movq	%rax, 144(%rsp)
	movq	144(%rsp), %rsi
.Ltmp112:
	callq	_ZN5alloc3vec16Vec$LT$T$C$A$GT$7reserve17h1efe7bb859c764d8E
.Ltmp113:
	jmp	.LBB101_16
.LBB101_16:
	jmp	.LBB101_12
.LBB101_17:
.Ltmp119:
	movq	_ZN4core9panicking16panic_in_cleanup17h76c6e1c84248d3ffE@GOTPCREL(%rip), %rax
	callq	*%rax
.LBB101_18:
	movq	16(%rsp), %rdi
	callq	_ZN4core3ptr35drop_in_place$LT$std..env..Args$GT$17hde71d8da036503d8E
	addq	$152, %rsp
	.cfi_def_cfa_offset 8
	retq
.LBB101_19:
	.cfi_def_cfa_offset 160
	movq	128(%rsp), %rdi
	callq	_Unwind_Resume@PLT
.Lfunc_end101:
	.size	_ZN5alloc3vec16Vec$LT$T$C$A$GT$16extend_desugared17h0168c85d7da1e8b9E, .Lfunc_end101-_ZN5alloc3vec16Vec$LT$T$C$A$GT$16extend_desugared17h0168c85d7da1e8b9E
	.cfi_endproc
	.section	".gcc_except_table._ZN5alloc3vec16Vec$LT$T$C$A$GT$16extend_desugared17h0168c85d7da1e8b9E","a",@progbits
	.p2align	2, 0x0
GCC_except_table101:
.Lexception16:
	.byte	255
	.byte	155
	.uleb128 .Lttbase11-.Lttbaseref11
.Lttbaseref11:
	.byte	1
	.uleb128 .Lcst_end16-.Lcst_begin16
.Lcst_begin16:
	.uleb128 .Ltmp105-.Lfunc_begin16
	.uleb128 .Ltmp106-.Ltmp105
	.uleb128 .Ltmp109-.Lfunc_begin16
	.byte	0
	.uleb128 .Ltmp117-.Lfunc_begin16
	.uleb128 .Ltmp118-.Ltmp117
	.uleb128 .Ltmp119-.Lfunc_begin16
	.byte	1
	.uleb128 .Ltmp107-.Lfunc_begin16
	.uleb128 .Ltmp108-.Ltmp107
	.uleb128 .Ltmp109-.Lfunc_begin16
	.byte	0
	.uleb128 .Ltmp110-.Lfunc_begin16
	.uleb128 .Ltmp111-.Ltmp110
	.uleb128 .Ltmp114-.Lfunc_begin16
	.byte	0
	.uleb128 .Ltmp115-.Lfunc_begin16
	.uleb128 .Ltmp116-.Ltmp115
	.uleb128 .Ltmp119-.Lfunc_begin16
	.byte	1
	.uleb128 .Ltmp112-.Lfunc_begin16
	.uleb128 .Ltmp113-.Ltmp112
	.uleb128 .Ltmp114-.Lfunc_begin16
	.byte	0
	.uleb128 .Ltmp113-.Lfunc_begin16
	.uleb128 .Lfunc_end101-.Ltmp113
	.byte	0
	.byte	0
.Lcst_end16:
	.byte	127
	.byte	0
	.p2align	2, 0x0
.Lttbase11:
	.byte	0
	.p2align	2, 0x0

	.section	".text._ZN5alloc3vec16Vec$LT$T$C$A$GT$4push17h920a6c3b56eb8a29E","ax",@progbits
	.p2align	4, 0x90
	.type	_ZN5alloc3vec16Vec$LT$T$C$A$GT$4push17h920a6c3b56eb8a29E,@function
_ZN5alloc3vec16Vec$LT$T$C$A$GT$4push17h920a6c3b56eb8a29E:
.Lfunc_begin17:
	.cfi_startproc
	.cfi_personality 155, DW.ref.rust_eh_personality
	.cfi_lsda 27, .Lexception17
	subq	$56, %rsp
	.cfi_def_cfa_offset 64
	movq	%rdi, 8(%rsp)
	movq	%rsi, 16(%rsp)
	movq	16(%rdi), %rax
	movq	%rax, 24(%rsp)
	xorl	%eax, %eax
	testb	$1, %al
	jne	.LBB102_2
	movq	8(%rsp), %rax
	movq	(%rax), %rax
	movq	%rax, 32(%rsp)
	jmp	.LBB102_3
.LBB102_2:
	movq	$-1, 32(%rsp)
.LBB102_3:
	movq	24(%rsp), %rax
	cmpq	32(%rsp), %rax
	je	.LBB102_5
	jmp	.LBB102_6
.LBB102_5:
	movq	8(%rsp), %rdi
	movq	16(%rdi), %rsi
.Ltmp120:
	callq	_ZN5alloc7raw_vec19RawVec$LT$T$C$A$GT$16reserve_for_push17h34e21b1c76c6fb2aE
.Ltmp121:
	jmp	.LBB102_9
.LBB102_6:
	movq	8(%rsp), %rax
	movq	16(%rsp), %rsi
	movq	8(%rax), %rcx
	movq	16(%rax), %rdx
	movq	%rsi, (%rcx,%rdx,8)
	movq	16(%rax), %rcx
	addq	$1, %rcx
	movq	%rcx, 16(%rax)
	addq	$56, %rsp
	.cfi_def_cfa_offset 8
	retq
.LBB102_7:
	.cfi_def_cfa_offset 64
	movq	40(%rsp), %rdi
	callq	_Unwind_Resume@PLT
.LBB102_8:
.Ltmp122:
	movq	%rax, %rcx
	movl	%edx, %eax
	movq	%rcx, 40(%rsp)
	movl	%eax, 48(%rsp)
	jmp	.LBB102_7
.LBB102_9:
	jmp	.LBB102_6
.Lfunc_end102:
	.size	_ZN5alloc3vec16Vec$LT$T$C$A$GT$4push17h920a6c3b56eb8a29E, .Lfunc_end102-_ZN5alloc3vec16Vec$LT$T$C$A$GT$4push17h920a6c3b56eb8a29E
	.cfi_endproc
	.section	".gcc_except_table._ZN5alloc3vec16Vec$LT$T$C$A$GT$4push17h920a6c3b56eb8a29E","a",@progbits
	.p2align	2, 0x0
GCC_except_table102:
.Lexception17:
	.byte	255
	.byte	255
	.byte	1
	.uleb128 .Lcst_end17-.Lcst_begin17
.Lcst_begin17:
	.uleb128 .Ltmp120-.Lfunc_begin17
	.uleb128 .Ltmp121-.Ltmp120
	.uleb128 .Ltmp122-.Lfunc_begin17
	.byte	0
	.uleb128 .Ltmp121-.Lfunc_begin17
	.uleb128 .Lfunc_end102-.Ltmp121
	.byte	0
	.byte	0
.Lcst_end17:
	.p2align	2, 0x0

	.section	".text._ZN5alloc3vec16Vec$LT$T$C$A$GT$7reserve17h1efe7bb859c764d8E","ax",@progbits
	.p2align	4, 0x90
	.type	_ZN5alloc3vec16Vec$LT$T$C$A$GT$7reserve17h1efe7bb859c764d8E,@function
_ZN5alloc3vec16Vec$LT$T$C$A$GT$7reserve17h1efe7bb859c764d8E:
	.cfi_startproc
	subq	$40, %rsp
	.cfi_def_cfa_offset 48
	movq	%rdi, 8(%rsp)
	movq	%rsi, 16(%rsp)
	movq	16(%rdi), %rax
	movq	%rax, 24(%rsp)
	xorl	%eax, %eax
	testb	$1, %al
	jne	.LBB103_2
	movq	8(%rsp), %rax
	movq	(%rax), %rax
	movq	%rax, 32(%rsp)
	jmp	.LBB103_3
.LBB103_2:
	movq	$-1, 32(%rsp)
.LBB103_3:
	movq	16(%rsp), %rax
	movq	24(%rsp), %rdx
	movq	32(%rsp), %rcx
	subq	%rdx, %rcx
	cmpq	%rcx, %rax
	ja	.LBB103_5
.LBB103_4:
	addq	$40, %rsp
	.cfi_def_cfa_offset 8
	retq
.LBB103_5:
	.cfi_def_cfa_offset 48
	movq	16(%rsp), %rdx
	movq	24(%rsp), %rsi
	movq	8(%rsp), %rdi
	callq	_ZN5alloc7raw_vec19RawVec$LT$T$C$A$GT$7reserve21do_reserve_and_handle17h151d59bbfc9dbe1aE
	jmp	.LBB103_4
.Lfunc_end103:
	.size	_ZN5alloc3vec16Vec$LT$T$C$A$GT$7reserve17h1efe7bb859c764d8E, .Lfunc_end103-_ZN5alloc3vec16Vec$LT$T$C$A$GT$7reserve17h1efe7bb859c764d8E
	.cfi_endproc

	.section	".text._ZN5alloc3vec16Vec$LT$T$C$A$GT$8is_empty17h3009f07d731c0803E","ax",@progbits
	.p2align	4, 0x90
	.type	_ZN5alloc3vec16Vec$LT$T$C$A$GT$8is_empty17h3009f07d731c0803E,@function
_ZN5alloc3vec16Vec$LT$T$C$A$GT$8is_empty17h3009f07d731c0803E:
	.cfi_startproc
	cmpq	$0, 16(%rdi)
	sete	%al
	andb	$1, %al
	movzbl	%al, %eax
	retq
.Lfunc_end104:
	.size	_ZN5alloc3vec16Vec$LT$T$C$A$GT$8is_empty17h3009f07d731c0803E, .Lfunc_end104-_ZN5alloc3vec16Vec$LT$T$C$A$GT$8is_empty17h3009f07d731c0803E
	.cfi_endproc

	.section	".text._ZN5alloc3vec9into_iter21IntoIter$LT$T$C$A$GT$16as_raw_mut_slice17h866864bf1d167c1fE","ax",@progbits
	.p2align	4, 0x90
	.type	_ZN5alloc3vec9into_iter21IntoIter$LT$T$C$A$GT$16as_raw_mut_slice17h866864bf1d167c1fE,@function
_ZN5alloc3vec9into_iter21IntoIter$LT$T$C$A$GT$16as_raw_mut_slice17h866864bf1d167c1fE:
	.cfi_startproc
	subq	$56, %rsp
	.cfi_def_cfa_offset 64
	movq	%rdi, 16(%rsp)
	movq	16(%rsp), %rdi
	movq	8(%rdi), %rax
	movq	%rax, 8(%rsp)
	callq	_ZN4core4iter6traits10exact_size17ExactSizeIterator3len17hb9582e2de0eb8f1dE
	movq	8(%rsp), %rcx
	movq	%rcx, 40(%rsp)
	movq	%rax, 48(%rsp)
	movq	40(%rsp), %rcx
	movq	48(%rsp), %rax
	movq	%rcx, 24(%rsp)
	movq	%rax, 32(%rsp)
	movq	24(%rsp), %rax
	movq	32(%rsp), %rdx
	addq	$56, %rsp
	.cfi_def_cfa_offset 8
	retq
.Lfunc_end105:
	.size	_ZN5alloc3vec9into_iter21IntoIter$LT$T$C$A$GT$16as_raw_mut_slice17h866864bf1d167c1fE, .Lfunc_end105-_ZN5alloc3vec9into_iter21IntoIter$LT$T$C$A$GT$16as_raw_mut_slice17h866864bf1d167c1fE
	.cfi_endproc

	.section	".text._ZN5alloc3vec9into_iter21IntoIter$LT$T$C$A$GT$16as_raw_mut_slice17ha33b0cf4dcd525e4E","ax",@progbits
	.p2align	4, 0x90
	.type	_ZN5alloc3vec9into_iter21IntoIter$LT$T$C$A$GT$16as_raw_mut_slice17ha33b0cf4dcd525e4E,@function
_ZN5alloc3vec9into_iter21IntoIter$LT$T$C$A$GT$16as_raw_mut_slice17ha33b0cf4dcd525e4E:
	.cfi_startproc
	subq	$56, %rsp
	.cfi_def_cfa_offset 64
	movq	%rdi, 16(%rsp)
	movq	16(%rsp), %rdi
	movq	8(%rdi), %rax
	movq	%rax, 8(%rsp)
	callq	_ZN4core4iter6traits10exact_size17ExactSizeIterator3len17hd38c7e2b07f9a8a2E
	movq	8(%rsp), %rcx
	movq	%rcx, 40(%rsp)
	movq	%rax, 48(%rsp)
	movq	40(%rsp), %rcx
	movq	48(%rsp), %rax
	movq	%rcx, 24(%rsp)
	movq	%rax, 32(%rsp)
	movq	24(%rsp), %rax
	movq	32(%rsp), %rdx
	addq	$56, %rsp
	.cfi_def_cfa_offset 8
	retq
.Lfunc_end106:
	.size	_ZN5alloc3vec9into_iter21IntoIter$LT$T$C$A$GT$16as_raw_mut_slice17ha33b0cf4dcd525e4E, .Lfunc_end106-_ZN5alloc3vec9into_iter21IntoIter$LT$T$C$A$GT$16as_raw_mut_slice17ha33b0cf4dcd525e4E
	.cfi_endproc

	.section	".text._ZN5alloc4sync16Arc$LT$T$C$A$GT$9drop_slow17h7041ddd190c15a17E","ax",@progbits
	.p2align	4, 0x90
	.type	_ZN5alloc4sync16Arc$LT$T$C$A$GT$9drop_slow17h7041ddd190c15a17E,@function
_ZN5alloc4sync16Arc$LT$T$C$A$GT$9drop_slow17h7041ddd190c15a17E:
	.cfi_startproc
	subq	$24, %rsp
	.cfi_def_cfa_offset 32
	movq	%rdi, (%rsp)
	movq	(%rdi), %rdi
	addq	$16, %rdi
	callq	_ZN4core3ptr58drop_in_place$LT$std..sys..pal..unix..fs..InnerReadDir$GT$17h254a8f5792736631E
	movq	(%rsp), %rdi
	movq	(%rdi), %rax
	addq	$8, %rdi
	movq	%rax, 8(%rsp)
	movq	%rdi, 16(%rsp)
	leaq	8(%rsp), %rdi
	callq	_ZN4core3ptr110drop_in_place$LT$alloc..sync..Weak$LT$std..sys..pal..unix..fs..InnerReadDir$C$$RF$alloc..alloc..Global$GT$$GT$17h9d91de5a4ec8c66cE
	addq	$24, %rsp
	.cfi_def_cfa_offset 8
	retq
.Lfunc_end107:
	.size	_ZN5alloc4sync16Arc$LT$T$C$A$GT$9drop_slow17h7041ddd190c15a17E, .Lfunc_end107-_ZN5alloc4sync16Arc$LT$T$C$A$GT$9drop_slow17h7041ddd190c15a17E
	.cfi_endproc

	.section	.text._ZN5alloc5alloc6Global10alloc_impl17h415541d86aeee6ccE,"ax",@progbits
	.p2align	4, 0x90
	.type	_ZN5alloc5alloc6Global10alloc_impl17h415541d86aeee6ccE,@function
_ZN5alloc5alloc6Global10alloc_impl17h415541d86aeee6ccE:
	.cfi_startproc
	subq	$264, %rsp
	.cfi_def_cfa_offset 272
	movb	%cl, %al
	movb	%al, 15(%rsp)
	movq	%rsi, 24(%rsp)
	movq	%rdx, 32(%rsp)
	movq	32(%rsp), %rax
	movq	%rax, 16(%rsp)
	cmpq	$0, %rax
	jne	.LBB108_2
	movq	24(%rsp), %rax
	movq	%rax, 160(%rsp)
	movq	160(%rsp), %rax
	movq	%rax, 72(%rsp)
	movq	%rax, 184(%rsp)
	movq	$0, 192(%rsp)
	movq	184(%rsp), %rcx
	movq	192(%rsp), %rax
	movq	%rcx, 168(%rsp)
	movq	%rax, 176(%rsp)
	movq	168(%rsp), %rcx
	movq	176(%rsp), %rax
	movq	%rcx, 56(%rsp)
	movq	%rax, 64(%rsp)
	movq	56(%rsp), %rcx
	movq	64(%rsp), %rax
	movq	%rcx, 40(%rsp)
	movq	%rax, 48(%rsp)
	jmp	.LBB108_3
.LBB108_2:
	movb	15(%rsp), %al
	testb	$1, %al
	jne	.LBB108_5
	jmp	.LBB108_4
.LBB108_3:
	movq	40(%rsp), %rax
	movq	48(%rsp), %rdx
	addq	$264, %rsp
	.cfi_def_cfa_offset 8
	retq
.LBB108_4:
	.cfi_def_cfa_offset 272
	movq	24(%rsp), %rcx
	movq	32(%rsp), %rax
	movq	%rcx, 104(%rsp)
	movq	%rax, 112(%rsp)
	movq	__rust_no_alloc_shim_is_unstable@GOTPCREL(%rip), %rax
	movb	(%rax), %al
	movb	%al, 263(%rsp)
	movq	112(%rsp), %rdi
	movq	104(%rsp), %rax
	movq	%rax, 208(%rsp)
	movq	208(%rsp), %rsi
	callq	*__rust_alloc@GOTPCREL(%rip)
	movq	%rax, 80(%rsp)
	jmp	.LBB108_6
.LBB108_5:
	movq	24(%rsp), %rcx
	movq	32(%rsp), %rax
	movq	%rcx, 88(%rsp)
	movq	%rax, 96(%rsp)
	movq	96(%rsp), %rdi
	movq	88(%rsp), %rax
	movq	%rax, 200(%rsp)
	movq	200(%rsp), %rsi
	callq	*__rust_alloc_zeroed@GOTPCREL(%rip)
	movq	%rax, 80(%rsp)
.LBB108_6:
	movq	80(%rsp), %rax
	movq	%rax, (%rsp)
	cmpq	$0, %rax
	jne	.LBB108_8
	movq	$0, 136(%rsp)
	jmp	.LBB108_9
.LBB108_8:
	movq	(%rsp), %rax
	movq	%rax, 216(%rsp)
	movq	216(%rsp), %rax
	movq	%rax, 136(%rsp)
.LBB108_9:
	movq	136(%rsp), %rdx
	movl	$1, %eax
	xorl	%ecx, %ecx
	cmpq	$0, %rdx
	cmoveq	%rcx, %rax
	cmpq	$0, %rax
	jne	.LBB108_11
	movq	$0, 128(%rsp)
	jmp	.LBB108_12
.LBB108_11:
	movq	136(%rsp), %rax
	movq	%rax, 128(%rsp)
.LBB108_12:
	movq	128(%rsp), %rdx
	xorl	%eax, %eax
	movl	$1, %ecx
	cmpq	$0, %rdx
	cmoveq	%rcx, %rax
	cmpq	$0, %rax
	jne	.LBB108_14
	movq	128(%rsp), %rax
	movq	%rax, 120(%rsp)
	jmp	.LBB108_15
.LBB108_14:
	movq	$0, 120(%rsp)
.LBB108_15:
	movq	120(%rsp), %rdx
	xorl	%eax, %eax
	movl	$1, %ecx
	cmpq	$0, %rdx
	cmoveq	%rcx, %rax
	cmpq	$0, %rax
	jne	.LBB108_17
	movq	16(%rsp), %rax
	movq	120(%rsp), %rcx
	movq	%rcx, 240(%rsp)
	movq	%rax, 248(%rsp)
	movq	240(%rsp), %rcx
	movq	248(%rsp), %rax
	movq	%rcx, 224(%rsp)
	movq	%rax, 232(%rsp)
	movq	224(%rsp), %rcx
	movq	232(%rsp), %rax
	movq	%rcx, 144(%rsp)
	movq	%rax, 152(%rsp)
	movq	144(%rsp), %rcx
	movq	152(%rsp), %rax
	movq	%rcx, 40(%rsp)
	movq	%rax, 48(%rsp)
	jmp	.LBB108_3
.LBB108_17:
	movq	.L__unnamed_6(%rip), %rcx
	movq	.L__unnamed_6+8(%rip), %rax
	movq	%rcx, 40(%rsp)
	movq	%rax, 48(%rsp)
	jmp	.LBB108_3
.Lfunc_end108:
	.size	_ZN5alloc5alloc6Global10alloc_impl17h415541d86aeee6ccE, .Lfunc_end108-_ZN5alloc5alloc6Global10alloc_impl17h415541d86aeee6ccE
	.cfi_endproc

	.section	.text._ZN5alloc5alloc6Global9grow_impl17h79b82597df49cb67E,"ax",@progbits
	.p2align	4, 0x90
	.type	_ZN5alloc5alloc6Global9grow_impl17h79b82597df49cb67E,@function
_ZN5alloc5alloc6Global9grow_impl17h79b82597df49cb67E:
	.cfi_startproc
	subq	$296, %rsp
	.cfi_def_cfa_offset 304
	movq	%rsi, 56(%rsp)
	movq	%rdi, 64(%rsp)
	movb	304(%rsp), %al
	movb	%al, 79(%rsp)
	movq	%rdx, 80(%rsp)
	movq	%rcx, 88(%rsp)
	movq	%r8, 96(%rsp)
	movq	%r9, 104(%rsp)
	movq	88(%rsp), %rax
	movq	%rax, 128(%rsp)
	cmpq	$0, 128(%rsp)
	jne	.LBB109_2
	movq	64(%rsp), %rdi
	movb	79(%rsp), %al
	movq	96(%rsp), %rsi
	movq	104(%rsp), %rdx
	movzbl	%al, %ecx
	andl	$1, %ecx
	callq	_ZN5alloc5alloc6Global10alloc_impl17h415541d86aeee6ccE
	movq	%rax, 112(%rsp)
	movq	%rdx, 120(%rsp)
	jmp	.LBB109_3
.LBB109_2:
	movq	80(%rsp), %rax
	movq	%rax, 224(%rsp)
	movq	224(%rsp), %rax
	movq	96(%rsp), %rcx
	movq	%rcx, 232(%rsp)
	movq	232(%rsp), %rcx
	cmpq	%rcx, %rax
	je	.LBB109_5
	jmp	.LBB109_4
.LBB109_3:
	jmp	.LBB109_25
.LBB109_4:
	movq	64(%rsp), %rdi
	movb	79(%rsp), %al
	movq	128(%rsp), %rcx
	movq	%rcx, 48(%rsp)
	movq	96(%rsp), %rsi
	movq	104(%rsp), %rdx
	movzbl	%al, %ecx
	andl	$1, %ecx
	callq	_ZN5alloc5alloc6Global10alloc_impl17h415541d86aeee6ccE
	movq	%rax, 208(%rsp)
	movq	%rdx, 216(%rsp)
	movq	208(%rsp), %rdx
	xorl	%eax, %eax
	movl	$1, %ecx
	cmpq	$0, %rdx
	cmoveq	%rcx, %rax
	cmpq	$0, %rax
	je	.LBB109_6
	jmp	.LBB109_7
.LBB109_5:
	movq	56(%rsp), %rdi
	movq	128(%rsp), %rax
	movq	%rax, 24(%rsp)
	movq	104(%rsp), %rcx
	movq	%rcx, 32(%rsp)
	movq	80(%rsp), %rdx
	movq	88(%rsp), %rax
	movq	%rdx, 136(%rsp)
	movq	%rax, 144(%rsp)
	movq	144(%rsp), %rsi
	movq	136(%rsp), %rax
	movq	%rax, 240(%rsp)
	movq	240(%rsp), %rdx
	callq	*__rust_realloc@GOTPCREL(%rip)
	movq	%rax, 40(%rsp)
	cmpq	$0, %rax
	je	.LBB109_12
	jmp	.LBB109_13
.LBB109_6:
	movq	208(%rsp), %rcx
	movq	216(%rsp), %rax
	movq	%rcx, 192(%rsp)
	movq	%rax, 200(%rsp)
	jmp	.LBB109_8
.LBB109_7:
	movq	.L__unnamed_6(%rip), %rcx
	movq	.L__unnamed_6+8(%rip), %rax
	movq	%rcx, 192(%rsp)
	movq	%rax, 200(%rsp)
.LBB109_8:
	movq	192(%rsp), %rdx
	xorl	%eax, %eax
	movl	$1, %ecx
	cmpq	$0, %rdx
	cmoveq	%rcx, %rax
	cmpq	$0, %rax
	jne	.LBB109_10
	movq	56(%rsp), %rsi
	movq	48(%rsp), %rdx
	movq	192(%rsp), %rdi
	movq	%rdi, 8(%rsp)
	movq	200(%rsp), %rax
	movq	%rax, 16(%rsp)
	movq	%rdi, 288(%rsp)
	shlq	$0, %rdx
	callq	memcpy@PLT
	movq	64(%rsp), %rdi
	movq	56(%rsp), %rsi
	movq	80(%rsp), %rdx
	movq	88(%rsp), %rcx
	callq	_ZN63_$LT$alloc..alloc..Global$u20$as$u20$core..alloc..Allocator$GT$10deallocate17hc598934e69f3c12eE
	movq	8(%rsp), %rcx
	movq	16(%rsp), %rax
	movq	%rcx, 112(%rsp)
	movq	%rax, 120(%rsp)
	jmp	.LBB109_3
.LBB109_10:
	movq	.L__unnamed_6(%rip), %rcx
	movq	.L__unnamed_6+8(%rip), %rax
	movq	%rcx, 112(%rsp)
	movq	%rax, 120(%rsp)
.LBB109_11:
	jmp	.LBB109_25
.LBB109_12:
	movq	$0, 168(%rsp)
	jmp	.LBB109_14
.LBB109_13:
	movq	40(%rsp), %rax
	movq	%rax, 248(%rsp)
	movq	248(%rsp), %rax
	movq	%rax, 168(%rsp)
.LBB109_14:
	movq	168(%rsp), %rdx
	movl	$1, %eax
	xorl	%ecx, %ecx
	cmpq	$0, %rdx
	cmoveq	%rcx, %rax
	cmpq	$0, %rax
	jne	.LBB109_16
	movq	$0, 160(%rsp)
	jmp	.LBB109_17
.LBB109_16:
	movq	168(%rsp), %rax
	movq	%rax, 160(%rsp)
.LBB109_17:
	movq	160(%rsp), %rdx
	xorl	%eax, %eax
	movl	$1, %ecx
	cmpq	$0, %rdx
	cmoveq	%rcx, %rax
	cmpq	$0, %rax
	jne	.LBB109_19
	movq	160(%rsp), %rax
	movq	%rax, 152(%rsp)
	jmp	.LBB109_20
.LBB109_19:
	movq	$0, 152(%rsp)
.LBB109_20:
	movq	152(%rsp), %rdx
	xorl	%eax, %eax
	movl	$1, %ecx
	cmpq	$0, %rdx
	cmoveq	%rcx, %rax
	cmpq	$0, %rax
	jne	.LBB109_22
	movb	79(%rsp), %al
	movq	152(%rsp), %rcx
	movq	%rcx, (%rsp)
	testb	$1, %al
	jne	.LBB109_24
	jmp	.LBB109_23
.LBB109_22:
	movq	.L__unnamed_6(%rip), %rcx
	movq	.L__unnamed_6+8(%rip), %rax
	movq	%rcx, 112(%rsp)
	movq	%rax, 120(%rsp)
	jmp	.LBB109_11
.LBB109_23:
	movq	32(%rsp), %rax
	movq	(%rsp), %rcx
	movq	%rcx, 272(%rsp)
	movq	%rax, 280(%rsp)
	movq	272(%rsp), %rcx
	movq	280(%rsp), %rax
	movq	%rcx, 256(%rsp)
	movq	%rax, 264(%rsp)
	movq	256(%rsp), %rcx
	movq	264(%rsp), %rax
	movq	%rcx, 176(%rsp)
	movq	%rax, 184(%rsp)
	movq	176(%rsp), %rcx
	movq	184(%rsp), %rax
	movq	%rcx, 112(%rsp)
	movq	%rax, 120(%rsp)
	jmp	.LBB109_3
.LBB109_24:
	movq	24(%rsp), %rax
	movq	32(%rsp), %rdx
	movq	40(%rsp), %rdi
	addq	%rax, %rdi
	subq	%rax, %rdx
	shlq	$0, %rdx
	xorl	%esi, %esi
	callq	memset@PLT
	jmp	.LBB109_23
.LBB109_25:
	movq	112(%rsp), %rax
	movq	120(%rsp), %rdx
	addq	$296, %rsp
	.cfi_def_cfa_offset 8
	retq
.Lfunc_end109:
	.size	_ZN5alloc5alloc6Global9grow_impl17h79b82597df49cb67E, .Lfunc_end109-_ZN5alloc5alloc6Global9grow_impl17h79b82597df49cb67E
	.cfi_endproc

	.section	".text._ZN5alloc6borrow12Cow$LT$B$GT$10into_owned17h4af22a44eaac6542E","ax",@progbits
	.p2align	4, 0x90
	.type	_ZN5alloc6borrow12Cow$LT$B$GT$10into_owned17h4af22a44eaac6542E,@function
_ZN5alloc6borrow12Cow$LT$B$GT$10into_owned17h4af22a44eaac6542E:
	.cfi_startproc
	subq	$56, %rsp
	.cfi_def_cfa_offset 64
	movq	%rsi, 8(%rsp)
	movq	%rdi, 16(%rsp)
	movq	%rdi, 24(%rsp)
	movabsq	$-9223372036854775808, %rdx
	movl	$1, %eax
	xorl	%ecx, %ecx
	cmpq	%rdx, (%rsi)
	cmoveq	%rcx, %rax
	cmpq	$0, %rax
	jne	.LBB110_2
	movq	16(%rsp), %rdi
	movq	8(%rsp), %rax
	movq	8(%rax), %rsi
	movq	16(%rax), %rdx
	callq	_ZN5alloc3str56_$LT$impl$u20$alloc..borrow..ToOwned$u20$for$u20$str$GT$8to_owned17h6f45098aff51a8edE
	jmp	.LBB110_3
.LBB110_2:
	movq	16(%rsp), %rax
	movq	8(%rsp), %rcx
	movq	(%rcx), %rdx
	movq	%rdx, 32(%rsp)
	movq	8(%rcx), %rdx
	movq	%rdx, 40(%rsp)
	movq	16(%rcx), %rcx
	movq	%rcx, 48(%rsp)
	movq	32(%rsp), %rcx
	movq	%rcx, (%rax)
	movq	40(%rsp), %rcx
	movq	%rcx, 8(%rax)
	movq	48(%rsp), %rcx
	movq	%rcx, 16(%rax)
.LBB110_3:
	movq	24(%rsp), %rax
	addq	$56, %rsp
	.cfi_def_cfa_offset 8
	retq
.Lfunc_end110:
	.size	_ZN5alloc6borrow12Cow$LT$B$GT$10into_owned17h4af22a44eaac6542E, .Lfunc_end110-_ZN5alloc6borrow12Cow$LT$B$GT$10into_owned17h4af22a44eaac6542E
	.cfi_endproc

	.section	.text._ZN5alloc6string6String6as_str17h0c428069123443c5E,"ax",@progbits
	.p2align	4, 0x90
	.type	_ZN5alloc6string6String6as_str17h0c428069123443c5E,@function
_ZN5alloc6string6String6as_str17h0c428069123443c5E:
	.cfi_startproc
	movq	8(%rdi), %rcx
	movq	16(%rdi), %rax
	movq	%rcx, -16(%rsp)
	movq	%rax, -8(%rsp)
	movq	-16(%rsp), %rcx
	movq	-8(%rsp), %rax
	movq	%rcx, -32(%rsp)
	movq	%rax, -24(%rsp)
	movq	-32(%rsp), %rax
	movq	-24(%rsp), %rdx
	retq
.Lfunc_end111:
	.size	_ZN5alloc6string6String6as_str17h0c428069123443c5E, .Lfunc_end111-_ZN5alloc6string6String6as_str17h0c428069123443c5E
	.cfi_endproc

	.section	.text._ZN5alloc7raw_vec11finish_grow17h8b4ca564bdd04294E,"ax",@progbits
	.p2align	4, 0x90
	.type	_ZN5alloc7raw_vec11finish_grow17h8b4ca564bdd04294E,@function
_ZN5alloc7raw_vec11finish_grow17h8b4ca564bdd04294E:
	.cfi_startproc
	subq	$232, %rsp
	.cfi_def_cfa_offset 240
	movq	%r8, (%rsp)
	movq	%rcx, 8(%rsp)
	movq	%rdi, 16(%rsp)
	movq	%rdi, 24(%rsp)
	leaq	72(%rsp), %rdi
	callq	_ZN4core6result19Result$LT$T$C$E$GT$7map_err17ha35d5b3b04a95588E
	cmpq	$0, 72(%rsp)
	jne	.LBB112_2
	movq	80(%rsp), %rcx
	movq	88(%rsp), %rax
	movq	%rcx, 56(%rsp)
	movq	%rax, 64(%rsp)
	movq	$0, 48(%rsp)
	jmp	.LBB112_3
.LBB112_2:
	movq	80(%rsp), %rcx
	movq	88(%rsp), %rax
	movq	%rcx, 184(%rsp)
	movq	%rax, 192(%rsp)
	movq	184(%rsp), %rcx
	movq	192(%rsp), %rax
	movq	%rcx, 56(%rsp)
	movq	%rax, 64(%rsp)
	movq	$1, 48(%rsp)
.LBB112_3:
	cmpq	$0, 48(%rsp)
	jne	.LBB112_5
	movq	56(%rsp), %rcx
	movq	64(%rsp), %rax
	movq	%rcx, 32(%rsp)
	movq	%rax, 40(%rsp)
	movq	.L__unnamed_17(%rip), %rcx
	movq	.L__unnamed_17+8(%rip), %rax
	movq	%rcx, 112(%rsp)
	movq	%rax, 120(%rsp)
	movabsq	$-9223372036854775807, %rdx
	movl	$1, %eax
	xorl	%ecx, %ecx
	cmpq	%rdx, 112(%rsp)
	cmoveq	%rcx, %rax
	cmpq	$0, %rax
	je	.LBB112_6
	jmp	.LBB112_7
.LBB112_5:
	movq	16(%rsp), %rax
	movq	56(%rsp), %rdx
	movq	64(%rsp), %rcx
	movq	%rdx, 96(%rsp)
	movq	%rcx, 104(%rsp)
	movq	96(%rsp), %rdx
	movq	104(%rsp), %rcx
	movq	%rdx, 200(%rsp)
	movq	%rcx, 208(%rsp)
	movq	200(%rsp), %rdx
	movq	208(%rsp), %rcx
	movq	%rdx, 8(%rax)
	movq	%rcx, 16(%rax)
	movq	$1, (%rax)
	jmp	.LBB112_12
.LBB112_6:
	movq	8(%rsp), %rdx
	movl	$1, %eax
	xorl	%ecx, %ecx
	cmpq	$0, 8(%rdx)
	cmoveq	%rcx, %rax
	cmpq	$1, %rax
	je	.LBB112_8
	jmp	.LBB112_9
.LBB112_7:
	movq	16(%rsp), %rax
	movq	112(%rsp), %rdx
	movq	120(%rsp), %rcx
	movq	%rdx, 128(%rsp)
	movq	%rcx, 136(%rsp)
	movq	128(%rsp), %rdx
	movq	136(%rsp), %rcx
	movq	%rdx, 8(%rax)
	movq	%rcx, 16(%rax)
	movq	$1, (%rax)
	jmp	.LBB112_12
.LBB112_8:
	movq	(%rsp), %rdi
	movq	8(%rsp), %rax
	movq	(%rax), %rsi
	movq	8(%rax), %rcx
	movq	16(%rax), %rax
	movq	%rcx, 160(%rsp)
	movq	%rax, 168(%rsp)
	movq	160(%rsp), %rax
	movq	%rax, 216(%rsp)
	movq	32(%rsp), %rax
	movq	%rax, 224(%rsp)
	movq	160(%rsp), %rdx
	movq	168(%rsp), %rcx
	movq	32(%rsp), %r8
	movq	40(%rsp), %r9
	callq	_ZN63_$LT$alloc..alloc..Global$u20$as$u20$core..alloc..Allocator$GT$4grow17hc5ba7150908e19afE
	movq	%rax, 144(%rsp)
	movq	%rdx, 152(%rsp)
	jmp	.LBB112_10
.LBB112_9:
	movq	(%rsp), %rdi
	movq	32(%rsp), %rsi
	movq	40(%rsp), %rdx
	callq	_ZN63_$LT$alloc..alloc..Global$u20$as$u20$core..alloc..Allocator$GT$8allocate17h0cf3a9a67b3e637bE
	movq	%rax, 144(%rsp)
	movq	%rdx, 152(%rsp)
.LBB112_10:
	movq	16(%rsp), %rdi
	movq	144(%rsp), %rsi
	movq	152(%rsp), %rdx
	leaq	32(%rsp), %rax
	movq	%rax, 176(%rsp)
	movq	176(%rsp), %rcx
	callq	_ZN4core6result19Result$LT$T$C$E$GT$7map_err17h40bddc94a83c752cE
.LBB112_11:
	movq	24(%rsp), %rax
	addq	$232, %rsp
	.cfi_def_cfa_offset 8
	retq
.LBB112_12:
	.cfi_def_cfa_offset 240
	jmp	.LBB112_11
.Lfunc_end112:
	.size	_ZN5alloc7raw_vec11finish_grow17h8b4ca564bdd04294E, .Lfunc_end112-_ZN5alloc7raw_vec11finish_grow17h8b4ca564bdd04294E
	.cfi_endproc

	.section	".text._ZN5alloc7raw_vec11finish_grow28_$u7b$$u7b$closure$u7d$$u7d$17h56b2a347c8217964E","ax",@progbits
	.p2align	4, 0x90
	.type	_ZN5alloc7raw_vec11finish_grow28_$u7b$$u7b$closure$u7d$$u7d$17h56b2a347c8217964E,@function
_ZN5alloc7raw_vec11finish_grow28_$u7b$$u7b$closure$u7d$$u7d$17h56b2a347c8217964E:
	.cfi_startproc
	movq	.L__unnamed_6(%rip), %rax
	movq	.L__unnamed_6+8(%rip), %rdx
	retq
.Lfunc_end113:
	.size	_ZN5alloc7raw_vec11finish_grow28_$u7b$$u7b$closure$u7d$$u7d$17h56b2a347c8217964E, .Lfunc_end113-_ZN5alloc7raw_vec11finish_grow28_$u7b$$u7b$closure$u7d$$u7d$17h56b2a347c8217964E
	.cfi_endproc

	.section	".text._ZN5alloc7raw_vec11finish_grow28_$u7b$$u7b$closure$u7d$$u7d$17h9efc6a6e4107285cE","ax",@progbits
	.p2align	4, 0x90
	.type	_ZN5alloc7raw_vec11finish_grow28_$u7b$$u7b$closure$u7d$$u7d$17h9efc6a6e4107285cE,@function
_ZN5alloc7raw_vec11finish_grow28_$u7b$$u7b$closure$u7d$$u7d$17h9efc6a6e4107285cE:
	.cfi_startproc
	movq	(%rdi), %rcx
	movq	8(%rdi), %rax
	movq	%rcx, -16(%rsp)
	movq	%rax, -8(%rsp)
	movq	-16(%rsp), %rcx
	movq	-8(%rsp), %rax
	movq	%rcx, -32(%rsp)
	movq	%rax, -24(%rsp)
	movq	-32(%rsp), %rax
	movq	-24(%rsp), %rdx
	retq
.Lfunc_end114:
	.size	_ZN5alloc7raw_vec11finish_grow28_$u7b$$u7b$closure$u7d$$u7d$17h9efc6a6e4107285cE, .Lfunc_end114-_ZN5alloc7raw_vec11finish_grow28_$u7b$$u7b$closure$u7d$$u7d$17h9efc6a6e4107285cE
	.cfi_endproc

	.section	.text._ZN5alloc7raw_vec14handle_reserve17h77721d921ea1e2fcE,"ax",@progbits
	.p2align	4, 0x90
	.type	_ZN5alloc7raw_vec14handle_reserve17h77721d921ea1e2fcE,@function
_ZN5alloc7raw_vec14handle_reserve17h77721d921ea1e2fcE:
	.cfi_startproc
	subq	$24, %rsp
	.cfi_def_cfa_offset 32
	callq	_ZN4core6result19Result$LT$T$C$E$GT$7map_err17h762666d182c442d8E
	movq	%rax, 8(%rsp)
	movq	%rdx, 16(%rsp)
	movabsq	$-9223372036854775807, %rdx
	movl	$1, %eax
	xorl	%ecx, %ecx
	cmpq	%rdx, 8(%rsp)
	cmoveq	%rcx, %rax
	cmpq	$0, %rax
	jne	.LBB115_2
	addq	$24, %rsp
	.cfi_def_cfa_offset 8
	retq
.LBB115_2:
	.cfi_def_cfa_offset 32
	movl	$1, %eax
	xorl	%ecx, %ecx
	cmpq	$0, 8(%rsp)
	cmoveq	%rcx, %rax
	cmpq	$0, %rax
	jne	.LBB115_4
	movq	_ZN5alloc7raw_vec17capacity_overflow17h2434c0983b86c347E@GOTPCREL(%rip), %rax
	callq	*%rax
.LBB115_4:
	movq	8(%rsp), %rdi
	movq	16(%rsp), %rsi
	movq	_ZN5alloc5alloc18handle_alloc_error17h836e982fea7018bdE@GOTPCREL(%rip), %rax
	callq	*%rax
.Lfunc_end115:
	.size	_ZN5alloc7raw_vec14handle_reserve17h77721d921ea1e2fcE, .Lfunc_end115-_ZN5alloc7raw_vec14handle_reserve17h77721d921ea1e2fcE
	.cfi_endproc

	.section	".text._ZN5alloc7raw_vec14handle_reserve28_$u7b$$u7b$closure$u7d$$u7d$17hbb8a3905a70e080dE","ax",@progbits
	.p2align	4, 0x90
	.type	_ZN5alloc7raw_vec14handle_reserve28_$u7b$$u7b$closure$u7d$$u7d$17hbb8a3905a70e080dE,@function
_ZN5alloc7raw_vec14handle_reserve28_$u7b$$u7b$closure$u7d$$u7d$17hbb8a3905a70e080dE:
	.cfi_startproc
	movq	%rdi, -32(%rsp)
	movq	%rsi, -24(%rsp)
	movl	$1, %eax
	xorl	%ecx, %ecx
	cmpq	$0, -32(%rsp)
	cmoveq	%rcx, %rax
	cmpq	$0, %rax
	jne	.LBB116_2
	movq	.L__unnamed_6(%rip), %rcx
	movq	.L__unnamed_6+8(%rip), %rax
	movq	%rcx, -16(%rsp)
	movq	%rax, -8(%rsp)
	jmp	.LBB116_3
.LBB116_2:
	movq	-32(%rsp), %rcx
	movq	-24(%rsp), %rax
	movq	%rcx, -16(%rsp)
	movq	%rax, -8(%rsp)
.LBB116_3:
	movq	-16(%rsp), %rax
	movq	-8(%rsp), %rdx
	retq
.Lfunc_end116:
	.size	_ZN5alloc7raw_vec14handle_reserve28_$u7b$$u7b$closure$u7d$$u7d$17hbb8a3905a70e080dE, .Lfunc_end116-_ZN5alloc7raw_vec14handle_reserve28_$u7b$$u7b$closure$u7d$$u7d$17hbb8a3905a70e080dE
	.cfi_endproc

	.section	".text._ZN5alloc7raw_vec19RawVec$LT$T$C$A$GT$11allocate_in17h6041a146d89fbbefE","ax",@progbits
	.p2align	4, 0x90
	.type	_ZN5alloc7raw_vec19RawVec$LT$T$C$A$GT$11allocate_in17h6041a146d89fbbefE,@function
_ZN5alloc7raw_vec19RawVec$LT$T$C$A$GT$11allocate_in17h6041a146d89fbbefE:
.Lfunc_begin18:
	.cfi_startproc
	.cfi_personality 155, DW.ref.rust_eh_personality
	.cfi_lsda 27, .Lexception18
	subq	$200, %rsp
	.cfi_def_cfa_offset 208
	movq	%rdi, 56(%rsp)
	movb	%sil, %al
	andb	$1, %al
	movb	%al, 70(%rsp)
	xorl	%eax, %eax
	testb	$1, %al
	jne	.LBB117_2
	movq	56(%rsp), %rax
	cmpq	$0, %rax
	jne	.LBB117_3
.LBB117_2:
	movl	$1, %eax
	movq	%rax, 168(%rsp)
	movq	168(%rsp), %rax
	movq	%rax, 160(%rsp)
	movq	160(%rsp), %rax
	movq	%rax, 80(%rsp)
	movq	$0, 72(%rsp)
	jmp	.LBB117_16
.LBB117_3:
.Ltmp123:
	movq	56(%rsp), %rdx
	movl	$1, %esi
	movq	%rsi, %rdi
	callq	_ZN4core5alloc6layout6Layout5array5inner17hef423d46b29a4009E
.Ltmp124:
	movq	%rdx, 40(%rsp)
	movq	%rax, 48(%rsp)
	jmp	.LBB117_6
.LBB117_4:
	movq	184(%rsp), %rdi
	callq	_Unwind_Resume@PLT
.LBB117_5:
.Ltmp133:
	movq	%rax, %rcx
	movl	%edx, %eax
	movq	%rcx, 184(%rsp)
	movl	%eax, 192(%rsp)
	jmp	.LBB117_4
.LBB117_6:
	movq	40(%rsp), %rax
	movq	48(%rsp), %rcx
	movq	%rcx, 104(%rsp)
	movq	%rax, 112(%rsp)
	xorl	%eax, %eax
	movl	$1, %ecx
	cmpq	$0, 104(%rsp)
	cmoveq	%rcx, %rax
	cmpq	$0, %rax
	jne	.LBB117_8
	movq	104(%rsp), %rcx
	movq	112(%rsp), %rax
	movq	%rcx, 88(%rsp)
	movq	%rax, 96(%rsp)
	movb	70(%rsp), %al
	andb	$1, %al
	movzbl	%al, %eax
	cmpq	$0, %rax
	je	.LBB117_9
	jmp	.LBB117_10
.LBB117_8:
.Ltmp125:
	movq	_ZN5alloc7raw_vec17capacity_overflow17h2434c0983b86c347E@GOTPCREL(%rip), %rax
	callq	*%rax
.Ltmp126:
	jmp	.LBB117_17
.LBB117_9:
	movq	88(%rsp), %rsi
	movq	96(%rsp), %rdx
.Ltmp129:
	leaq	71(%rsp), %rdi
	callq	_ZN63_$LT$alloc..alloc..Global$u20$as$u20$core..alloc..Allocator$GT$8allocate17h0cf3a9a67b3e637bE
.Ltmp130:
	movq	%rdx, 24(%rsp)
	movq	%rax, 32(%rsp)
	jmp	.LBB117_11
.LBB117_10:
	movq	88(%rsp), %rsi
	movq	96(%rsp), %rdx
.Ltmp127:
	leaq	71(%rsp), %rdi
	callq	_ZN63_$LT$alloc..alloc..Global$u20$as$u20$core..alloc..Allocator$GT$15allocate_zeroed17hcf37f5e7e3854c9fE
.Ltmp128:
	movq	%rdx, 8(%rsp)
	movq	%rax, 16(%rsp)
	jmp	.LBB117_13
.LBB117_11:
	movq	24(%rsp), %rax
	movq	32(%rsp), %rcx
	movq	%rcx, 120(%rsp)
	movq	%rax, 128(%rsp)
.LBB117_12:
	movq	120(%rsp), %rdx
	xorl	%eax, %eax
	movl	$1, %ecx
	cmpq	$0, %rdx
	cmoveq	%rcx, %rax
	cmpq	$0, %rax
	je	.LBB117_14
	jmp	.LBB117_15
.LBB117_13:
	movq	8(%rsp), %rax
	movq	16(%rsp), %rcx
	movq	%rcx, 120(%rsp)
	movq	%rax, 128(%rsp)
	jmp	.LBB117_12
.LBB117_14:
	movq	56(%rsp), %rax
	movq	120(%rsp), %rcx
	movq	%rcx, 144(%rsp)
	movq	%rcx, 176(%rsp)
	movq	176(%rsp), %rcx
	movq	%rcx, 136(%rsp)
	movq	%rax, 152(%rsp)
	movq	136(%rsp), %rax
	movq	%rax, 80(%rsp)
	movq	152(%rsp), %rax
	movq	%rax, 72(%rsp)
	jmp	.LBB117_16
.LBB117_15:
	movq	88(%rsp), %rdi
	movq	96(%rsp), %rsi
.Ltmp131:
	movq	_ZN5alloc5alloc18handle_alloc_error17h836e982fea7018bdE@GOTPCREL(%rip), %rax
	callq	*%rax
.Ltmp132:
	jmp	.LBB117_17
.LBB117_16:
	movq	72(%rsp), %rax
	movq	80(%rsp), %rdx
	addq	$200, %rsp
	.cfi_def_cfa_offset 8
	retq
.LBB117_17:
	.cfi_def_cfa_offset 208
	ud2
.Lfunc_end117:
	.size	_ZN5alloc7raw_vec19RawVec$LT$T$C$A$GT$11allocate_in17h6041a146d89fbbefE, .Lfunc_end117-_ZN5alloc7raw_vec19RawVec$LT$T$C$A$GT$11allocate_in17h6041a146d89fbbefE
	.cfi_endproc
	.section	".gcc_except_table._ZN5alloc7raw_vec19RawVec$LT$T$C$A$GT$11allocate_in17h6041a146d89fbbefE","a",@progbits
	.p2align	2, 0x0
GCC_except_table117:
.Lexception18:
	.byte	255
	.byte	255
	.byte	1
	.uleb128 .Lcst_end18-.Lcst_begin18
.Lcst_begin18:
	.uleb128 .Ltmp123-.Lfunc_begin18
	.uleb128 .Ltmp124-.Ltmp123
	.uleb128 .Ltmp133-.Lfunc_begin18
	.byte	0
	.uleb128 .Ltmp124-.Lfunc_begin18
	.uleb128 .Ltmp125-.Ltmp124
	.byte	0
	.byte	0
	.uleb128 .Ltmp125-.Lfunc_begin18
	.uleb128 .Ltmp132-.Ltmp125
	.uleb128 .Ltmp133-.Lfunc_begin18
	.byte	0
.Lcst_end18:
	.p2align	2, 0x0

	.section	".text._ZN5alloc7raw_vec19RawVec$LT$T$C$A$GT$11allocate_in17h6cbe057f212db8afE","ax",@progbits
	.p2align	4, 0x90
	.type	_ZN5alloc7raw_vec19RawVec$LT$T$C$A$GT$11allocate_in17h6cbe057f212db8afE,@function
_ZN5alloc7raw_vec19RawVec$LT$T$C$A$GT$11allocate_in17h6cbe057f212db8afE:
.Lfunc_begin19:
	.cfi_startproc
	.cfi_personality 155, DW.ref.rust_eh_personality
	.cfi_lsda 27, .Lexception19
	subq	$200, %rsp
	.cfi_def_cfa_offset 208
	movq	%rdi, 56(%rsp)
	movb	%sil, %al
	andb	$1, %al
	movb	%al, 70(%rsp)
	xorl	%eax, %eax
	testb	$1, %al
	jne	.LBB118_2
	movq	56(%rsp), %rax
	cmpq	$0, %rax
	jne	.LBB118_3
.LBB118_2:
	movl	$8, %eax
	movq	%rax, 168(%rsp)
	movq	168(%rsp), %rax
	movq	%rax, 160(%rsp)
	movq	160(%rsp), %rax
	movq	%rax, 80(%rsp)
	movq	$0, 72(%rsp)
	jmp	.LBB118_16
.LBB118_3:
.Ltmp134:
	movq	56(%rsp), %rdx
	movl	$24, %edi
	movl	$8, %esi
	callq	_ZN4core5alloc6layout6Layout5array5inner17hef423d46b29a4009E
.Ltmp135:
	movq	%rdx, 40(%rsp)
	movq	%rax, 48(%rsp)
	jmp	.LBB118_6
.LBB118_4:
	movq	184(%rsp), %rdi
	callq	_Unwind_Resume@PLT
.LBB118_5:
.Ltmp144:
	movq	%rax, %rcx
	movl	%edx, %eax
	movq	%rcx, 184(%rsp)
	movl	%eax, 192(%rsp)
	jmp	.LBB118_4
.LBB118_6:
	movq	40(%rsp), %rax
	movq	48(%rsp), %rcx
	movq	%rcx, 104(%rsp)
	movq	%rax, 112(%rsp)
	xorl	%eax, %eax
	movl	$1, %ecx
	cmpq	$0, 104(%rsp)
	cmoveq	%rcx, %rax
	cmpq	$0, %rax
	jne	.LBB118_8
	movq	104(%rsp), %rcx
	movq	112(%rsp), %rax
	movq	%rcx, 88(%rsp)
	movq	%rax, 96(%rsp)
	movb	70(%rsp), %al
	andb	$1, %al
	movzbl	%al, %eax
	cmpq	$0, %rax
	je	.LBB118_9
	jmp	.LBB118_10
.LBB118_8:
.Ltmp136:
	movq	_ZN5alloc7raw_vec17capacity_overflow17h2434c0983b86c347E@GOTPCREL(%rip), %rax
	callq	*%rax
.Ltmp137:
	jmp	.LBB118_17
.LBB118_9:
	movq	88(%rsp), %rsi
	movq	96(%rsp), %rdx
.Ltmp140:
	leaq	71(%rsp), %rdi
	callq	_ZN63_$LT$alloc..alloc..Global$u20$as$u20$core..alloc..Allocator$GT$8allocate17h0cf3a9a67b3e637bE
.Ltmp141:
	movq	%rdx, 24(%rsp)
	movq	%rax, 32(%rsp)
	jmp	.LBB118_11
.LBB118_10:
	movq	88(%rsp), %rsi
	movq	96(%rsp), %rdx
.Ltmp138:
	leaq	71(%rsp), %rdi
	callq	_ZN63_$LT$alloc..alloc..Global$u20$as$u20$core..alloc..Allocator$GT$15allocate_zeroed17hcf37f5e7e3854c9fE
.Ltmp139:
	movq	%rdx, 8(%rsp)
	movq	%rax, 16(%rsp)
	jmp	.LBB118_13
.LBB118_11:
	movq	24(%rsp), %rax
	movq	32(%rsp), %rcx
	movq	%rcx, 120(%rsp)
	movq	%rax, 128(%rsp)
.LBB118_12:
	movq	120(%rsp), %rdx
	xorl	%eax, %eax
	movl	$1, %ecx
	cmpq	$0, %rdx
	cmoveq	%rcx, %rax
	cmpq	$0, %rax
	je	.LBB118_14
	jmp	.LBB118_15
.LBB118_13:
	movq	8(%rsp), %rax
	movq	16(%rsp), %rcx
	movq	%rcx, 120(%rsp)
	movq	%rax, 128(%rsp)
	jmp	.LBB118_12
.LBB118_14:
	movq	56(%rsp), %rax
	movq	120(%rsp), %rcx
	movq	%rcx, 144(%rsp)
	movq	%rcx, 176(%rsp)
	movq	176(%rsp), %rcx
	movq	%rcx, 136(%rsp)
	movq	%rax, 152(%rsp)
	movq	136(%rsp), %rax
	movq	%rax, 80(%rsp)
	movq	152(%rsp), %rax
	movq	%rax, 72(%rsp)
	jmp	.LBB118_16
.LBB118_15:
	movq	88(%rsp), %rdi
	movq	96(%rsp), %rsi
.Ltmp142:
	movq	_ZN5alloc5alloc18handle_alloc_error17h836e982fea7018bdE@GOTPCREL(%rip), %rax
	callq	*%rax
.Ltmp143:
	jmp	.LBB118_17
.LBB118_16:
	movq	72(%rsp), %rax
	movq	80(%rsp), %rdx
	addq	$200, %rsp
	.cfi_def_cfa_offset 8
	retq
.LBB118_17:
	.cfi_def_cfa_offset 208
	ud2
.Lfunc_end118:
	.size	_ZN5alloc7raw_vec19RawVec$LT$T$C$A$GT$11allocate_in17h6cbe057f212db8afE, .Lfunc_end118-_ZN5alloc7raw_vec19RawVec$LT$T$C$A$GT$11allocate_in17h6cbe057f212db8afE
	.cfi_endproc
	.section	".gcc_except_table._ZN5alloc7raw_vec19RawVec$LT$T$C$A$GT$11allocate_in17h6cbe057f212db8afE","a",@progbits
	.p2align	2, 0x0
GCC_except_table118:
.Lexception19:
	.byte	255
	.byte	255
	.byte	1
	.uleb128 .Lcst_end19-.Lcst_begin19
.Lcst_begin19:
	.uleb128 .Ltmp134-.Lfunc_begin19
	.uleb128 .Ltmp135-.Ltmp134
	.uleb128 .Ltmp144-.Lfunc_begin19
	.byte	0
	.uleb128 .Ltmp135-.Lfunc_begin19
	.uleb128 .Ltmp136-.Ltmp135
	.byte	0
	.byte	0
	.uleb128 .Ltmp136-.Lfunc_begin19
	.uleb128 .Ltmp143-.Ltmp136
	.uleb128 .Ltmp144-.Lfunc_begin19
	.byte	0
.Lcst_end19:
	.p2align	2, 0x0

	.section	".text._ZN5alloc7raw_vec19RawVec$LT$T$C$A$GT$14current_memory17h302a4d095a93c864E","ax",@progbits
	.p2align	4, 0x90
	.type	_ZN5alloc7raw_vec19RawVec$LT$T$C$A$GT$14current_memory17h302a4d095a93c864E,@function
_ZN5alloc7raw_vec19RawVec$LT$T$C$A$GT$14current_memory17h302a4d095a93c864E:
	.cfi_startproc
	movq	%rsi, -88(%rsp)
	movq	%rdi, -80(%rsp)
	movq	%rdi, -72(%rsp)
	xorl	%eax, %eax
	testb	$1, %al
	jne	.LBB119_2
	movq	-88(%rsp), %rax
	cmpq	$0, (%rax)
	jne	.LBB119_3
.LBB119_2:
	movq	-80(%rsp), %rax
	movq	$0, 8(%rax)
	jmp	.LBB119_4
.LBB119_3:
	movq	-80(%rsp), %rax
	movq	-88(%rsp), %rcx
	movq	(%rcx), %rdx
	shlq	$0, %rdx
	movq	%rdx, -56(%rsp)
	movq	$1, -64(%rsp)
	movq	8(%rcx), %rcx
	movq	%rcx, -16(%rsp)
	movq	%rcx, -8(%rsp)
	movq	%rcx, -24(%rsp)
	movq	-24(%rsp), %rcx
	movq	%rcx, -48(%rsp)
	movq	-64(%rsp), %rdx
	movq	-56(%rsp), %rcx
	movq	%rdx, -40(%rsp)
	movq	%rcx, -32(%rsp)
	movq	-48(%rsp), %rcx
	movq	%rcx, (%rax)
	movq	-40(%rsp), %rcx
	movq	%rcx, 8(%rax)
	movq	-32(%rsp), %rcx
	movq	%rcx, 16(%rax)
.LBB119_4:
	movq	-72(%rsp), %rax
	retq
.Lfunc_end119:
	.size	_ZN5alloc7raw_vec19RawVec$LT$T$C$A$GT$14current_memory17h302a4d095a93c864E, .Lfunc_end119-_ZN5alloc7raw_vec19RawVec$LT$T$C$A$GT$14current_memory17h302a4d095a93c864E
	.cfi_endproc

	.section	".text._ZN5alloc7raw_vec19RawVec$LT$T$C$A$GT$14current_memory17h5806cad7b96aaa6aE","ax",@progbits
	.p2align	4, 0x90
	.type	_ZN5alloc7raw_vec19RawVec$LT$T$C$A$GT$14current_memory17h5806cad7b96aaa6aE,@function
_ZN5alloc7raw_vec19RawVec$LT$T$C$A$GT$14current_memory17h5806cad7b96aaa6aE:
	.cfi_startproc
	movq	%rsi, -88(%rsp)
	movq	%rdi, -80(%rsp)
	movq	%rdi, -72(%rsp)
	xorl	%eax, %eax
	testb	$1, %al
	jne	.LBB120_2
	movq	-88(%rsp), %rax
	cmpq	$0, (%rax)
	jne	.LBB120_3
.LBB120_2:
	movq	-80(%rsp), %rax
	movq	$0, 8(%rax)
	jmp	.LBB120_4
.LBB120_3:
	movq	-80(%rsp), %rax
	movq	-88(%rsp), %rcx
	imulq	$24, (%rcx), %rdx
	movq	%rdx, -56(%rsp)
	movq	$8, -64(%rsp)
	movq	8(%rcx), %rcx
	movq	%rcx, -16(%rsp)
	movq	%rcx, -8(%rsp)
	movq	%rcx, -24(%rsp)
	movq	-24(%rsp), %rcx
	movq	%rcx, -48(%rsp)
	movq	-64(%rsp), %rdx
	movq	-56(%rsp), %rcx
	movq	%rdx, -40(%rsp)
	movq	%rcx, -32(%rsp)
	movq	-48(%rsp), %rcx
	movq	%rcx, (%rax)
	movq	-40(%rsp), %rcx
	movq	%rcx, 8(%rax)
	movq	-32(%rsp), %rcx
	movq	%rcx, 16(%rax)
.LBB120_4:
	movq	-72(%rsp), %rax
	retq
.Lfunc_end120:
	.size	_ZN5alloc7raw_vec19RawVec$LT$T$C$A$GT$14current_memory17h5806cad7b96aaa6aE, .Lfunc_end120-_ZN5alloc7raw_vec19RawVec$LT$T$C$A$GT$14current_memory17h5806cad7b96aaa6aE
	.cfi_endproc

	.section	".text._ZN5alloc7raw_vec19RawVec$LT$T$C$A$GT$14current_memory17h7518c12140ae3728E","ax",@progbits
	.p2align	4, 0x90
	.type	_ZN5alloc7raw_vec19RawVec$LT$T$C$A$GT$14current_memory17h7518c12140ae3728E,@function
_ZN5alloc7raw_vec19RawVec$LT$T$C$A$GT$14current_memory17h7518c12140ae3728E:
	.cfi_startproc
	movq	%rsi, -88(%rsp)
	movq	%rdi, -80(%rsp)
	movq	%rdi, -72(%rsp)
	xorl	%eax, %eax
	testb	$1, %al
	jne	.LBB121_2
	movq	-88(%rsp), %rax
	cmpq	$0, (%rax)
	jne	.LBB121_3
.LBB121_2:
	movq	-80(%rsp), %rax
	movq	$0, 8(%rax)
	jmp	.LBB121_4
.LBB121_3:
	movq	-80(%rsp), %rax
	movq	-88(%rsp), %rcx
	imulq	$24, (%rcx), %rdx
	movq	%rdx, -56(%rsp)
	movq	$8, -64(%rsp)
	movq	8(%rcx), %rcx
	movq	%rcx, -16(%rsp)
	movq	%rcx, -8(%rsp)
	movq	%rcx, -24(%rsp)
	movq	-24(%rsp), %rcx
	movq	%rcx, -48(%rsp)
	movq	-64(%rsp), %rdx
	movq	-56(%rsp), %rcx
	movq	%rdx, -40(%rsp)
	movq	%rcx, -32(%rsp)
	movq	-48(%rsp), %rcx
	movq	%rcx, (%rax)
	movq	-40(%rsp), %rcx
	movq	%rcx, 8(%rax)
	movq	-32(%rsp), %rcx
	movq	%rcx, 16(%rax)
.LBB121_4:
	movq	-72(%rsp), %rax
	retq
.Lfunc_end121:
	.size	_ZN5alloc7raw_vec19RawVec$LT$T$C$A$GT$14current_memory17h7518c12140ae3728E, .Lfunc_end121-_ZN5alloc7raw_vec19RawVec$LT$T$C$A$GT$14current_memory17h7518c12140ae3728E
	.cfi_endproc

	.section	".text._ZN5alloc7raw_vec19RawVec$LT$T$C$A$GT$14current_memory17hd4dd43fd873b67c4E","ax",@progbits
	.p2align	4, 0x90
	.type	_ZN5alloc7raw_vec19RawVec$LT$T$C$A$GT$14current_memory17hd4dd43fd873b67c4E,@function
_ZN5alloc7raw_vec19RawVec$LT$T$C$A$GT$14current_memory17hd4dd43fd873b67c4E:
	.cfi_startproc
	movq	%rsi, -88(%rsp)
	movq	%rdi, -80(%rsp)
	movq	%rdi, -72(%rsp)
	xorl	%eax, %eax
	testb	$1, %al
	jne	.LBB122_2
	movq	-88(%rsp), %rax
	cmpq	$0, (%rax)
	jne	.LBB122_3
.LBB122_2:
	movq	-80(%rsp), %rax
	movq	$0, 8(%rax)
	jmp	.LBB122_4
.LBB122_3:
	movq	-80(%rsp), %rax
	movq	-88(%rsp), %rcx
	movq	(%rcx), %rdx
	shlq	$3, %rdx
	movq	%rdx, -56(%rsp)
	movq	$8, -64(%rsp)
	movq	8(%rcx), %rcx
	movq	%rcx, -16(%rsp)
	movq	%rcx, -8(%rsp)
	movq	%rcx, -24(%rsp)
	movq	-24(%rsp), %rcx
	movq	%rcx, -48(%rsp)
	movq	-64(%rsp), %rdx
	movq	-56(%rsp), %rcx
	movq	%rdx, -40(%rsp)
	movq	%rcx, -32(%rsp)
	movq	-48(%rsp), %rcx
	movq	%rcx, (%rax)
	movq	-40(%rsp), %rcx
	movq	%rcx, 8(%rax)
	movq	-32(%rsp), %rcx
	movq	%rcx, 16(%rax)
.LBB122_4:
	movq	-72(%rsp), %rax
	retq
.Lfunc_end122:
	.size	_ZN5alloc7raw_vec19RawVec$LT$T$C$A$GT$14current_memory17hd4dd43fd873b67c4E, .Lfunc_end122-_ZN5alloc7raw_vec19RawVec$LT$T$C$A$GT$14current_memory17hd4dd43fd873b67c4E
	.cfi_endproc

	.section	".text._ZN5alloc7raw_vec19RawVec$LT$T$C$A$GT$14grow_amortized17h19cdd0bf7abf6a73E","ax",@progbits
	.p2align	4, 0x90
	.type	_ZN5alloc7raw_vec19RawVec$LT$T$C$A$GT$14grow_amortized17h19cdd0bf7abf6a73E,@function
_ZN5alloc7raw_vec19RawVec$LT$T$C$A$GT$14grow_amortized17h19cdd0bf7abf6a73E:
	.cfi_startproc
	subq	$312, %rsp
	.cfi_def_cfa_offset 320
	movq	%rdi, 32(%rsp)
	movq	%rsi, 40(%rsp)
	movq	%rdx, 48(%rsp)
	xorl	%eax, %eax
	testb	$1, %al
	jne	.LBB123_2
	movq	48(%rsp), %rcx
	movq	40(%rsp), %rax
	addq	%rcx, %rax
	movq	%rax, 24(%rsp)
	setb	%al
	andb	$1, %al
	movb	%al, 311(%rsp)
	testb	$1, 311(%rsp)
	jne	.LBB123_4
	jmp	.LBB123_3
.LBB123_2:
	movq	.L__unnamed_6(%rip), %rcx
	movq	.L__unnamed_6+8(%rip), %rax
	movq	%rcx, 56(%rsp)
	movq	%rax, 64(%rsp)
	jmp	.LBB123_19
.LBB123_3:
	movq	24(%rsp), %rax
	movq	%rax, 112(%rsp)
	movq	$1, 104(%rsp)
	jmp	.LBB123_5
.LBB123_4:
	movq	.L__unnamed_6(%rip), %rcx
	movq	.L__unnamed_6+8(%rip), %rax
	movq	%rcx, 104(%rsp)
	movq	%rax, 112(%rsp)
.LBB123_5:
	cmpq	$0, 104(%rsp)
	jne	.LBB123_7
	movq	.L__unnamed_6(%rip), %rcx
	movq	.L__unnamed_6+8(%rip), %rax
	movq	%rcx, 88(%rsp)
	movq	%rax, 96(%rsp)
	jmp	.LBB123_8
.LBB123_7:
	movq	112(%rsp), %rax
	movq	%rax, 96(%rsp)
	movabsq	$-9223372036854775807, %rax
	movq	%rax, 88(%rsp)
.LBB123_8:
	movabsq	$-9223372036854775807, %rdx
	movl	$1, %eax
	xorl	%ecx, %ecx
	cmpq	%rdx, 88(%rsp)
	cmoveq	%rcx, %rax
	cmpq	$0, %rax
	jne	.LBB123_10
	movq	96(%rsp), %rax
	movq	%rax, 80(%rsp)
	movabsq	$-9223372036854775807, %rax
	movq	%rax, 72(%rsp)
	jmp	.LBB123_11
.LBB123_10:
	movq	88(%rsp), %rcx
	movq	96(%rsp), %rax
	movq	%rcx, 224(%rsp)
	movq	%rax, 232(%rsp)
	movq	224(%rsp), %rcx
	movq	232(%rsp), %rax
	movq	%rcx, 72(%rsp)
	movq	%rax, 80(%rsp)
.LBB123_11:
	movabsq	$-9223372036854775807, %rdx
	movl	$1, %eax
	xorl	%ecx, %ecx
	cmpq	%rdx, 72(%rsp)
	cmoveq	%rcx, %rax
	cmpq	$0, %rax
	jne	.LBB123_13
	movq	32(%rsp), %rax
	movq	80(%rsp), %rsi
	movq	(%rax), %rdi
	shlq	%rdi
	callq	_ZN4core3cmp6max_by17hb93fa388b2ad5bbeE
	movq	%rax, %rsi
	movl	$4, %edi
	callq	_ZN4core3cmp6max_by17hb93fa388b2ad5bbeE
	movq	%rax, %rdx
	movq	%rdx, (%rsp)
	movl	$8, %esi
	movq	%rsi, %rdi
	callq	_ZN4core5alloc6layout6Layout5array5inner17hef423d46b29a4009E
	movq	32(%rsp), %rsi
	movq	%rax, 8(%rsp)
	movq	%rdx, 16(%rsp)
	leaq	184(%rsp), %rdi
	callq	_ZN5alloc7raw_vec19RawVec$LT$T$C$A$GT$14current_memory17hd4dd43fd873b67c4E
	movq	32(%rsp), %r8
	movq	8(%rsp), %rsi
	movq	16(%rsp), %rdx
	addq	$16, %r8
	leaq	160(%rsp), %rdi
	leaq	184(%rsp), %rcx
	callq	_ZN5alloc7raw_vec11finish_grow17h8b4ca564bdd04294E
	cmpq	$0, 160(%rsp)
	je	.LBB123_14
	jmp	.LBB123_15
.LBB123_13:
	movq	72(%rsp), %rcx
	movq	80(%rsp), %rax
	movq	%rcx, 120(%rsp)
	movq	%rax, 128(%rsp)
	movq	120(%rsp), %rcx
	movq	128(%rsp), %rax
	movq	%rcx, 240(%rsp)
	movq	%rax, 248(%rsp)
	movq	240(%rsp), %rcx
	movq	248(%rsp), %rax
	movq	%rcx, 56(%rsp)
	movq	%rax, 64(%rsp)
	jmp	.LBB123_20
.LBB123_14:
	movq	168(%rsp), %rcx
	movq	176(%rsp), %rax
	movq	%rcx, 144(%rsp)
	movq	%rax, 152(%rsp)
	movq	$0, 136(%rsp)
	jmp	.LBB123_16
.LBB123_15:
	movq	168(%rsp), %rcx
	movq	176(%rsp), %rax
	movq	%rcx, 256(%rsp)
	movq	%rax, 264(%rsp)
	movq	256(%rsp), %rcx
	movq	264(%rsp), %rax
	movq	%rcx, 144(%rsp)
	movq	%rax, 152(%rsp)
	movq	$1, 136(%rsp)
.LBB123_16:
	cmpq	$0, 136(%rsp)
	jne	.LBB123_18
	movq	32(%rsp), %rax
	movq	(%rsp), %rcx
	movq	144(%rsp), %rdx
	movq	%rdx, 280(%rsp)
	movq	%rdx, 296(%rsp)
	movq	296(%rsp), %rdx
	movq	%rdx, 272(%rsp)
	movq	272(%rsp), %rdx
	movq	%rdx, 8(%rax)
	movq	%rcx, 288(%rsp)
	movq	288(%rsp), %rcx
	movq	%rcx, (%rax)
	movq	.L__unnamed_17(%rip), %rcx
	movq	.L__unnamed_17+8(%rip), %rax
	movq	%rcx, 56(%rsp)
	movq	%rax, 64(%rsp)
	jmp	.LBB123_19
.LBB123_18:
	movq	144(%rsp), %rcx
	movq	152(%rsp), %rax
	movq	%rcx, 208(%rsp)
	movq	%rax, 216(%rsp)
	movq	208(%rsp), %rcx
	movq	216(%rsp), %rax
	movq	%rcx, 56(%rsp)
	movq	%rax, 64(%rsp)
	jmp	.LBB123_20
.LBB123_19:
	movq	56(%rsp), %rax
	movq	64(%rsp), %rdx
	addq	$312, %rsp
	.cfi_def_cfa_offset 8
	retq
.LBB123_20:
	.cfi_def_cfa_offset 320
	jmp	.LBB123_19
.Lfunc_end123:
	.size	_ZN5alloc7raw_vec19RawVec$LT$T$C$A$GT$14grow_amortized17h19cdd0bf7abf6a73E, .Lfunc_end123-_ZN5alloc7raw_vec19RawVec$LT$T$C$A$GT$14grow_amortized17h19cdd0bf7abf6a73E
	.cfi_endproc

	.section	".text._ZN5alloc7raw_vec19RawVec$LT$T$C$A$GT$14grow_amortized17h58515d7dd827610fE","ax",@progbits
	.p2align	4, 0x90
	.type	_ZN5alloc7raw_vec19RawVec$LT$T$C$A$GT$14grow_amortized17h58515d7dd827610fE,@function
_ZN5alloc7raw_vec19RawVec$LT$T$C$A$GT$14grow_amortized17h58515d7dd827610fE:
	.cfi_startproc
	subq	$312, %rsp
	.cfi_def_cfa_offset 320
	movq	%rdi, 32(%rsp)
	movq	%rsi, 40(%rsp)
	movq	%rdx, 48(%rsp)
	xorl	%eax, %eax
	testb	$1, %al
	jne	.LBB124_2
	movq	48(%rsp), %rcx
	movq	40(%rsp), %rax
	addq	%rcx, %rax
	movq	%rax, 24(%rsp)
	setb	%al
	andb	$1, %al
	movb	%al, 311(%rsp)
	testb	$1, 311(%rsp)
	jne	.LBB124_4
	jmp	.LBB124_3
.LBB124_2:
	movq	.L__unnamed_6(%rip), %rcx
	movq	.L__unnamed_6+8(%rip), %rax
	movq	%rcx, 56(%rsp)
	movq	%rax, 64(%rsp)
	jmp	.LBB124_19
.LBB124_3:
	movq	24(%rsp), %rax
	movq	%rax, 112(%rsp)
	movq	$1, 104(%rsp)
	jmp	.LBB124_5
.LBB124_4:
	movq	.L__unnamed_6(%rip), %rcx
	movq	.L__unnamed_6+8(%rip), %rax
	movq	%rcx, 104(%rsp)
	movq	%rax, 112(%rsp)
.LBB124_5:
	cmpq	$0, 104(%rsp)
	jne	.LBB124_7
	movq	.L__unnamed_6(%rip), %rcx
	movq	.L__unnamed_6+8(%rip), %rax
	movq	%rcx, 88(%rsp)
	movq	%rax, 96(%rsp)
	jmp	.LBB124_8
.LBB124_7:
	movq	112(%rsp), %rax
	movq	%rax, 96(%rsp)
	movabsq	$-9223372036854775807, %rax
	movq	%rax, 88(%rsp)
.LBB124_8:
	movabsq	$-9223372036854775807, %rdx
	movl	$1, %eax
	xorl	%ecx, %ecx
	cmpq	%rdx, 88(%rsp)
	cmoveq	%rcx, %rax
	cmpq	$0, %rax
	jne	.LBB124_10
	movq	96(%rsp), %rax
	movq	%rax, 80(%rsp)
	movabsq	$-9223372036854775807, %rax
	movq	%rax, 72(%rsp)
	jmp	.LBB124_11
.LBB124_10:
	movq	88(%rsp), %rcx
	movq	96(%rsp), %rax
	movq	%rcx, 224(%rsp)
	movq	%rax, 232(%rsp)
	movq	224(%rsp), %rcx
	movq	232(%rsp), %rax
	movq	%rcx, 72(%rsp)
	movq	%rax, 80(%rsp)
.LBB124_11:
	movabsq	$-9223372036854775807, %rdx
	movl	$1, %eax
	xorl	%ecx, %ecx
	cmpq	%rdx, 72(%rsp)
	cmoveq	%rcx, %rax
	cmpq	$0, %rax
	jne	.LBB124_13
	movq	32(%rsp), %rax
	movq	80(%rsp), %rsi
	movq	(%rax), %rdi
	shlq	%rdi
	callq	_ZN4core3cmp6max_by17hb93fa388b2ad5bbeE
	movq	%rax, %rsi
	movl	$4, %edi
	callq	_ZN4core3cmp6max_by17hb93fa388b2ad5bbeE
	movq	%rax, %rdx
	movq	%rdx, (%rsp)
	movl	$24, %edi
	movl	$8, %esi
	callq	_ZN4core5alloc6layout6Layout5array5inner17hef423d46b29a4009E
	movq	32(%rsp), %rsi
	movq	%rax, 8(%rsp)
	movq	%rdx, 16(%rsp)
	leaq	184(%rsp), %rdi
	callq	_ZN5alloc7raw_vec19RawVec$LT$T$C$A$GT$14current_memory17h5806cad7b96aaa6aE
	movq	32(%rsp), %r8
	movq	8(%rsp), %rsi
	movq	16(%rsp), %rdx
	addq	$16, %r8
	leaq	160(%rsp), %rdi
	leaq	184(%rsp), %rcx
	callq	_ZN5alloc7raw_vec11finish_grow17h8b4ca564bdd04294E
	cmpq	$0, 160(%rsp)
	je	.LBB124_14
	jmp	.LBB124_15
.LBB124_13:
	movq	72(%rsp), %rcx
	movq	80(%rsp), %rax
	movq	%rcx, 120(%rsp)
	movq	%rax, 128(%rsp)
	movq	120(%rsp), %rcx
	movq	128(%rsp), %rax
	movq	%rcx, 240(%rsp)
	movq	%rax, 248(%rsp)
	movq	240(%rsp), %rcx
	movq	248(%rsp), %rax
	movq	%rcx, 56(%rsp)
	movq	%rax, 64(%rsp)
	jmp	.LBB124_20
.LBB124_14:
	movq	168(%rsp), %rcx
	movq	176(%rsp), %rax
	movq	%rcx, 144(%rsp)
	movq	%rax, 152(%rsp)
	movq	$0, 136(%rsp)
	jmp	.LBB124_16
.LBB124_15:
	movq	168(%rsp), %rcx
	movq	176(%rsp), %rax
	movq	%rcx, 256(%rsp)
	movq	%rax, 264(%rsp)
	movq	256(%rsp), %rcx
	movq	264(%rsp), %rax
	movq	%rcx, 144(%rsp)
	movq	%rax, 152(%rsp)
	movq	$1, 136(%rsp)
.LBB124_16:
	cmpq	$0, 136(%rsp)
	jne	.LBB124_18
	movq	32(%rsp), %rax
	movq	(%rsp), %rcx
	movq	144(%rsp), %rdx
	movq	%rdx, 280(%rsp)
	movq	%rdx, 296(%rsp)
	movq	296(%rsp), %rdx
	movq	%rdx, 272(%rsp)
	movq	272(%rsp), %rdx
	movq	%rdx, 8(%rax)
	movq	%rcx, 288(%rsp)
	movq	288(%rsp), %rcx
	movq	%rcx, (%rax)
	movq	.L__unnamed_17(%rip), %rcx
	movq	.L__unnamed_17+8(%rip), %rax
	movq	%rcx, 56(%rsp)
	movq	%rax, 64(%rsp)
	jmp	.LBB124_19
.LBB124_18:
	movq	144(%rsp), %rcx
	movq	152(%rsp), %rax
	movq	%rcx, 208(%rsp)
	movq	%rax, 216(%rsp)
	movq	208(%rsp), %rcx
	movq	216(%rsp), %rax
	movq	%rcx, 56(%rsp)
	movq	%rax, 64(%rsp)
	jmp	.LBB124_20
.LBB124_19:
	movq	56(%rsp), %rax
	movq	64(%rsp), %rdx
	addq	$312, %rsp
	.cfi_def_cfa_offset 8
	retq
.LBB124_20:
	.cfi_def_cfa_offset 320
	jmp	.LBB124_19
.Lfunc_end124:
	.size	_ZN5alloc7raw_vec19RawVec$LT$T$C$A$GT$14grow_amortized17h58515d7dd827610fE, .Lfunc_end124-_ZN5alloc7raw_vec19RawVec$LT$T$C$A$GT$14grow_amortized17h58515d7dd827610fE
	.cfi_endproc

	.section	".text._ZN5alloc7raw_vec19RawVec$LT$T$C$A$GT$16reserve_for_push17h34e21b1c76c6fb2aE","ax",@progbits
	.p2align	4, 0x90
	.type	_ZN5alloc7raw_vec19RawVec$LT$T$C$A$GT$16reserve_for_push17h34e21b1c76c6fb2aE,@function
_ZN5alloc7raw_vec19RawVec$LT$T$C$A$GT$16reserve_for_push17h34e21b1c76c6fb2aE:
	.cfi_startproc
	pushq	%rax
	.cfi_def_cfa_offset 16
	movl	$1, %edx
	callq	_ZN5alloc7raw_vec19RawVec$LT$T$C$A$GT$14grow_amortized17h19cdd0bf7abf6a73E
	movq	%rax, %rdi
	movq	%rdx, %rsi
	callq	_ZN5alloc7raw_vec14handle_reserve17h77721d921ea1e2fcE
	popq	%rax
	.cfi_def_cfa_offset 8
	retq
.Lfunc_end125:
	.size	_ZN5alloc7raw_vec19RawVec$LT$T$C$A$GT$16reserve_for_push17h34e21b1c76c6fb2aE, .Lfunc_end125-_ZN5alloc7raw_vec19RawVec$LT$T$C$A$GT$16reserve_for_push17h34e21b1c76c6fb2aE
	.cfi_endproc

	.section	".text._ZN5alloc7raw_vec19RawVec$LT$T$C$A$GT$7reserve21do_reserve_and_handle17h151d59bbfc9dbe1aE","ax",@progbits
	.p2align	4, 0x90
	.type	_ZN5alloc7raw_vec19RawVec$LT$T$C$A$GT$7reserve21do_reserve_and_handle17h151d59bbfc9dbe1aE,@function
_ZN5alloc7raw_vec19RawVec$LT$T$C$A$GT$7reserve21do_reserve_and_handle17h151d59bbfc9dbe1aE:
	.cfi_startproc
	pushq	%rax
	.cfi_def_cfa_offset 16
	callq	_ZN5alloc7raw_vec19RawVec$LT$T$C$A$GT$14grow_amortized17h58515d7dd827610fE
	movq	%rax, %rdi
	movq	%rdx, %rsi
	callq	_ZN5alloc7raw_vec14handle_reserve17h77721d921ea1e2fcE
	popq	%rax
	.cfi_def_cfa_offset 8
	retq
.Lfunc_end126:
	.size	_ZN5alloc7raw_vec19RawVec$LT$T$C$A$GT$7reserve21do_reserve_and_handle17h151d59bbfc9dbe1aE, .Lfunc_end126-_ZN5alloc7raw_vec19RawVec$LT$T$C$A$GT$7reserve21do_reserve_and_handle17h151d59bbfc9dbe1aE
	.cfi_endproc

	.section	".text._ZN60_$LT$alloc..string..String$u20$as$u20$core..fmt..Display$GT$3fmt17h8c4ea237b2f99f7fE","ax",@progbits
	.p2align	4, 0x90
	.type	_ZN60_$LT$alloc..string..String$u20$as$u20$core..fmt..Display$GT$3fmt17h8c4ea237b2f99f7fE,@function
_ZN60_$LT$alloc..string..String$u20$as$u20$core..fmt..Display$GT$3fmt17h8c4ea237b2f99f7fE:
	.cfi_startproc
	subq	$40, %rsp
	.cfi_def_cfa_offset 48
	movq	%rsi, %rdx
	movq	8(%rdi), %rcx
	movq	16(%rdi), %rax
	movq	%rcx, 24(%rsp)
	movq	%rax, 32(%rsp)
	movq	24(%rsp), %rcx
	movq	32(%rsp), %rax
	movq	%rcx, 8(%rsp)
	movq	%rax, 16(%rsp)
	movq	8(%rsp), %rdi
	movq	16(%rsp), %rsi
	callq	*_ZN42_$LT$str$u20$as$u20$core..fmt..Display$GT$3fmt17h9090ab53566e9437E@GOTPCREL(%rip)
	andb	$1, %al
	movzbl	%al, %eax
	addq	$40, %rsp
	.cfi_def_cfa_offset 8
	retq
.Lfunc_end127:
	.size	_ZN60_$LT$alloc..string..String$u20$as$u20$core..fmt..Display$GT$3fmt17h8c4ea237b2f99f7fE, .Lfunc_end127-_ZN60_$LT$alloc..string..String$u20$as$u20$core..fmt..Display$GT$3fmt17h8c4ea237b2f99f7fE
	.cfi_endproc

	.section	".text._ZN62_$LT$std..path..PathBuf$u20$as$u20$core..ops..deref..Deref$GT$5deref17h5380c686e3133c0fE","ax",@progbits
	.p2align	4, 0x90
	.type	_ZN62_$LT$std..path..PathBuf$u20$as$u20$core..ops..deref..Deref$GT$5deref17h5380c686e3133c0fE,@function
_ZN62_$LT$std..path..PathBuf$u20$as$u20$core..ops..deref..Deref$GT$5deref17h5380c686e3133c0fE:
	.cfi_startproc
	movq	8(%rdi), %rcx
	movq	16(%rdi), %rax
	movq	%rcx, -16(%rsp)
	movq	%rax, -8(%rsp)
	movq	-16(%rsp), %rcx
	movq	-8(%rsp), %rax
	movq	%rcx, -32(%rsp)
	movq	%rax, -24(%rsp)
	movq	-32(%rsp), %rax
	movq	-24(%rsp), %rdx
	retq
.Lfunc_end128:
	.size	_ZN62_$LT$std..path..PathBuf$u20$as$u20$core..ops..deref..Deref$GT$5deref17h5380c686e3133c0fE, .Lfunc_end128-_ZN62_$LT$std..path..PathBuf$u20$as$u20$core..ops..deref..Deref$GT$5deref17h5380c686e3133c0fE
	.cfi_endproc

	.section	".text._ZN63_$LT$I$u20$as$u20$core..iter..traits..collect..IntoIterator$GT$9into_iter17h3fa0b549596e129dE","ax",@progbits
	.p2align	4, 0x90
	.type	_ZN63_$LT$I$u20$as$u20$core..iter..traits..collect..IntoIterator$GT$9into_iter17h3fa0b549596e129dE,@function
_ZN63_$LT$I$u20$as$u20$core..iter..traits..collect..IntoIterator$GT$9into_iter17h3fa0b549596e129dE:
	.cfi_startproc
	movq	%rdi, %rax
	movb	%sil, %dl
	retq
.Lfunc_end129:
	.size	_ZN63_$LT$I$u20$as$u20$core..iter..traits..collect..IntoIterator$GT$9into_iter17h3fa0b549596e129dE, .Lfunc_end129-_ZN63_$LT$I$u20$as$u20$core..iter..traits..collect..IntoIterator$GT$9into_iter17h3fa0b549596e129dE
	.cfi_endproc

	.section	".text._ZN63_$LT$I$u20$as$u20$core..iter..traits..collect..IntoIterator$GT$9into_iter17h97f5ed57537fee35E","ax",@progbits
	.p2align	4, 0x90
	.type	_ZN63_$LT$I$u20$as$u20$core..iter..traits..collect..IntoIterator$GT$9into_iter17h97f5ed57537fee35E,@function
_ZN63_$LT$I$u20$as$u20$core..iter..traits..collect..IntoIterator$GT$9into_iter17h97f5ed57537fee35E:
	.cfi_startproc
	movq	%rdi, %rax
	movq	(%rsi), %rcx
	movq	%rcx, (%rdi)
	movq	8(%rsi), %rcx
	movq	%rcx, 8(%rdi)
	movq	16(%rsi), %rcx
	movq	%rcx, 16(%rdi)
	movq	24(%rsi), %rcx
	movq	%rcx, 24(%rdi)
	retq
.Lfunc_end130:
	.size	_ZN63_$LT$I$u20$as$u20$core..iter..traits..collect..IntoIterator$GT$9into_iter17h97f5ed57537fee35E, .Lfunc_end130-_ZN63_$LT$I$u20$as$u20$core..iter..traits..collect..IntoIterator$GT$9into_iter17h97f5ed57537fee35E
	.cfi_endproc

	.section	".text._ZN63_$LT$alloc..alloc..Global$u20$as$u20$core..alloc..Allocator$GT$10deallocate17hc598934e69f3c12eE","ax",@progbits
	.p2align	4, 0x90
	.type	_ZN63_$LT$alloc..alloc..Global$u20$as$u20$core..alloc..Allocator$GT$10deallocate17hc598934e69f3c12eE,@function
_ZN63_$LT$alloc..alloc..Global$u20$as$u20$core..alloc..Allocator$GT$10deallocate17hc598934e69f3c12eE:
	.cfi_startproc
	subq	$56, %rsp
	.cfi_def_cfa_offset 64
	movq	%rsi, 8(%rsp)
	movq	%rdx, 16(%rsp)
	movq	%rcx, 24(%rsp)
	cmpq	$0, 24(%rsp)
	jne	.LBB131_2
	jmp	.LBB131_3
.LBB131_2:
	movq	8(%rsp), %rdi
	movq	16(%rsp), %rcx
	movq	24(%rsp), %rax
	movq	%rcx, 32(%rsp)
	movq	%rax, 40(%rsp)
	movq	40(%rsp), %rsi
	movq	32(%rsp), %rax
	movq	%rax, 48(%rsp)
	movq	48(%rsp), %rdx
	callq	*__rust_dealloc@GOTPCREL(%rip)
.LBB131_3:
	addq	$56, %rsp
	.cfi_def_cfa_offset 8
	retq
.Lfunc_end131:
	.size	_ZN63_$LT$alloc..alloc..Global$u20$as$u20$core..alloc..Allocator$GT$10deallocate17hc598934e69f3c12eE, .Lfunc_end131-_ZN63_$LT$alloc..alloc..Global$u20$as$u20$core..alloc..Allocator$GT$10deallocate17hc598934e69f3c12eE
	.cfi_endproc

	.section	".text._ZN63_$LT$alloc..alloc..Global$u20$as$u20$core..alloc..Allocator$GT$15allocate_zeroed17hcf37f5e7e3854c9fE","ax",@progbits
	.p2align	4, 0x90
	.type	_ZN63_$LT$alloc..alloc..Global$u20$as$u20$core..alloc..Allocator$GT$15allocate_zeroed17hcf37f5e7e3854c9fE,@function
_ZN63_$LT$alloc..alloc..Global$u20$as$u20$core..alloc..Allocator$GT$15allocate_zeroed17hcf37f5e7e3854c9fE:
	.cfi_startproc
	pushq	%rax
	.cfi_def_cfa_offset 16
	movl	$1, %ecx
	callq	_ZN5alloc5alloc6Global10alloc_impl17h415541d86aeee6ccE
	popq	%rcx
	.cfi_def_cfa_offset 8
	retq
.Lfunc_end132:
	.size	_ZN63_$LT$alloc..alloc..Global$u20$as$u20$core..alloc..Allocator$GT$15allocate_zeroed17hcf37f5e7e3854c9fE, .Lfunc_end132-_ZN63_$LT$alloc..alloc..Global$u20$as$u20$core..alloc..Allocator$GT$15allocate_zeroed17hcf37f5e7e3854c9fE
	.cfi_endproc

	.section	".text._ZN63_$LT$alloc..alloc..Global$u20$as$u20$core..alloc..Allocator$GT$4grow17hc5ba7150908e19afE","ax",@progbits
	.p2align	4, 0x90
	.type	_ZN63_$LT$alloc..alloc..Global$u20$as$u20$core..alloc..Allocator$GT$4grow17hc5ba7150908e19afE,@function
_ZN63_$LT$alloc..alloc..Global$u20$as$u20$core..alloc..Allocator$GT$4grow17hc5ba7150908e19afE:
	.cfi_startproc
	pushq	%rax
	.cfi_def_cfa_offset 16
	movq	%rsp, %rax
	movl	$0, (%rax)
	callq	_ZN5alloc5alloc6Global9grow_impl17h79b82597df49cb67E
	popq	%rcx
	.cfi_def_cfa_offset 8
	retq
.Lfunc_end133:
	.size	_ZN63_$LT$alloc..alloc..Global$u20$as$u20$core..alloc..Allocator$GT$4grow17hc5ba7150908e19afE, .Lfunc_end133-_ZN63_$LT$alloc..alloc..Global$u20$as$u20$core..alloc..Allocator$GT$4grow17hc5ba7150908e19afE
	.cfi_endproc

	.section	".text._ZN63_$LT$alloc..alloc..Global$u20$as$u20$core..alloc..Allocator$GT$8allocate17h0cf3a9a67b3e637bE","ax",@progbits
	.p2align	4, 0x90
	.type	_ZN63_$LT$alloc..alloc..Global$u20$as$u20$core..alloc..Allocator$GT$8allocate17h0cf3a9a67b3e637bE,@function
_ZN63_$LT$alloc..alloc..Global$u20$as$u20$core..alloc..Allocator$GT$8allocate17h0cf3a9a67b3e637bE:
	.cfi_startproc
	pushq	%rax
	.cfi_def_cfa_offset 16
	xorl	%ecx, %ecx
	callq	_ZN5alloc5alloc6Global10alloc_impl17h415541d86aeee6ccE
	popq	%rcx
	.cfi_def_cfa_offset 8
	retq
.Lfunc_end134:
	.size	_ZN63_$LT$alloc..alloc..Global$u20$as$u20$core..alloc..Allocator$GT$8allocate17h0cf3a9a67b3e637bE, .Lfunc_end134-_ZN63_$LT$alloc..alloc..Global$u20$as$u20$core..alloc..Allocator$GT$8allocate17h0cf3a9a67b3e637bE
	.cfi_endproc

	.section	".text._ZN65_$LT$alloc..string..String$u20$as$u20$core..ops..deref..Deref$GT$5deref17ha2fe093e36007998E","ax",@progbits
	.p2align	4, 0x90
	.type	_ZN65_$LT$alloc..string..String$u20$as$u20$core..ops..deref..Deref$GT$5deref17ha2fe093e36007998E,@function
_ZN65_$LT$alloc..string..String$u20$as$u20$core..ops..deref..Deref$GT$5deref17ha2fe093e36007998E:
	.cfi_startproc
	movq	8(%rdi), %rcx
	movq	16(%rdi), %rax
	movq	%rcx, -16(%rsp)
	movq	%rax, -8(%rsp)
	movq	-16(%rsp), %rcx
	movq	-8(%rsp), %rax
	movq	%rcx, -32(%rsp)
	movq	%rax, -24(%rsp)
	movq	-32(%rsp), %rax
	movq	-24(%rsp), %rdx
	retq
.Lfunc_end135:
	.size	_ZN65_$LT$alloc..string..String$u20$as$u20$core..ops..deref..Deref$GT$5deref17ha2fe093e36007998E, .Lfunc_end135-_ZN65_$LT$alloc..string..String$u20$as$u20$core..ops..deref..Deref$GT$5deref17ha2fe093e36007998E
	.cfi_endproc

	.section	".text._ZN66_$LT$alloc..borrow..Cow$LT$B$GT$$u20$as$u20$core..fmt..Display$GT$3fmt17had416f3853a9945aE","ax",@progbits
	.p2align	4, 0x90
	.type	_ZN66_$LT$alloc..borrow..Cow$LT$B$GT$$u20$as$u20$core..fmt..Display$GT$3fmt17had416f3853a9945aE,@function
_ZN66_$LT$alloc..borrow..Cow$LT$B$GT$$u20$as$u20$core..fmt..Display$GT$3fmt17had416f3853a9945aE:
	.cfi_startproc
	subq	$24, %rsp
	.cfi_def_cfa_offset 32
	movq	%rdi, (%rsp)
	movq	%rsi, 8(%rsp)
	movabsq	$-9223372036854775808, %rdx
	movl	$1, %eax
	xorl	%ecx, %ecx
	cmpq	%rdx, (%rdi)
	cmoveq	%rcx, %rax
	cmpq	$0, %rax
	jne	.LBB136_2
	movq	8(%rsp), %rdx
	movq	(%rsp), %rax
	movq	8(%rax), %rdi
	movq	16(%rax), %rsi
	callq	*_ZN42_$LT$str$u20$as$u20$core..fmt..Display$GT$3fmt17h9090ab53566e9437E@GOTPCREL(%rip)
	andb	$1, %al
	movb	%al, 23(%rsp)
	jmp	.LBB136_3
.LBB136_2:
	movq	8(%rsp), %rsi
	movq	(%rsp), %rdi
	callq	_ZN60_$LT$alloc..string..String$u20$as$u20$core..fmt..Display$GT$3fmt17h8c4ea237b2f99f7fE
	andb	$1, %al
	movb	%al, 23(%rsp)
.LBB136_3:
	movb	23(%rsp), %al
	andb	$1, %al
	movzbl	%al, %eax
	addq	$24, %rsp
	.cfi_def_cfa_offset 8
	retq
.Lfunc_end136:
	.size	_ZN66_$LT$alloc..borrow..Cow$LT$B$GT$$u20$as$u20$core..fmt..Display$GT$3fmt17had416f3853a9945aE, .Lfunc_end136-_ZN66_$LT$alloc..borrow..Cow$LT$B$GT$$u20$as$u20$core..fmt..Display$GT$3fmt17had416f3853a9945aE
	.cfi_endproc

	.section	".text._ZN66_$LT$core..option..Option$LT$T$GT$$u20$as$u20$core..fmt..Debug$GT$3fmt17h904816f1ea3774a0E","ax",@progbits
	.p2align	4, 0x90
	.type	_ZN66_$LT$core..option..Option$LT$T$GT$$u20$as$u20$core..fmt..Debug$GT$3fmt17h904816f1ea3774a0E,@function
_ZN66_$LT$core..option..Option$LT$T$GT$$u20$as$u20$core..fmt..Debug$GT$3fmt17h904816f1ea3774a0E:
	.cfi_startproc
	subq	$40, %rsp
	.cfi_def_cfa_offset 48
	movq	%rdi, 8(%rsp)
	movq	%rsi, 16(%rsp)
	cmpq	$0, (%rdi)
	jne	.LBB137_2
	movq	16(%rsp), %rdi
	leaq	.L__unnamed_18(%rip), %rsi
	movl	$4, %edx
	callq	*_ZN4core3fmt9Formatter9write_str17h614ed3390cd2c9c4E@GOTPCREL(%rip)
	andb	$1, %al
	movb	%al, 31(%rsp)
	jmp	.LBB137_3
.LBB137_2:
	movq	16(%rsp), %rdi
	movq	8(%rsp), %rax
	addq	$8, %rax
	movq	%rax, 32(%rsp)
	leaq	.L__unnamed_19(%rip), %rsi
	movl	$4, %edx
	leaq	32(%rsp), %rcx
	leaq	.L__unnamed_20(%rip), %r8
	callq	*_ZN4core3fmt9Formatter25debug_tuple_field1_finish17hfe85b0e3bfc75452E@GOTPCREL(%rip)
	andb	$1, %al
	movb	%al, 31(%rsp)
.LBB137_3:
	movb	31(%rsp), %al
	andb	$1, %al
	movzbl	%al, %eax
	addq	$40, %rsp
	.cfi_def_cfa_offset 8
	retq
.Lfunc_end137:
	.size	_ZN66_$LT$core..option..Option$LT$T$GT$$u20$as$u20$core..fmt..Debug$GT$3fmt17h904816f1ea3774a0E, .Lfunc_end137-_ZN66_$LT$core..option..Option$LT$T$GT$$u20$as$u20$core..fmt..Debug$GT$3fmt17h904816f1ea3774a0E
	.cfi_endproc

	.section	".text._ZN68_$LT$alloc..ffi..c_str..CString$u20$as$u20$core..ops..drop..Drop$GT$4drop17h4df80b61f4bb5ac0E","ax",@progbits
	.p2align	4, 0x90
	.type	_ZN68_$LT$alloc..ffi..c_str..CString$u20$as$u20$core..ops..drop..Drop$GT$4drop17h4df80b61f4bb5ac0E,@function
_ZN68_$LT$alloc..ffi..c_str..CString$u20$as$u20$core..ops..drop..Drop$GT$4drop17h4df80b61f4bb5ac0E:
	.cfi_startproc
	movq	(%rdi), %rax
	movb	$0, (%rax)
	retq
.Lfunc_end138:
	.size	_ZN68_$LT$alloc..ffi..c_str..CString$u20$as$u20$core..ops..drop..Drop$GT$4drop17h4df80b61f4bb5ac0E, .Lfunc_end138-_ZN68_$LT$alloc..ffi..c_str..CString$u20$as$u20$core..ops..drop..Drop$GT$4drop17h4df80b61f4bb5ac0E
	.cfi_endproc

	.section	".text._ZN68_$LT$std..fs..Metadata$u20$as$u20$std..os..unix..fs..MetadataExt$GT$4mode17h0f35e4880d9e5070E","ax",@progbits
	.p2align	4, 0x90
	.type	_ZN68_$LT$std..fs..Metadata$u20$as$u20$std..os..unix..fs..MetadataExt$GT$4mode17h0f35e4880d9e5070E,@function
_ZN68_$LT$std..fs..Metadata$u20$as$u20$std..os..unix..fs..MetadataExt$GT$4mode17h0f35e4880d9e5070E:
	.cfi_startproc
	movl	56(%rdi), %eax
	retq
.Lfunc_end139:
	.size	_ZN68_$LT$std..fs..Metadata$u20$as$u20$std..os..unix..fs..MetadataExt$GT$4mode17h0f35e4880d9e5070E, .Lfunc_end139-_ZN68_$LT$std..fs..Metadata$u20$as$u20$std..os..unix..fs..MetadataExt$GT$4mode17h0f35e4880d9e5070E
	.cfi_endproc

	.section	".text._ZN70_$LT$alloc..vec..Vec$LT$T$C$A$GT$$u20$as$u20$core..ops..drop..Drop$GT$4drop17h8a7a8e141de84187E","ax",@progbits
	.p2align	4, 0x90
	.type	_ZN70_$LT$alloc..vec..Vec$LT$T$C$A$GT$$u20$as$u20$core..ops..drop..Drop$GT$4drop17h8a7a8e141de84187E,@function
_ZN70_$LT$alloc..vec..Vec$LT$T$C$A$GT$$u20$as$u20$core..ops..drop..Drop$GT$4drop17h8a7a8e141de84187E:
	.cfi_startproc
	subq	$40, %rsp
	.cfi_def_cfa_offset 48
	movq	8(%rdi), %rcx
	movq	16(%rdi), %rax
	movq	%rcx, 24(%rsp)
	movq	%rax, 32(%rsp)
	movq	24(%rsp), %rcx
	movq	32(%rsp), %rax
	movq	%rcx, 8(%rsp)
	movq	%rax, 16(%rsp)
	movq	8(%rsp), %rdi
	movq	16(%rsp), %rsi
	callq	_ZN4core3ptr52drop_in_place$LT$$u5b$alloc..string..String$u5d$$GT$17h4f02d233d57ca5c6E
	addq	$40, %rsp
	.cfi_def_cfa_offset 8
	retq
.Lfunc_end140:
	.size	_ZN70_$LT$alloc..vec..Vec$LT$T$C$A$GT$$u20$as$u20$core..ops..drop..Drop$GT$4drop17h8a7a8e141de84187E, .Lfunc_end140-_ZN70_$LT$alloc..vec..Vec$LT$T$C$A$GT$$u20$as$u20$core..ops..drop..Drop$GT$4drop17h8a7a8e141de84187E
	.cfi_endproc

	.section	".text._ZN70_$LT$alloc..vec..Vec$LT$T$C$A$GT$$u20$as$u20$core..ops..drop..Drop$GT$4drop17hdced6b0ea72a4607E","ax",@progbits
	.p2align	4, 0x90
	.type	_ZN70_$LT$alloc..vec..Vec$LT$T$C$A$GT$$u20$as$u20$core..ops..drop..Drop$GT$4drop17hdced6b0ea72a4607E,@function
_ZN70_$LT$alloc..vec..Vec$LT$T$C$A$GT$$u20$as$u20$core..ops..drop..Drop$GT$4drop17hdced6b0ea72a4607E:
	.cfi_startproc
	movq	8(%rdi), %rcx
	movq	16(%rdi), %rax
	movq	%rcx, -16(%rsp)
	movq	%rax, -8(%rsp)
	movq	-16(%rsp), %rcx
	movq	-8(%rsp), %rax
	movq	%rcx, -32(%rsp)
	movq	%rax, -24(%rsp)
	retq
.Lfunc_end141:
	.size	_ZN70_$LT$alloc..vec..Vec$LT$T$C$A$GT$$u20$as$u20$core..ops..drop..Drop$GT$4drop17hdced6b0ea72a4607E, .Lfunc_end141-_ZN70_$LT$alloc..vec..Vec$LT$T$C$A$GT$$u20$as$u20$core..ops..drop..Drop$GT$4drop17hdced6b0ea72a4607E
	.cfi_endproc

	.section	".text._ZN70_$LT$alloc..vec..Vec$LT$T$C$A$GT$$u20$as$u20$core..ops..drop..Drop$GT$4drop17hdd058fe80c6b0a71E","ax",@progbits
	.p2align	4, 0x90
	.type	_ZN70_$LT$alloc..vec..Vec$LT$T$C$A$GT$$u20$as$u20$core..ops..drop..Drop$GT$4drop17hdd058fe80c6b0a71E,@function
_ZN70_$LT$alloc..vec..Vec$LT$T$C$A$GT$$u20$as$u20$core..ops..drop..Drop$GT$4drop17hdd058fe80c6b0a71E:
	.cfi_startproc
	movq	8(%rdi), %rcx
	movq	16(%rdi), %rax
	movq	%rcx, -16(%rsp)
	movq	%rax, -8(%rsp)
	movq	-16(%rsp), %rcx
	movq	-8(%rsp), %rax
	movq	%rcx, -32(%rsp)
	movq	%rax, -24(%rsp)
	retq
.Lfunc_end142:
	.size	_ZN70_$LT$alloc..vec..Vec$LT$T$C$A$GT$$u20$as$u20$core..ops..drop..Drop$GT$4drop17hdd058fe80c6b0a71E, .Lfunc_end142-_ZN70_$LT$alloc..vec..Vec$LT$T$C$A$GT$$u20$as$u20$core..ops..drop..Drop$GT$4drop17hdd058fe80c6b0a71E
	.cfi_endproc

	.section	".text._ZN70_$LT$std..ffi..os_str..OsString$u20$as$u20$core..ops..deref..Deref$GT$5deref17h765af8dcc7afa305E","ax",@progbits
	.p2align	4, 0x90
	.type	_ZN70_$LT$std..ffi..os_str..OsString$u20$as$u20$core..ops..deref..Deref$GT$5deref17h765af8dcc7afa305E,@function
_ZN70_$LT$std..ffi..os_str..OsString$u20$as$u20$core..ops..deref..Deref$GT$5deref17h765af8dcc7afa305E:
	.cfi_startproc
	movq	8(%rdi), %rcx
	movq	16(%rdi), %rax
	movq	%rcx, -16(%rsp)
	movq	%rax, -8(%rsp)
	movq	-16(%rsp), %rcx
	movq	-8(%rsp), %rax
	movq	%rcx, -32(%rsp)
	movq	%rax, -24(%rsp)
	movq	-32(%rsp), %rax
	movq	-24(%rsp), %rdx
	retq
.Lfunc_end143:
	.size	_ZN70_$LT$std..ffi..os_str..OsString$u20$as$u20$core..ops..deref..Deref$GT$5deref17h765af8dcc7afa305E, .Lfunc_end143-_ZN70_$LT$std..ffi..os_str..OsString$u20$as$u20$core..ops..deref..Deref$GT$5deref17h765af8dcc7afa305E
	.cfi_endproc

	.section	".text._ZN71_$LT$alloc..borrow..Cow$LT$B$GT$$u20$as$u20$core..ops..deref..Deref$GT$5deref17h47b618e8d850e33fE","ax",@progbits
	.p2align	4, 0x90
	.type	_ZN71_$LT$alloc..borrow..Cow$LT$B$GT$$u20$as$u20$core..ops..deref..Deref$GT$5deref17h47b618e8d850e33fE,@function
_ZN71_$LT$alloc..borrow..Cow$LT$B$GT$$u20$as$u20$core..ops..deref..Deref$GT$5deref17h47b618e8d850e33fE:
	.cfi_startproc
	subq	$24, %rsp
	.cfi_def_cfa_offset 32
	movq	%rdi, (%rsp)
	movabsq	$-9223372036854775808, %rdx
	movl	$1, %eax
	xorl	%ecx, %ecx
	cmpq	%rdx, (%rdi)
	cmoveq	%rcx, %rax
	cmpq	$0, %rax
	jne	.LBB144_2
	movq	(%rsp), %rax
	movq	8(%rax), %rcx
	movq	16(%rax), %rax
	movq	%rcx, 8(%rsp)
	movq	%rax, 16(%rsp)
	jmp	.LBB144_3
.LBB144_2:
	movq	(%rsp), %rdi
	callq	_ZN5alloc3str83_$LT$impl$u20$core..borrow..Borrow$LT$str$GT$$u20$for$u20$alloc..string..String$GT$6borrow17h728c9a75b18307daE
	movq	%rax, 8(%rsp)
	movq	%rdx, 16(%rsp)
.LBB144_3:
	movq	8(%rsp), %rax
	movq	16(%rsp), %rdx
	addq	$24, %rsp
	.cfi_def_cfa_offset 8
	retq
.Lfunc_end144:
	.size	_ZN71_$LT$alloc..borrow..Cow$LT$B$GT$$u20$as$u20$core..ops..deref..Deref$GT$5deref17h47b618e8d850e33fE, .Lfunc_end144-_ZN71_$LT$alloc..borrow..Cow$LT$B$GT$$u20$as$u20$core..ops..deref..Deref$GT$5deref17h47b618e8d850e33fE
	.cfi_endproc

	.section	".text._ZN71_$LT$alloc..sync..Arc$LT$T$C$A$GT$$u20$as$u20$core..ops..drop..Drop$GT$4drop17h1c35d81d1d277ca2E","ax",@progbits
	.p2align	4, 0x90
	.type	_ZN71_$LT$alloc..sync..Arc$LT$T$C$A$GT$$u20$as$u20$core..ops..drop..Drop$GT$4drop17h1c35d81d1d277ca2E,@function
_ZN71_$LT$alloc..sync..Arc$LT$T$C$A$GT$$u20$as$u20$core..ops..drop..Drop$GT$4drop17h1c35d81d1d277ca2E:
	.cfi_startproc
	subq	$24, %rsp
	.cfi_def_cfa_offset 32
	movq	%rdi, 8(%rsp)
	movq	(%rdi), %rcx
	movq	$-1, %rax
	lock		xaddq	%rax, (%rcx)
	movq	%rax, 16(%rsp)
	cmpq	$1, 16(%rsp)
	jne	.LBB145_2
	movl	$2, %edi
	callq	_ZN4core4sync6atomic5fence17h7bb06440988765d9E
	movq	8(%rsp), %rdi
	callq	_ZN5alloc4sync16Arc$LT$T$C$A$GT$9drop_slow17h7041ddd190c15a17E
	jmp	.LBB145_3
.LBB145_2:
	jmp	.LBB145_3
.LBB145_3:
	addq	$24, %rsp
	.cfi_def_cfa_offset 8
	retq
.Lfunc_end145:
	.size	_ZN71_$LT$alloc..sync..Arc$LT$T$C$A$GT$$u20$as$u20$core..ops..drop..Drop$GT$4drop17h1c35d81d1d277ca2E, .Lfunc_end145-_ZN71_$LT$alloc..sync..Arc$LT$T$C$A$GT$$u20$as$u20$core..ops..drop..Drop$GT$4drop17h1c35d81d1d277ca2E
	.cfi_endproc

	.section	".text._ZN72_$LT$alloc..boxed..Box$LT$T$C$A$GT$$u20$as$u20$core..ops..drop..Drop$GT$4drop17h28a8330a39f8544aE","ax",@progbits
	.p2align	4, 0x90
	.type	_ZN72_$LT$alloc..boxed..Box$LT$T$C$A$GT$$u20$as$u20$core..ops..drop..Drop$GT$4drop17h28a8330a39f8544aE,@function
_ZN72_$LT$alloc..boxed..Box$LT$T$C$A$GT$$u20$as$u20$core..ops..drop..Drop$GT$4drop17h28a8330a39f8544aE:
	.cfi_startproc
	subq	$72, %rsp
	.cfi_def_cfa_offset 80
	movq	%rdi, (%rsp)
	movq	(%rdi), %rax
	movq	%rax, 8(%rsp)
	movq	8(%rdi), %rax
	movq	8(%rax), %rcx
	movq	%rcx, 56(%rsp)
	movq	56(%rsp), %rcx
	movq	16(%rax), %rax
	movq	%rax, 64(%rsp)
	movq	64(%rsp), %rax
	movq	%rcx, 24(%rsp)
	movq	%rax, 16(%rsp)
	cmpq	$0, 24(%rsp)
	jne	.LBB146_2
	jmp	.LBB146_3
.LBB146_2:
	movq	8(%rsp), %rax
	movq	(%rsp), %rdi
	addq	$16, %rdi
	movq	%rax, 40(%rsp)
	movq	%rax, 48(%rsp)
	movq	%rax, 32(%rsp)
	movq	16(%rsp), %rdx
	movq	24(%rsp), %rcx
	movq	32(%rsp), %rsi
	callq	_ZN63_$LT$alloc..alloc..Global$u20$as$u20$core..alloc..Allocator$GT$10deallocate17hc598934e69f3c12eE
.LBB146_3:
	addq	$72, %rsp
	.cfi_def_cfa_offset 8
	retq
.Lfunc_end146:
	.size	_ZN72_$LT$alloc..boxed..Box$LT$T$C$A$GT$$u20$as$u20$core..ops..drop..Drop$GT$4drop17h28a8330a39f8544aE, .Lfunc_end146-_ZN72_$LT$alloc..boxed..Box$LT$T$C$A$GT$$u20$as$u20$core..ops..drop..Drop$GT$4drop17h28a8330a39f8544aE
	.cfi_endproc

	.section	".text._ZN72_$LT$alloc..boxed..Box$LT$T$C$A$GT$$u20$as$u20$core..ops..drop..Drop$GT$4drop17hbe97dbb24eb52fadE","ax",@progbits
	.p2align	4, 0x90
	.type	_ZN72_$LT$alloc..boxed..Box$LT$T$C$A$GT$$u20$as$u20$core..ops..drop..Drop$GT$4drop17hbe97dbb24eb52fadE,@function
_ZN72_$LT$alloc..boxed..Box$LT$T$C$A$GT$$u20$as$u20$core..ops..drop..Drop$GT$4drop17hbe97dbb24eb52fadE:
	.cfi_startproc
	subq	$72, %rsp
	.cfi_def_cfa_offset 80
	movq	%rdi, (%rsp)
	movq	(%rdi), %rax
	movq	%rax, 8(%rsp)
	movq	8(%rdi), %rax
	shlq	$0, %rax
	movq	%rax, 56(%rsp)
	movq	56(%rsp), %rcx
	movq	$1, 64(%rsp)
	movq	64(%rsp), %rax
	movq	%rcx, 24(%rsp)
	movq	%rax, 16(%rsp)
	cmpq	$0, 24(%rsp)
	jne	.LBB147_2
	jmp	.LBB147_3
.LBB147_2:
	movq	8(%rsp), %rax
	movq	(%rsp), %rdi
	addq	$16, %rdi
	movq	%rax, 40(%rsp)
	movq	%rax, 48(%rsp)
	movq	%rax, 32(%rsp)
	movq	16(%rsp), %rdx
	movq	24(%rsp), %rcx
	movq	32(%rsp), %rsi
	callq	_ZN63_$LT$alloc..alloc..Global$u20$as$u20$core..alloc..Allocator$GT$10deallocate17hc598934e69f3c12eE
.LBB147_3:
	addq	$72, %rsp
	.cfi_def_cfa_offset 8
	retq
.Lfunc_end147:
	.size	_ZN72_$LT$alloc..boxed..Box$LT$T$C$A$GT$$u20$as$u20$core..ops..drop..Drop$GT$4drop17hbe97dbb24eb52fadE, .Lfunc_end147-_ZN72_$LT$alloc..boxed..Box$LT$T$C$A$GT$$u20$as$u20$core..ops..drop..Drop$GT$4drop17hbe97dbb24eb52fadE
	.cfi_endproc

	.section	".text._ZN72_$LT$alloc..boxed..Box$LT$T$C$A$GT$$u20$as$u20$core..ops..drop..Drop$GT$4drop17he5751c9f15325df5E","ax",@progbits
	.p2align	4, 0x90
	.type	_ZN72_$LT$alloc..boxed..Box$LT$T$C$A$GT$$u20$as$u20$core..ops..drop..Drop$GT$4drop17he5751c9f15325df5E,@function
_ZN72_$LT$alloc..boxed..Box$LT$T$C$A$GT$$u20$as$u20$core..ops..drop..Drop$GT$4drop17he5751c9f15325df5E:
	.cfi_startproc
	subq	$72, %rsp
	.cfi_def_cfa_offset 80
	movq	%rdi, (%rsp)
	movq	(%rdi), %rax
	movq	%rax, 8(%rsp)
	movq	$24, 56(%rsp)
	movq	56(%rsp), %rcx
	movq	$8, 64(%rsp)
	movq	64(%rsp), %rax
	movq	%rcx, 24(%rsp)
	movq	%rax, 16(%rsp)
	cmpq	$0, 24(%rsp)
	jne	.LBB148_2
	jmp	.LBB148_3
.LBB148_2:
	movq	8(%rsp), %rax
	movq	(%rsp), %rdi
	addq	$8, %rdi
	movq	%rax, 40(%rsp)
	movq	%rax, 48(%rsp)
	movq	%rax, 32(%rsp)
	movq	16(%rsp), %rdx
	movq	24(%rsp), %rcx
	movq	32(%rsp), %rsi
	callq	_ZN63_$LT$alloc..alloc..Global$u20$as$u20$core..alloc..Allocator$GT$10deallocate17hc598934e69f3c12eE
.LBB148_3:
	addq	$72, %rsp
	.cfi_def_cfa_offset 8
	retq
.Lfunc_end148:
	.size	_ZN72_$LT$alloc..boxed..Box$LT$T$C$A$GT$$u20$as$u20$core..ops..drop..Drop$GT$4drop17he5751c9f15325df5E, .Lfunc_end148-_ZN72_$LT$alloc..boxed..Box$LT$T$C$A$GT$$u20$as$u20$core..ops..drop..Drop$GT$4drop17he5751c9f15325df5E
	.cfi_endproc

	.section	".text._ZN72_$LT$alloc..sync..Weak$LT$T$C$A$GT$$u20$as$u20$core..ops..drop..Drop$GT$4drop17h329b47dff3f91360E","ax",@progbits
	.p2align	4, 0x90
	.type	_ZN72_$LT$alloc..sync..Weak$LT$T$C$A$GT$$u20$as$u20$core..ops..drop..Drop$GT$4drop17h329b47dff3f91360E,@function
_ZN72_$LT$alloc..sync..Weak$LT$T$C$A$GT$$u20$as$u20$core..ops..drop..Drop$GT$4drop17h329b47dff3f91360E:
	.cfi_startproc
	subq	$104, %rsp
	.cfi_def_cfa_offset 112
	movq	%rdi, 8(%rsp)
	movq	(%rdi), %rax
	movq	%rax, 16(%rsp)
	cmpq	$-1, %rax
	je	.LBB149_2
	movq	16(%rsp), %rax
	movq	%rax, %rcx
	addq	$8, %rcx
	movq	%rcx, 64(%rsp)
	movq	%rax, 72(%rsp)
	movq	64(%rsp), %rcx
	movq	72(%rsp), %rax
	movq	%rcx, 24(%rsp)
	movq	%rax, 32(%rsp)
	jmp	.LBB149_3
.LBB149_2:
	movq	.L__unnamed_6(%rip), %rcx
	movq	.L__unnamed_6+8(%rip), %rax
	movq	%rcx, 24(%rsp)
	movq	%rax, 32(%rsp)
.LBB149_3:
	movq	24(%rsp), %rdx
	movl	$1, %eax
	xorl	%ecx, %ecx
	cmpq	$0, %rdx
	cmoveq	%rcx, %rax
	cmpq	$1, %rax
	jne	.LBB149_5
	movq	24(%rsp), %rcx
	movq	$-1, %rax
	lock		xaddq	%rax, (%rcx)
	movq	%rax, 80(%rsp)
	cmpq	$1, 80(%rsp)
	je	.LBB149_6
	jmp	.LBB149_7
.LBB149_5:
	jmp	.LBB149_9
.LBB149_6:
	movl	$2, %edi
	callq	_ZN4core4sync6atomic5fence17h7bb06440988765d9E
	movq	8(%rsp), %rax
	movq	%rax, %rdi
	addq	$8, %rdi
	movq	(%rax), %rax
	movq	%rax, 40(%rsp)
	movq	$48, 88(%rsp)
	movq	88(%rsp), %rcx
	movq	$8, 96(%rsp)
	movq	96(%rsp), %rax
	movq	%rcx, 56(%rsp)
	movq	%rax, 48(%rsp)
	movq	40(%rsp), %rsi
	movq	48(%rsp), %rdx
	movq	56(%rsp), %rcx
	callq	_ZN48_$LT$$RF$A$u20$as$u20$core..alloc..Allocator$GT$10deallocate17h4f853cf612aa99afE
	jmp	.LBB149_8
.LBB149_7:
	jmp	.LBB149_8
.LBB149_8:
	jmp	.LBB149_9
.LBB149_9:
	addq	$104, %rsp
	.cfi_def_cfa_offset 8
	retq
.Lfunc_end149:
	.size	_ZN72_$LT$alloc..sync..Weak$LT$T$C$A$GT$$u20$as$u20$core..ops..drop..Drop$GT$4drop17h329b47dff3f91360E, .Lfunc_end149-_ZN72_$LT$alloc..sync..Weak$LT$T$C$A$GT$$u20$as$u20$core..ops..drop..Drop$GT$4drop17h329b47dff3f91360E
	.cfi_endproc

	.section	".text._ZN73_$LT$$u5b$A$u5d$$u20$as$u20$core..slice..cmp..SlicePartialEq$LT$B$GT$$GT$5equal17h0c1194f6a46538c1E","ax",@progbits
	.p2align	4, 0x90
	.type	_ZN73_$LT$$u5b$A$u5d$$u20$as$u20$core..slice..cmp..SlicePartialEq$LT$B$GT$$GT$5equal17h0c1194f6a46538c1E,@function
_ZN73_$LT$$u5b$A$u5d$$u20$as$u20$core..slice..cmp..SlicePartialEq$LT$B$GT$$GT$5equal17h0c1194f6a46538c1E:
	.cfi_startproc
	subq	$56, %rsp
	.cfi_def_cfa_offset 64
	movq	%rdi, 8(%rsp)
	movq	%rsi, 16(%rsp)
	movq	%rdx, 24(%rsp)
	cmpq	%rcx, %rsi
	jne	.LBB150_2
	movq	24(%rsp), %rsi
	movq	8(%rsp), %rdi
	movq	16(%rsp), %rax
	shlq	$0, %rax
	movq	%rax, 40(%rsp)
	movq	40(%rsp), %rdx
	movq	memcmp@GOTPCREL(%rip), %rax
	callq	*%rax
	movl	%eax, 52(%rsp)
	cmpl	$0, 52(%rsp)
	sete	%al
	andb	$1, %al
	movb	%al, 39(%rsp)
	jmp	.LBB150_3
.LBB150_2:
	movb	$0, 39(%rsp)
.LBB150_3:
	movb	39(%rsp), %al
	andb	$1, %al
	movzbl	%al, %eax
	addq	$56, %rsp
	.cfi_def_cfa_offset 8
	retq
.Lfunc_end150:
	.size	_ZN73_$LT$$u5b$A$u5d$$u20$as$u20$core..slice..cmp..SlicePartialEq$LT$B$GT$$GT$5equal17h0c1194f6a46538c1E, .Lfunc_end150-_ZN73_$LT$$u5b$A$u5d$$u20$as$u20$core..slice..cmp..SlicePartialEq$LT$B$GT$$GT$5equal17h0c1194f6a46538c1E
	.cfi_endproc

	.section	".text._ZN77_$LT$alloc..raw_vec..RawVec$LT$T$C$A$GT$$u20$as$u20$core..ops..drop..Drop$GT$4drop17h7401f20b0557b03fE","ax",@progbits
	.p2align	4, 0x90
	.type	_ZN77_$LT$alloc..raw_vec..RawVec$LT$T$C$A$GT$$u20$as$u20$core..ops..drop..Drop$GT$4drop17h7401f20b0557b03fE,@function
_ZN77_$LT$alloc..raw_vec..RawVec$LT$T$C$A$GT$$u20$as$u20$core..ops..drop..Drop$GT$4drop17h7401f20b0557b03fE:
	.cfi_startproc
	subq	$40, %rsp
	.cfi_def_cfa_offset 48
	movq	%rdi, %rsi
	movq	%rsi, 8(%rsp)
	leaq	16(%rsp), %rdi
	callq	_ZN5alloc7raw_vec19RawVec$LT$T$C$A$GT$14current_memory17h5806cad7b96aaa6aE
	movl	$1, %eax
	xorl	%ecx, %ecx
	cmpq	$0, 24(%rsp)
	cmoveq	%rcx, %rax
	cmpq	$1, %rax
	jne	.LBB151_2
	movq	8(%rsp), %rdi
	movq	16(%rsp), %rsi
	movq	24(%rsp), %rdx
	movq	32(%rsp), %rcx
	addq	$16, %rdi
	callq	_ZN63_$LT$alloc..alloc..Global$u20$as$u20$core..alloc..Allocator$GT$10deallocate17hc598934e69f3c12eE
.LBB151_2:
	addq	$40, %rsp
	.cfi_def_cfa_offset 8
	retq
.Lfunc_end151:
	.size	_ZN77_$LT$alloc..raw_vec..RawVec$LT$T$C$A$GT$$u20$as$u20$core..ops..drop..Drop$GT$4drop17h7401f20b0557b03fE, .Lfunc_end151-_ZN77_$LT$alloc..raw_vec..RawVec$LT$T$C$A$GT$$u20$as$u20$core..ops..drop..Drop$GT$4drop17h7401f20b0557b03fE
	.cfi_endproc

	.section	".text._ZN77_$LT$alloc..raw_vec..RawVec$LT$T$C$A$GT$$u20$as$u20$core..ops..drop..Drop$GT$4drop17hba7610193fafbc2aE","ax",@progbits
	.p2align	4, 0x90
	.type	_ZN77_$LT$alloc..raw_vec..RawVec$LT$T$C$A$GT$$u20$as$u20$core..ops..drop..Drop$GT$4drop17hba7610193fafbc2aE,@function
_ZN77_$LT$alloc..raw_vec..RawVec$LT$T$C$A$GT$$u20$as$u20$core..ops..drop..Drop$GT$4drop17hba7610193fafbc2aE:
	.cfi_startproc
	subq	$40, %rsp
	.cfi_def_cfa_offset 48
	movq	%rdi, %rsi
	movq	%rsi, 8(%rsp)
	leaq	16(%rsp), %rdi
	callq	_ZN5alloc7raw_vec19RawVec$LT$T$C$A$GT$14current_memory17hd4dd43fd873b67c4E
	movl	$1, %eax
	xorl	%ecx, %ecx
	cmpq	$0, 24(%rsp)
	cmoveq	%rcx, %rax
	cmpq	$1, %rax
	jne	.LBB152_2
	movq	8(%rsp), %rdi
	movq	16(%rsp), %rsi
	movq	24(%rsp), %rdx
	movq	32(%rsp), %rcx
	addq	$16, %rdi
	callq	_ZN63_$LT$alloc..alloc..Global$u20$as$u20$core..alloc..Allocator$GT$10deallocate17hc598934e69f3c12eE
.LBB152_2:
	addq	$40, %rsp
	.cfi_def_cfa_offset 8
	retq
.Lfunc_end152:
	.size	_ZN77_$LT$alloc..raw_vec..RawVec$LT$T$C$A$GT$$u20$as$u20$core..ops..drop..Drop$GT$4drop17hba7610193fafbc2aE, .Lfunc_end152-_ZN77_$LT$alloc..raw_vec..RawVec$LT$T$C$A$GT$$u20$as$u20$core..ops..drop..Drop$GT$4drop17hba7610193fafbc2aE
	.cfi_endproc

	.section	".text._ZN77_$LT$alloc..raw_vec..RawVec$LT$T$C$A$GT$$u20$as$u20$core..ops..drop..Drop$GT$4drop17hc02f3368c89475e4E","ax",@progbits
	.p2align	4, 0x90
	.type	_ZN77_$LT$alloc..raw_vec..RawVec$LT$T$C$A$GT$$u20$as$u20$core..ops..drop..Drop$GT$4drop17hc02f3368c89475e4E,@function
_ZN77_$LT$alloc..raw_vec..RawVec$LT$T$C$A$GT$$u20$as$u20$core..ops..drop..Drop$GT$4drop17hc02f3368c89475e4E:
	.cfi_startproc
	subq	$40, %rsp
	.cfi_def_cfa_offset 48
	movq	%rdi, %rsi
	movq	%rsi, 8(%rsp)
	leaq	16(%rsp), %rdi
	callq	_ZN5alloc7raw_vec19RawVec$LT$T$C$A$GT$14current_memory17h7518c12140ae3728E
	movl	$1, %eax
	xorl	%ecx, %ecx
	cmpq	$0, 24(%rsp)
	cmoveq	%rcx, %rax
	cmpq	$1, %rax
	jne	.LBB153_2
	movq	8(%rsp), %rdi
	movq	16(%rsp), %rsi
	movq	24(%rsp), %rdx
	movq	32(%rsp), %rcx
	addq	$16, %rdi
	callq	_ZN63_$LT$alloc..alloc..Global$u20$as$u20$core..alloc..Allocator$GT$10deallocate17hc598934e69f3c12eE
.LBB153_2:
	addq	$40, %rsp
	.cfi_def_cfa_offset 8
	retq
.Lfunc_end153:
	.size	_ZN77_$LT$alloc..raw_vec..RawVec$LT$T$C$A$GT$$u20$as$u20$core..ops..drop..Drop$GT$4drop17hc02f3368c89475e4E, .Lfunc_end153-_ZN77_$LT$alloc..raw_vec..RawVec$LT$T$C$A$GT$$u20$as$u20$core..ops..drop..Drop$GT$4drop17hc02f3368c89475e4E
	.cfi_endproc

	.section	".text._ZN77_$LT$alloc..raw_vec..RawVec$LT$T$C$A$GT$$u20$as$u20$core..ops..drop..Drop$GT$4drop17hfee495bbb0595c39E","ax",@progbits
	.p2align	4, 0x90
	.type	_ZN77_$LT$alloc..raw_vec..RawVec$LT$T$C$A$GT$$u20$as$u20$core..ops..drop..Drop$GT$4drop17hfee495bbb0595c39E,@function
_ZN77_$LT$alloc..raw_vec..RawVec$LT$T$C$A$GT$$u20$as$u20$core..ops..drop..Drop$GT$4drop17hfee495bbb0595c39E:
	.cfi_startproc
	subq	$40, %rsp
	.cfi_def_cfa_offset 48
	movq	%rdi, %rsi
	movq	%rsi, 8(%rsp)
	leaq	16(%rsp), %rdi
	callq	_ZN5alloc7raw_vec19RawVec$LT$T$C$A$GT$14current_memory17h302a4d095a93c864E
	movl	$1, %eax
	xorl	%ecx, %ecx
	cmpq	$0, 24(%rsp)
	cmoveq	%rcx, %rax
	cmpq	$1, %rax
	jne	.LBB154_2
	movq	8(%rsp), %rdi
	movq	16(%rsp), %rsi
	movq	24(%rsp), %rdx
	movq	32(%rsp), %rcx
	addq	$16, %rdi
	callq	_ZN63_$LT$alloc..alloc..Global$u20$as$u20$core..alloc..Allocator$GT$10deallocate17hc598934e69f3c12eE
.LBB154_2:
	addq	$40, %rsp
	.cfi_def_cfa_offset 8
	retq
.Lfunc_end154:
	.size	_ZN77_$LT$alloc..raw_vec..RawVec$LT$T$C$A$GT$$u20$as$u20$core..ops..drop..Drop$GT$4drop17hfee495bbb0595c39E, .Lfunc_end154-_ZN77_$LT$alloc..raw_vec..RawVec$LT$T$C$A$GT$$u20$as$u20$core..ops..drop..Drop$GT$4drop17hfee495bbb0595c39E
	.cfi_endproc

	.section	".text._ZN78_$LT$std..io..error..repr_bitpacked..Repr$u20$as$u20$core..ops..drop..Drop$GT$4drop17h62d9c6ae68812cebE","ax",@progbits
	.p2align	4, 0x90
	.type	_ZN78_$LT$std..io..error..repr_bitpacked..Repr$u20$as$u20$core..ops..drop..Drop$GT$4drop17h62d9c6ae68812cebE,@function
_ZN78_$LT$std..io..error..repr_bitpacked..Repr$u20$as$u20$core..ops..drop..Drop$GT$4drop17h62d9c6ae68812cebE:
	.cfi_startproc
	subq	$24, %rsp
	.cfi_def_cfa_offset 32
	movq	(%rdi), %rsi
	leaq	8(%rsp), %rdi
	callq	_ZN3std2io5error14repr_bitpacked11decode_repr17hcf4c5bb97e8b607eE
	leaq	8(%rsp), %rdi
	callq	_ZN4core3ptr101drop_in_place$LT$std..io..error..ErrorData$LT$alloc..boxed..Box$LT$std..io..error..Custom$GT$$GT$$GT$17h5368efe510d36a1cE
	addq	$24, %rsp
	.cfi_def_cfa_offset 8
	retq
.Lfunc_end155:
	.size	_ZN78_$LT$std..io..error..repr_bitpacked..Repr$u20$as$u20$core..ops..drop..Drop$GT$4drop17h62d9c6ae68812cebE, .Lfunc_end155-_ZN78_$LT$std..io..error..repr_bitpacked..Repr$u20$as$u20$core..ops..drop..Drop$GT$4drop17h62d9c6ae68812cebE
	.cfi_endproc

	.section	".text._ZN78_$LT$std..io..error..repr_bitpacked..Repr$u20$as$u20$core..ops..drop..Drop$GT$4drop28_$u7b$$u7b$closure$u7d$$u7d$17hbdbcc8693f7f82a7E","ax",@progbits
	.p2align	4, 0x90
	.type	_ZN78_$LT$std..io..error..repr_bitpacked..Repr$u20$as$u20$core..ops..drop..Drop$GT$4drop28_$u7b$$u7b$closure$u7d$$u7d$17hbdbcc8693f7f82a7E,@function
_ZN78_$LT$std..io..error..repr_bitpacked..Repr$u20$as$u20$core..ops..drop..Drop$GT$4drop28_$u7b$$u7b$closure$u7d$$u7d$17hbdbcc8693f7f82a7E:
	.cfi_startproc
	movq	%rdi, -8(%rsp)
	movq	-8(%rsp), %rax
	movq	%rax, -16(%rsp)
	movq	-16(%rsp), %rax
	movq	%rax, -24(%rsp)
	movq	-24(%rsp), %rax
	retq
.Lfunc_end156:
	.size	_ZN78_$LT$std..io..error..repr_bitpacked..Repr$u20$as$u20$core..ops..drop..Drop$GT$4drop28_$u7b$$u7b$closure$u7d$$u7d$17hbdbcc8693f7f82a7E, .Lfunc_end156-_ZN78_$LT$std..io..error..repr_bitpacked..Repr$u20$as$u20$core..ops..drop..Drop$GT$4drop28_$u7b$$u7b$closure$u7d$$u7d$17hbdbcc8693f7f82a7E
	.cfi_endproc

	.section	".text._ZN79_$LT$core..result..Result$LT$T$C$E$GT$$u20$as$u20$core..ops..try_trait..Try$GT$6branch17h2a7b9cfdbf0bd261E","ax",@progbits
	.p2align	4, 0x90
	.type	_ZN79_$LT$core..result..Result$LT$T$C$E$GT$$u20$as$u20$core..ops..try_trait..Try$GT$6branch17h2a7b9cfdbf0bd261E,@function
_ZN79_$LT$core..result..Result$LT$T$C$E$GT$$u20$as$u20$core..ops..try_trait..Try$GT$6branch17h2a7b9cfdbf0bd261E:
	.cfi_startproc
	movq	%rdi, -24(%rsp)
	movq	-24(%rsp), %rdx
	movl	$1, %eax
	xorl	%ecx, %ecx
	cmpq	$0, %rdx
	cmoveq	%rcx, %rax
	cmpq	$0, %rax
	jne	.LBB157_2
	movq	$0, -16(%rsp)
	jmp	.LBB157_3
.LBB157_2:
	movq	-24(%rsp), %rax
	movq	%rax, -8(%rsp)
	movq	-8(%rsp), %rax
	movq	%rax, -16(%rsp)
.LBB157_3:
	movq	-16(%rsp), %rax
	retq
.Lfunc_end157:
	.size	_ZN79_$LT$core..result..Result$LT$T$C$E$GT$$u20$as$u20$core..ops..try_trait..Try$GT$6branch17h2a7b9cfdbf0bd261E, .Lfunc_end157-_ZN79_$LT$core..result..Result$LT$T$C$E$GT$$u20$as$u20$core..ops..try_trait..Try$GT$6branch17h2a7b9cfdbf0bd261E
	.cfi_endproc

	.section	".text._ZN79_$LT$core..result..Result$LT$T$C$E$GT$$u20$as$u20$core..ops..try_trait..Try$GT$6branch17h75d9981166f2f7e8E","ax",@progbits
	.p2align	4, 0x90
	.type	_ZN79_$LT$core..result..Result$LT$T$C$E$GT$$u20$as$u20$core..ops..try_trait..Try$GT$6branch17h75d9981166f2f7e8E,@function
_ZN79_$LT$core..result..Result$LT$T$C$E$GT$$u20$as$u20$core..ops..try_trait..Try$GT$6branch17h75d9981166f2f7e8E:
	.cfi_startproc
	movq	%rsi, -32(%rsp)
	movq	%rdi, -24(%rsp)
	movq	%rdi, -16(%rsp)
	xorl	%eax, %eax
	movl	$1, %ecx
	cmpb	$2, 8(%rsi)
	cmoveq	%rcx, %rax
	cmpq	$0, %rax
	jne	.LBB158_2
	movq	-24(%rsp), %rax
	movq	-32(%rsp), %rcx
	movq	(%rcx), %rdx
	movb	8(%rcx), %cl
	movq	%rdx, (%rax)
	andb	$1, %cl
	movb	%cl, 8(%rax)
	jmp	.LBB158_3
.LBB158_2:
	movq	-24(%rsp), %rax
	movq	-32(%rsp), %rcx
	movq	(%rcx), %rcx
	movq	%rcx, -8(%rsp)
	movq	-8(%rsp), %rcx
	movq	%rcx, (%rax)
	movb	$2, 8(%rax)
.LBB158_3:
	movq	-16(%rsp), %rax
	retq
.Lfunc_end158:
	.size	_ZN79_$LT$core..result..Result$LT$T$C$E$GT$$u20$as$u20$core..ops..try_trait..Try$GT$6branch17h75d9981166f2f7e8E, .Lfunc_end158-_ZN79_$LT$core..result..Result$LT$T$C$E$GT$$u20$as$u20$core..ops..try_trait..Try$GT$6branch17h75d9981166f2f7e8E
	.cfi_endproc

	.section	".text._ZN79_$LT$core..result..Result$LT$T$C$E$GT$$u20$as$u20$core..ops..try_trait..Try$GT$6branch17h7ebbad92feaa2945E","ax",@progbits
	.p2align	4, 0x90
	.type	_ZN79_$LT$core..result..Result$LT$T$C$E$GT$$u20$as$u20$core..ops..try_trait..Try$GT$6branch17h7ebbad92feaa2945E,@function
_ZN79_$LT$core..result..Result$LT$T$C$E$GT$$u20$as$u20$core..ops..try_trait..Try$GT$6branch17h7ebbad92feaa2945E:
	.cfi_startproc
	subq	$72, %rsp
	.cfi_def_cfa_offset 80
	movq	%rsi, (%rsp)
	movq	%rdi, 8(%rsp)
	movq	%rdi, 16(%rsp)
	movq	(%rsi), %rdx
	xorl	%eax, %eax
	movl	$1, %ecx
	cmpq	$0, %rdx
	cmoveq	%rcx, %rax
	cmpq	$0, %rax
	jne	.LBB159_2
	movq	(%rsp), %rsi
	leaq	24(%rsp), %rdi
	movl	$40, %edx
	callq	memcpy@PLT
	movq	8(%rsp), %rdi
	leaq	24(%rsp), %rsi
	movl	$40, %edx
	callq	memcpy@PLT
	jmp	.LBB159_3
.LBB159_2:
	movq	8(%rsp), %rax
	movq	(%rsp), %rcx
	movq	8(%rcx), %rcx
	movq	%rcx, 64(%rsp)
	movq	64(%rsp), %rcx
	movq	%rcx, 8(%rax)
	movq	$0, (%rax)
.LBB159_3:
	movq	16(%rsp), %rax
	addq	$72, %rsp
	.cfi_def_cfa_offset 8
	retq
.Lfunc_end159:
	.size	_ZN79_$LT$core..result..Result$LT$T$C$E$GT$$u20$as$u20$core..ops..try_trait..Try$GT$6branch17h7ebbad92feaa2945E, .Lfunc_end159-_ZN79_$LT$core..result..Result$LT$T$C$E$GT$$u20$as$u20$core..ops..try_trait..Try$GT$6branch17h7ebbad92feaa2945E
	.cfi_endproc

	.section	".text._ZN79_$LT$core..result..Result$LT$T$C$E$GT$$u20$as$u20$core..ops..try_trait..Try$GT$6branch17hbb1596e451a5e190E","ax",@progbits
	.p2align	4, 0x90
	.type	_ZN79_$LT$core..result..Result$LT$T$C$E$GT$$u20$as$u20$core..ops..try_trait..Try$GT$6branch17hbb1596e451a5e190E,@function
_ZN79_$LT$core..result..Result$LT$T$C$E$GT$$u20$as$u20$core..ops..try_trait..Try$GT$6branch17hbb1596e451a5e190E:
	.cfi_startproc
	movq	%rsi, -56(%rsp)
	movq	%rdi, -48(%rsp)
	movq	%rdi, -40(%rsp)
	movabsq	$-9223372036854775808, %rdx
	xorl	%eax, %eax
	movl	$1, %ecx
	cmpq	%rdx, (%rsi)
	cmoveq	%rcx, %rax
	cmpq	$0, %rax
	jne	.LBB160_2
	movq	-48(%rsp), %rax
	movq	-56(%rsp), %rcx
	movq	(%rcx), %rdx
	movq	%rdx, -32(%rsp)
	movq	8(%rcx), %rdx
	movq	%rdx, -24(%rsp)
	movq	16(%rcx), %rcx
	movq	%rcx, -16(%rsp)
	movq	-32(%rsp), %rcx
	movq	%rcx, (%rax)
	movq	-24(%rsp), %rcx
	movq	%rcx, 8(%rax)
	movq	-16(%rsp), %rcx
	movq	%rcx, 16(%rax)
	jmp	.LBB160_3
.LBB160_2:
	movq	-48(%rsp), %rax
	movq	-56(%rsp), %rcx
	movq	8(%rcx), %rcx
	movq	%rcx, -8(%rsp)
	movq	-8(%rsp), %rcx
	movq	%rcx, 8(%rax)
	movabsq	$-9223372036854775808, %rcx
	movq	%rcx, (%rax)
.LBB160_3:
	movq	-40(%rsp), %rax
	retq
.Lfunc_end160:
	.size	_ZN79_$LT$core..result..Result$LT$T$C$E$GT$$u20$as$u20$core..ops..try_trait..Try$GT$6branch17hbb1596e451a5e190E, .Lfunc_end160-_ZN79_$LT$core..result..Result$LT$T$C$E$GT$$u20$as$u20$core..ops..try_trait..Try$GT$6branch17hbb1596e451a5e190E
	.cfi_endproc

	.section	".text._ZN79_$LT$core..result..Result$LT$T$C$E$GT$$u20$as$u20$core..ops..try_trait..Try$GT$6branch17hcb92246d906f2544E","ax",@progbits
	.p2align	4, 0x90
	.type	_ZN79_$LT$core..result..Result$LT$T$C$E$GT$$u20$as$u20$core..ops..try_trait..Try$GT$6branch17hcb92246d906f2544E,@function
_ZN79_$LT$core..result..Result$LT$T$C$E$GT$$u20$as$u20$core..ops..try_trait..Try$GT$6branch17hcb92246d906f2544E:
	.cfi_startproc
	subq	$216, %rsp
	.cfi_def_cfa_offset 224
	movq	%rsi, 8(%rsp)
	movq	%rdi, 16(%rsp)
	movq	%rdi, 24(%rsp)
	xorl	%eax, %eax
	movl	$1, %ecx
	cmpq	$2, (%rsi)
	cmoveq	%rcx, %rax
	cmpq	$0, %rax
	jne	.LBB161_2
	movq	8(%rsp), %rsi
	leaq	32(%rsp), %rdi
	movl	$176, %edx
	callq	memcpy@PLT
	movq	16(%rsp), %rdi
	leaq	32(%rsp), %rsi
	movl	$176, %edx
	callq	memcpy@PLT
	jmp	.LBB161_3
.LBB161_2:
	movq	16(%rsp), %rax
	movq	8(%rsp), %rcx
	movq	8(%rcx), %rcx
	movq	%rcx, 208(%rsp)
	movq	208(%rsp), %rcx
	movq	%rcx, 8(%rax)
	movq	$2, (%rax)
.LBB161_3:
	movq	24(%rsp), %rax
	addq	$216, %rsp
	.cfi_def_cfa_offset 8
	retq
.Lfunc_end161:
	.size	_ZN79_$LT$core..result..Result$LT$T$C$E$GT$$u20$as$u20$core..ops..try_trait..Try$GT$6branch17hcb92246d906f2544E, .Lfunc_end161-_ZN79_$LT$core..result..Result$LT$T$C$E$GT$$u20$as$u20$core..ops..try_trait..Try$GT$6branch17hcb92246d906f2544E
	.cfi_endproc

	.section	".text._ZN79_$LT$core..result..Result$LT$T$C$E$GT$$u20$as$u20$core..ops..try_trait..Try$GT$6branch17he29ca69f2995b9dcE","ax",@progbits
	.p2align	4, 0x90
	.type	_ZN79_$LT$core..result..Result$LT$T$C$E$GT$$u20$as$u20$core..ops..try_trait..Try$GT$6branch17he29ca69f2995b9dcE,@function
_ZN79_$LT$core..result..Result$LT$T$C$E$GT$$u20$as$u20$core..ops..try_trait..Try$GT$6branch17he29ca69f2995b9dcE:
	.cfi_startproc
	movq	%rsi, -32(%rsp)
	movq	%rdi, -24(%rsp)
	movq	%rdi, -16(%rsp)
	movl	(%rsi), %eax
	cmpq	$0, %rax
	jne	.LBB162_2
	movq	-24(%rsp), %rax
	movq	-32(%rsp), %rcx
	movl	4(%rcx), %ecx
	movl	%ecx, 4(%rax)
	movl	$0, (%rax)
	jmp	.LBB162_3
.LBB162_2:
	movq	-24(%rsp), %rax
	movq	-32(%rsp), %rcx
	movq	8(%rcx), %rcx
	movq	%rcx, -8(%rsp)
	movq	-8(%rsp), %rcx
	movq	%rcx, 8(%rax)
	movl	$1, (%rax)
.LBB162_3:
	movq	-16(%rsp), %rax
	retq
.Lfunc_end162:
	.size	_ZN79_$LT$core..result..Result$LT$T$C$E$GT$$u20$as$u20$core..ops..try_trait..Try$GT$6branch17he29ca69f2995b9dcE, .Lfunc_end162-_ZN79_$LT$core..result..Result$LT$T$C$E$GT$$u20$as$u20$core..ops..try_trait..Try$GT$6branch17he29ca69f2995b9dcE
	.cfi_endproc

	.section	".text._ZN79_$LT$core..result..Result$LT$T$C$E$GT$$u20$as$u20$std..process..Termination$GT$6report17h7b8ecc069d7ee2adE","ax",@progbits
	.p2align	4, 0x90
	.type	_ZN79_$LT$core..result..Result$LT$T$C$E$GT$$u20$as$u20$std..process..Termination$GT$6report17h7b8ecc069d7ee2adE,@function
_ZN79_$LT$core..result..Result$LT$T$C$E$GT$$u20$as$u20$std..process..Termination$GT$6report17h7b8ecc069d7ee2adE:
.Lfunc_begin20:
	.cfi_startproc
	.cfi_personality 155, DW.ref.rust_eh_personality
	.cfi_lsda 27, .Lexception20
	subq	$120, %rsp
	.cfi_def_cfa_offset 128
	movq	%rdi, (%rsp)
	movq	(%rsp), %rdx
	movl	$1, %eax
	xorl	%ecx, %ecx
	cmpq	$0, %rdx
	cmoveq	%rcx, %rax
	cmpq	$0, %rax
	jne	.LBB163_2
	callq	_ZN54_$LT$$LP$$RP$$u20$as$u20$std..process..Termination$GT$6report17h280a406b9df529b1E
	movb	%al, 15(%rsp)
	jmp	.LBB163_3
.LBB163_2:
	movq	(%rsp), %rax
	movq	%rax, 16(%rsp)
	leaq	16(%rsp), %rax
	movq	%rax, 88(%rsp)
	movq	_ZN58_$LT$std..io..error..Error$u20$as$u20$core..fmt..Debug$GT$3fmt17h6b04c2c6c8f6ac2cE@GOTPCREL(%rip), %rax
	movq	%rax, 96(%rsp)
	movq	88(%rsp), %rcx
	movq	96(%rsp), %rax
	movq	%rcx, 72(%rsp)
	movq	%rax, 80(%rsp)
.Ltmp145:
	leaq	.L__unnamed_21(%rip), %rsi
	leaq	24(%rsp), %rdi
	movl	$2, %edx
	leaq	72(%rsp), %rcx
	movl	$1, %r8d
	callq	_ZN4core3fmt9Arguments6new_v117h3c2740b9046a8f1dE
.Ltmp146:
	jmp	.LBB163_6
.LBB163_3:
	movb	15(%rsp), %al
	addq	$120, %rsp
	.cfi_def_cfa_offset 8
	retq
.LBB163_4:
	.cfi_def_cfa_offset 128
.Ltmp150:
	leaq	16(%rsp), %rdi
	callq	_ZN4core3ptr42drop_in_place$LT$std..io..error..Error$GT$17h8782279d28987bc3E
.Ltmp151:
	jmp	.LBB163_9
.LBB163_5:
.Ltmp149:
	movq	%rax, %rcx
	movl	%edx, %eax
	movq	%rcx, 104(%rsp)
	movl	%eax, 112(%rsp)
	jmp	.LBB163_4
.LBB163_6:
.Ltmp147:
	movq	_ZN3std2io5stdio23attempt_print_to_stderr17h50348edc180b81e9E@GOTPCREL(%rip), %rax
	leaq	24(%rsp), %rdi
	callq	*%rax
.Ltmp148:
	jmp	.LBB163_7
.LBB163_7:
	movb	$1, 15(%rsp)
	leaq	16(%rsp), %rdi
	callq	_ZN4core3ptr42drop_in_place$LT$std..io..error..Error$GT$17h8782279d28987bc3E
	jmp	.LBB163_3
.LBB163_8:
.Ltmp152:
	movq	_ZN4core9panicking16panic_in_cleanup17h76c6e1c84248d3ffE@GOTPCREL(%rip), %rax
	callq	*%rax
.LBB163_9:
	movq	104(%rsp), %rdi
	callq	_Unwind_Resume@PLT
.Lfunc_end163:
	.size	_ZN79_$LT$core..result..Result$LT$T$C$E$GT$$u20$as$u20$std..process..Termination$GT$6report17h7b8ecc069d7ee2adE, .Lfunc_end163-_ZN79_$LT$core..result..Result$LT$T$C$E$GT$$u20$as$u20$std..process..Termination$GT$6report17h7b8ecc069d7ee2adE
	.cfi_endproc
	.section	".gcc_except_table._ZN79_$LT$core..result..Result$LT$T$C$E$GT$$u20$as$u20$std..process..Termination$GT$6report17h7b8ecc069d7ee2adE","a",@progbits
	.p2align	2, 0x0
GCC_except_table163:
.Lexception20:
	.byte	255
	.byte	155
	.uleb128 .Lttbase12-.Lttbaseref12
.Lttbaseref12:
	.byte	1
	.uleb128 .Lcst_end20-.Lcst_begin20
.Lcst_begin20:
	.uleb128 .Lfunc_begin20-.Lfunc_begin20
	.uleb128 .Ltmp145-.Lfunc_begin20
	.byte	0
	.byte	0
	.uleb128 .Ltmp145-.Lfunc_begin20
	.uleb128 .Ltmp146-.Ltmp145
	.uleb128 .Ltmp149-.Lfunc_begin20
	.byte	0
	.uleb128 .Ltmp150-.Lfunc_begin20
	.uleb128 .Ltmp151-.Ltmp150
	.uleb128 .Ltmp152-.Lfunc_begin20
	.byte	1
	.uleb128 .Ltmp147-.Lfunc_begin20
	.uleb128 .Ltmp148-.Ltmp147
	.uleb128 .Ltmp149-.Lfunc_begin20
	.byte	0
	.uleb128 .Ltmp148-.Lfunc_begin20
	.uleb128 .Lfunc_end163-.Ltmp148
	.byte	0
	.byte	0
.Lcst_end20:
	.byte	127
	.byte	0
	.p2align	2, 0x0
.Lttbase12:
	.byte	0
	.p2align	2, 0x0

	.section	".text._ZN81_$LT$alloc..vec..Vec$LT$T$C$A$GT$$u20$as$u20$core..ops..index..Index$LT$I$GT$$GT$5index17h896a42f0c2a81589E","ax",@progbits
	.p2align	4, 0x90
	.type	_ZN81_$LT$alloc..vec..Vec$LT$T$C$A$GT$$u20$as$u20$core..ops..index..Index$LT$I$GT$$GT$5index17h896a42f0c2a81589E,@function
_ZN81_$LT$alloc..vec..Vec$LT$T$C$A$GT$$u20$as$u20$core..ops..index..Index$LT$I$GT$$GT$5index17h896a42f0c2a81589E:
	.cfi_startproc
	subq	$40, %rsp
	.cfi_def_cfa_offset 48
	movq	%rdx, %rcx
	movq	%rsi, (%rsp)
	movq	%rdi, %rax
	movq	(%rsp), %rdi
	movq	8(%rax), %rdx
	movq	16(%rax), %rax
	movq	%rdx, 24(%rsp)
	movq	%rax, 32(%rsp)
	movq	24(%rsp), %rdx
	movq	32(%rsp), %rax
	movq	%rdx, 8(%rsp)
	movq	%rax, 16(%rsp)
	movq	8(%rsp), %rsi
	movq	16(%rsp), %rdx
	callq	_ZN110_$LT$core..ops..range..RangeFrom$LT$usize$GT$$u20$as$u20$core..slice..index..SliceIndex$LT$$u5b$T$u5d$$GT$$GT$5index17h07b75bb495359038E
	addq	$40, %rsp
	.cfi_def_cfa_offset 8
	retq
.Lfunc_end164:
	.size	_ZN81_$LT$alloc..vec..Vec$LT$T$C$A$GT$$u20$as$u20$core..ops..index..Index$LT$I$GT$$GT$5index17h896a42f0c2a81589E, .Lfunc_end164-_ZN81_$LT$alloc..vec..Vec$LT$T$C$A$GT$$u20$as$u20$core..ops..index..Index$LT$I$GT$$GT$5index17h896a42f0c2a81589E
	.cfi_endproc

	.section	".text._ZN86_$LT$alloc..vec..into_iter..IntoIter$LT$T$C$A$GT$$u20$as$u20$core..ops..drop..Drop$GT$4drop17h16b03257dea6c722E","ax",@progbits
	.p2align	4, 0x90
	.type	_ZN86_$LT$alloc..vec..into_iter..IntoIter$LT$T$C$A$GT$$u20$as$u20$core..ops..drop..Drop$GT$4drop17h16b03257dea6c722E,@function
_ZN86_$LT$alloc..vec..into_iter..IntoIter$LT$T$C$A$GT$$u20$as$u20$core..ops..drop..Drop$GT$4drop17h16b03257dea6c722E:
.Lfunc_begin21:
	.cfi_startproc
	.cfi_personality 155, DW.ref.rust_eh_personality
	.cfi_lsda 27, .Lexception21
	subq	$40, %rsp
	.cfi_def_cfa_offset 48
	movq	%rdi, 16(%rsp)
	movq	16(%rsp), %rdi
.Ltmp153:
	callq	_ZN5alloc3vec9into_iter21IntoIter$LT$T$C$A$GT$16as_raw_mut_slice17ha33b0cf4dcd525e4E
.Ltmp154:
	movq	%rdx, (%rsp)
	movq	%rax, 8(%rsp)
	jmp	.LBB165_3
.LBB165_1:
.Ltmp158:
	leaq	16(%rsp), %rdi
	callq	_ZN4core3ptr180drop_in_place$LT$$LT$alloc..vec..into_iter..IntoIter$LT$T$C$A$GT$$u20$as$u20$core..ops..drop..Drop$GT$..drop..DropGuard$LT$std..ffi..os_str..OsString$C$alloc..alloc..Global$GT$$GT$17hdbe9d5819a53565bE
.Ltmp159:
	jmp	.LBB165_6
.LBB165_2:
.Ltmp157:
	movq	%rax, %rcx
	movl	%edx, %eax
	movq	%rcx, 24(%rsp)
	movl	%eax, 32(%rsp)
	jmp	.LBB165_1
.LBB165_3:
.Ltmp155:
	movq	(%rsp), %rsi
	movq	8(%rsp), %rdi
	callq	_ZN4core3ptr57drop_in_place$LT$$u5b$std..ffi..os_str..OsString$u5d$$GT$17h8f7ccf905a60aa12E
.Ltmp156:
	jmp	.LBB165_4
.LBB165_4:
	leaq	16(%rsp), %rdi
	callq	_ZN4core3ptr180drop_in_place$LT$$LT$alloc..vec..into_iter..IntoIter$LT$T$C$A$GT$$u20$as$u20$core..ops..drop..Drop$GT$..drop..DropGuard$LT$std..ffi..os_str..OsString$C$alloc..alloc..Global$GT$$GT$17hdbe9d5819a53565bE
	addq	$40, %rsp
	.cfi_def_cfa_offset 8
	retq
.LBB165_5:
	.cfi_def_cfa_offset 48
.Ltmp160:
	movq	_ZN4core9panicking16panic_in_cleanup17h76c6e1c84248d3ffE@GOTPCREL(%rip), %rax
	callq	*%rax
.LBB165_6:
	movq	24(%rsp), %rdi
	callq	_Unwind_Resume@PLT
.Lfunc_end165:
	.size	_ZN86_$LT$alloc..vec..into_iter..IntoIter$LT$T$C$A$GT$$u20$as$u20$core..ops..drop..Drop$GT$4drop17h16b03257dea6c722E, .Lfunc_end165-_ZN86_$LT$alloc..vec..into_iter..IntoIter$LT$T$C$A$GT$$u20$as$u20$core..ops..drop..Drop$GT$4drop17h16b03257dea6c722E
	.cfi_endproc
	.section	".gcc_except_table._ZN86_$LT$alloc..vec..into_iter..IntoIter$LT$T$C$A$GT$$u20$as$u20$core..ops..drop..Drop$GT$4drop17h16b03257dea6c722E","a",@progbits
	.p2align	2, 0x0
GCC_except_table165:
.Lexception21:
	.byte	255
	.byte	155
	.uleb128 .Lttbase13-.Lttbaseref13
.Lttbaseref13:
	.byte	1
	.uleb128 .Lcst_end21-.Lcst_begin21
.Lcst_begin21:
	.uleb128 .Ltmp153-.Lfunc_begin21
	.uleb128 .Ltmp154-.Ltmp153
	.uleb128 .Ltmp157-.Lfunc_begin21
	.byte	0
	.uleb128 .Ltmp158-.Lfunc_begin21
	.uleb128 .Ltmp159-.Ltmp158
	.uleb128 .Ltmp160-.Lfunc_begin21
	.byte	1
	.uleb128 .Ltmp155-.Lfunc_begin21
	.uleb128 .Ltmp156-.Ltmp155
	.uleb128 .Ltmp157-.Lfunc_begin21
	.byte	0
	.uleb128 .Ltmp156-.Lfunc_begin21
	.uleb128 .Lfunc_end165-.Ltmp156
	.byte	0
	.byte	0
.Lcst_end21:
	.byte	127
	.byte	0
	.p2align	2, 0x0
.Lttbase13:
	.byte	0
	.p2align	2, 0x0

	.section	".text._ZN86_$LT$alloc..vec..into_iter..IntoIter$LT$T$C$A$GT$$u20$as$u20$core..ops..drop..Drop$GT$4drop17h6713010f926e1955E","ax",@progbits
	.p2align	4, 0x90
	.type	_ZN86_$LT$alloc..vec..into_iter..IntoIter$LT$T$C$A$GT$$u20$as$u20$core..ops..drop..Drop$GT$4drop17h6713010f926e1955E,@function
_ZN86_$LT$alloc..vec..into_iter..IntoIter$LT$T$C$A$GT$$u20$as$u20$core..ops..drop..Drop$GT$4drop17h6713010f926e1955E:
.Lfunc_begin22:
	.cfi_startproc
	.cfi_personality 155, DW.ref.rust_eh_personality
	.cfi_lsda 27, .Lexception22
	subq	$24, %rsp
	.cfi_def_cfa_offset 32
	movq	%rdi, (%rsp)
	movq	(%rsp), %rdi
.Ltmp161:
	callq	_ZN5alloc3vec9into_iter21IntoIter$LT$T$C$A$GT$16as_raw_mut_slice17h866864bf1d167c1fE
.Ltmp162:
	jmp	.LBB166_3
.LBB166_1:
.Ltmp164:
	movq	%rsp, %rdi
	callq	_ZN4core3ptr179drop_in_place$LT$$LT$alloc..vec..into_iter..IntoIter$LT$T$C$A$GT$$u20$as$u20$core..ops..drop..Drop$GT$..drop..DropGuard$LT$$RF$alloc..string..String$C$alloc..alloc..Global$GT$$GT$17hf972de96fa3258f6E
.Ltmp165:
	jmp	.LBB166_6
.LBB166_2:
.Ltmp163:
	movq	%rax, %rcx
	movl	%edx, %eax
	movq	%rcx, 8(%rsp)
	movl	%eax, 16(%rsp)
	jmp	.LBB166_1
.LBB166_3:
	movq	%rsp, %rdi
	callq	_ZN4core3ptr179drop_in_place$LT$$LT$alloc..vec..into_iter..IntoIter$LT$T$C$A$GT$$u20$as$u20$core..ops..drop..Drop$GT$..drop..DropGuard$LT$$RF$alloc..string..String$C$alloc..alloc..Global$GT$$GT$17hf972de96fa3258f6E
	addq	$24, %rsp
	.cfi_def_cfa_offset 8
	retq
.LBB166_5:
	.cfi_def_cfa_offset 32
.Ltmp166:
	movq	_ZN4core9panicking16panic_in_cleanup17h76c6e1c84248d3ffE@GOTPCREL(%rip), %rax
	callq	*%rax
.LBB166_6:
	movq	8(%rsp), %rdi
	callq	_Unwind_Resume@PLT
.Lfunc_end166:
	.size	_ZN86_$LT$alloc..vec..into_iter..IntoIter$LT$T$C$A$GT$$u20$as$u20$core..ops..drop..Drop$GT$4drop17h6713010f926e1955E, .Lfunc_end166-_ZN86_$LT$alloc..vec..into_iter..IntoIter$LT$T$C$A$GT$$u20$as$u20$core..ops..drop..Drop$GT$4drop17h6713010f926e1955E
	.cfi_endproc
	.section	".gcc_except_table._ZN86_$LT$alloc..vec..into_iter..IntoIter$LT$T$C$A$GT$$u20$as$u20$core..ops..drop..Drop$GT$4drop17h6713010f926e1955E","a",@progbits
	.p2align	2, 0x0
GCC_except_table166:
.Lexception22:
	.byte	255
	.byte	155
	.uleb128 .Lttbase14-.Lttbaseref14
.Lttbaseref14:
	.byte	1
	.uleb128 .Lcst_end22-.Lcst_begin22
.Lcst_begin22:
	.uleb128 .Ltmp161-.Lfunc_begin22
	.uleb128 .Ltmp162-.Ltmp161
	.uleb128 .Ltmp163-.Lfunc_begin22
	.byte	0
	.uleb128 .Ltmp164-.Lfunc_begin22
	.uleb128 .Ltmp165-.Ltmp164
	.uleb128 .Ltmp166-.Lfunc_begin22
	.byte	1
	.uleb128 .Ltmp165-.Lfunc_begin22
	.uleb128 .Lfunc_end166-.Ltmp165
	.byte	0
	.byte	0
.Lcst_end22:
	.byte	127
	.byte	0
	.p2align	2, 0x0
.Lttbase14:
	.byte	0
	.p2align	2, 0x0

	.section	".text._ZN90_$LT$alloc..vec..Vec$LT$T$C$A$GT$$u20$as$u20$core..iter..traits..collect..IntoIterator$GT$9into_iter17h180edc8934222b6eE","ax",@progbits
	.p2align	4, 0x90
	.type	_ZN90_$LT$alloc..vec..Vec$LT$T$C$A$GT$$u20$as$u20$core..iter..traits..collect..IntoIterator$GT$9into_iter17h180edc8934222b6eE,@function
_ZN90_$LT$alloc..vec..Vec$LT$T$C$A$GT$$u20$as$u20$core..iter..traits..collect..IntoIterator$GT$9into_iter17h180edc8934222b6eE:
	.cfi_startproc
	movq	%rdi, -96(%rsp)
	movq	%rdi, -88(%rsp)
	movq	(%rsi), %rax
	movq	%rax, -72(%rsp)
	movq	8(%rsi), %rax
	movq	%rax, -64(%rsp)
	movq	16(%rsi), %rax
	movq	%rax, -56(%rsp)
	movq	-64(%rsp), %rax
	movq	%rax, -80(%rsp)
	xorl	%eax, %eax
	testb	$1, %al
	jne	.LBB167_2
	movq	-80(%rsp), %rax
	movq	-56(%rsp), %rcx
	shlq	$3, %rcx
	addq	%rcx, %rax
	movq	%rax, -48(%rsp)
	jmp	.LBB167_3
.LBB167_2:
	movq	-80(%rsp), %rax
	addq	-56(%rsp), %rax
	movq	%rax, -8(%rsp)
	movq	-8(%rsp), %rax
	movq	%rax, -16(%rsp)
	movq	-16(%rsp), %rax
	movq	%rax, -24(%rsp)
	movq	-24(%rsp), %rax
	movq	%rax, -48(%rsp)
.LBB167_3:
	xorl	%eax, %eax
	testb	$1, %al
	jne	.LBB167_5
	jmp	.LBB167_4
.LBB167_4:
	movq	-72(%rsp), %rax
	movq	%rax, -40(%rsp)
	jmp	.LBB167_6
.LBB167_5:
	movq	$-1, -40(%rsp)
.LBB167_6:
	movq	-88(%rsp), %rax
	movq	-96(%rsp), %rcx
	movq	-80(%rsp), %rdx
	movq	%rdx, -32(%rsp)
	movq	-40(%rsp), %rsi
	movq	-48(%rsp), %rdx
	movq	-32(%rsp), %rdi
	movq	%rdi, (%rcx)
	movq	%rsi, 16(%rcx)
	movq	-32(%rsp), %rsi
	movq	%rsi, 8(%rcx)
	movq	%rdx, 24(%rcx)
	retq
.Lfunc_end167:
	.size	_ZN90_$LT$alloc..vec..Vec$LT$T$C$A$GT$$u20$as$u20$core..iter..traits..collect..IntoIterator$GT$9into_iter17h180edc8934222b6eE, .Lfunc_end167-_ZN90_$LT$alloc..vec..Vec$LT$T$C$A$GT$$u20$as$u20$core..iter..traits..collect..IntoIterator$GT$9into_iter17h180edc8934222b6eE
	.cfi_endproc

	.section	".text._ZN91_$LT$core..slice..iter..Iter$LT$T$GT$$u20$as$u20$core..iter..traits..iterator..Iterator$GT$4next17h2fc8fefadf83b117E","ax",@progbits
	.p2align	4, 0x90
	.type	_ZN91_$LT$core..slice..iter..Iter$LT$T$GT$$u20$as$u20$core..iter..traits..iterator..Iterator$GT$4next17h2fc8fefadf83b117E,@function
_ZN91_$LT$core..slice..iter..Iter$LT$T$GT$$u20$as$u20$core..iter..traits..iterator..Iterator$GT$4next17h2fc8fefadf83b117E:
	.cfi_startproc
	movq	%rdi, -48(%rsp)
	xorl	%eax, %eax
	testb	$1, %al
	jne	.LBB168_2
	movq	-48(%rsp), %rax
	movq	8(%rax), %rcx
	movq	%rcx, -24(%rsp)
	movq	(%rax), %rax
	cmpq	-24(%rsp), %rax
	sete	%al
	andb	$1, %al
	movb	%al, -25(%rsp)
	jmp	.LBB168_3
.LBB168_2:
	movq	-48(%rsp), %rax
	movq	8(%rax), %rax
	cmpq	$0, %rax
	sete	%al
	andb	$1, %al
	movb	%al, -25(%rsp)
.LBB168_3:
	testb	$1, -25(%rsp)
	jne	.LBB168_5
	movq	-48(%rsp), %rax
	movq	(%rax), %rax
	movq	%rax, -16(%rsp)
	xorl	%eax, %eax
	testb	$1, %al
	jne	.LBB168_7
	jmp	.LBB168_6
.LBB168_5:
	movq	$0, -40(%rsp)
	jmp	.LBB168_9
.LBB168_6:
	movq	-48(%rsp), %rax
	movq	(%rax), %rcx
	addq	$24, %rcx
	movq	%rcx, -8(%rsp)
	movq	-8(%rsp), %rcx
	movq	%rcx, (%rax)
	jmp	.LBB168_8
.LBB168_7:
	movq	-48(%rsp), %rax
	movq	8(%rax), %rcx
	subq	$1, %rcx
	movq	%rcx, 8(%rax)
.LBB168_8:
	movq	-16(%rsp), %rax
	movq	%rax, -40(%rsp)
.LBB168_9:
	movq	-40(%rsp), %rax
	retq
.Lfunc_end168:
	.size	_ZN91_$LT$core..slice..iter..Iter$LT$T$GT$$u20$as$u20$core..iter..traits..iterator..Iterator$GT$4next17h2fc8fefadf83b117E, .Lfunc_end168-_ZN91_$LT$core..slice..iter..Iter$LT$T$GT$$u20$as$u20$core..iter..traits..iterator..Iterator$GT$4next17h2fc8fefadf83b117E
	.cfi_endproc

	.section	".text._ZN95_$LT$alloc..vec..Vec$LT$T$GT$$u20$as$u20$core..iter..traits..collect..FromIterator$LT$T$GT$$GT$9from_iter17hb4db25c75fb1d6fcE","ax",@progbits
	.p2align	4, 0x90
	.type	_ZN95_$LT$alloc..vec..Vec$LT$T$GT$$u20$as$u20$core..iter..traits..collect..FromIterator$LT$T$GT$$GT$9from_iter17hb4db25c75fb1d6fcE,@function
_ZN95_$LT$alloc..vec..Vec$LT$T$GT$$u20$as$u20$core..iter..traits..collect..FromIterator$LT$T$GT$$GT$9from_iter17hb4db25c75fb1d6fcE:
	.cfi_startproc
	subq	$56, %rsp
	.cfi_def_cfa_offset 64
	movq	%rdi, 8(%rsp)
	movq	%rdi, 16(%rsp)
	leaq	24(%rsp), %rdi
	callq	_ZN63_$LT$I$u20$as$u20$core..iter..traits..collect..IntoIterator$GT$9into_iter17h97f5ed57537fee35E
	movq	8(%rsp), %rdi
	leaq	24(%rsp), %rsi
	callq	_ZN98_$LT$alloc..vec..Vec$LT$T$GT$$u20$as$u20$alloc..vec..spec_from_iter..SpecFromIter$LT$T$C$I$GT$$GT$9from_iter17h33119b2a14f5bf75E
	movq	16(%rsp), %rax
	addq	$56, %rsp
	.cfi_def_cfa_offset 8
	retq
.Lfunc_end169:
	.size	_ZN95_$LT$alloc..vec..Vec$LT$T$GT$$u20$as$u20$core..iter..traits..collect..FromIterator$LT$T$GT$$GT$9from_iter17hb4db25c75fb1d6fcE, .Lfunc_end169-_ZN95_$LT$alloc..vec..Vec$LT$T$GT$$u20$as$u20$core..iter..traits..collect..FromIterator$LT$T$GT$$GT$9from_iter17hb4db25c75fb1d6fcE
	.cfi_endproc

	.section	".text._ZN97_$LT$alloc..vec..Vec$LT$T$C$A$GT$$u20$as$u20$alloc..vec..spec_extend..SpecExtend$LT$T$C$I$GT$$GT$11spec_extend17h03c72baa7a4b0874E","ax",@progbits
	.p2align	4, 0x90
	.type	_ZN97_$LT$alloc..vec..Vec$LT$T$C$A$GT$$u20$as$u20$alloc..vec..spec_extend..SpecExtend$LT$T$C$I$GT$$GT$11spec_extend17h03c72baa7a4b0874E,@function
_ZN97_$LT$alloc..vec..Vec$LT$T$C$A$GT$$u20$as$u20$alloc..vec..spec_extend..SpecExtend$LT$T$C$I$GT$$GT$11spec_extend17h03c72baa7a4b0874E:
	.cfi_startproc
	pushq	%rax
	.cfi_def_cfa_offset 16
	callq	_ZN5alloc3vec16Vec$LT$T$C$A$GT$16extend_desugared17h0168c85d7da1e8b9E
	popq	%rax
	.cfi_def_cfa_offset 8
	retq
.Lfunc_end170:
	.size	_ZN97_$LT$alloc..vec..Vec$LT$T$C$A$GT$$u20$as$u20$alloc..vec..spec_extend..SpecExtend$LT$T$C$I$GT$$GT$11spec_extend17h03c72baa7a4b0874E, .Lfunc_end170-_ZN97_$LT$alloc..vec..Vec$LT$T$C$A$GT$$u20$as$u20$alloc..vec..spec_extend..SpecExtend$LT$T$C$I$GT$$GT$11spec_extend17h03c72baa7a4b0874E
	.cfi_endproc

	.section	".text._ZN98_$LT$alloc..vec..Vec$LT$T$GT$$u20$as$u20$alloc..vec..spec_from_iter..SpecFromIter$LT$T$C$I$GT$$GT$9from_iter17h33119b2a14f5bf75E","ax",@progbits
	.p2align	4, 0x90
	.type	_ZN98_$LT$alloc..vec..Vec$LT$T$GT$$u20$as$u20$alloc..vec..spec_from_iter..SpecFromIter$LT$T$C$I$GT$$GT$9from_iter17h33119b2a14f5bf75E,@function
_ZN98_$LT$alloc..vec..Vec$LT$T$GT$$u20$as$u20$alloc..vec..spec_from_iter..SpecFromIter$LT$T$C$I$GT$$GT$9from_iter17h33119b2a14f5bf75E:
	.cfi_startproc
	pushq	%rax
	.cfi_def_cfa_offset 16
	movq	%rdi, %rax
	movq	%rax, (%rsp)
	callq	_ZN111_$LT$alloc..vec..Vec$LT$T$GT$$u20$as$u20$alloc..vec..spec_from_iter_nested..SpecFromIterNested$LT$T$C$I$GT$$GT$9from_iter17h1d53fec18d0405b5E
	movq	(%rsp), %rax
	popq	%rcx
	.cfi_def_cfa_offset 8
	retq
.Lfunc_end171:
	.size	_ZN98_$LT$alloc..vec..Vec$LT$T$GT$$u20$as$u20$alloc..vec..spec_from_iter..SpecFromIter$LT$T$C$I$GT$$GT$9from_iter17h33119b2a14f5bf75E, .Lfunc_end171-_ZN98_$LT$alloc..vec..Vec$LT$T$GT$$u20$as$u20$alloc..vec..spec_from_iter..SpecFromIter$LT$T$C$I$GT$$GT$9from_iter17h33119b2a14f5bf75E
	.cfi_endproc

	.section	.text._ZN2ls14list_directory17h565c4d931ae77bacE,"ax",@progbits
	.p2align	4, 0x90
	.type	_ZN2ls14list_directory17h565c4d931ae77bacE,@function
_ZN2ls14list_directory17h565c4d931ae77bacE:
.Lfunc_begin23:
	.cfi_startproc
	.cfi_personality 155, DW.ref.rust_eh_personality
	.cfi_lsda 27, .Lexception23
	subq	$1864, %rsp
	.cfi_def_cfa_offset 1872
	movl	%edx, %eax
	movq	%rsi, %rdx
	movq	%rdi, %rsi
	movb	%r8b, %dil
	movb	%dil, 309(%rsp)
	movb	%cl, 310(%rsp)
	movb	%al, 311(%rsp)
	movb	$0, 1767(%rsp)
	leaq	352(%rsp), %rdi
	callq	_ZN3std2fs8read_dir17ha54d8b07416f68aeE
	leaq	336(%rsp), %rdi
	leaq	352(%rsp), %rsi
	callq	_ZN79_$LT$core..result..Result$LT$T$C$E$GT$$u20$as$u20$core..ops..try_trait..Try$GT$6branch17h75d9981166f2f7e8E
	xorl	%eax, %eax
	movl	$1, %ecx
	cmpb	$2, 344(%rsp)
	cmoveq	%rcx, %rax
	cmpq	$0, %rax
	jne	.LBB172_2
	movq	336(%rsp), %rcx
	movb	344(%rsp), %al
	movb	$1, 1767(%rsp)
	movq	%rcx, 320(%rsp)
	movb	%al, 328(%rsp)
	movb	$0, 1767(%rsp)
	movq	320(%rsp), %rdi
	movzbl	328(%rsp), %esi
.Ltmp167:
	callq	_ZN63_$LT$I$u20$as$u20$core..iter..traits..collect..IntoIterator$GT$9into_iter17h3fa0b549596e129dE
.Ltmp168:
	movb	%dl, 295(%rsp)
	movq	%rax, 296(%rsp)
	jmp	.LBB172_5
.LBB172_2:
	movq	336(%rsp), %rdi
	leaq	.L__unnamed_22(%rip), %rsi
	callq	_ZN153_$LT$core..result..Result$LT$T$C$F$GT$$u20$as$u20$core..ops..try_trait..FromResidual$LT$core..result..Result$LT$core..convert..Infallible$C$E$GT$$GT$$GT$13from_residual17h65ca92f81b5f262eE
	movq	%rax, 312(%rsp)
	jmp	.LBB172_95
.LBB172_3:
	testb	$1, 1767(%rsp)
	jne	.LBB172_97
	jmp	.LBB172_96
.LBB172_4:
.Ltmp286:
	movq	%rax, %rcx
	movl	%edx, %eax
	movq	%rcx, 1768(%rsp)
	movl	%eax, 1776(%rsp)
	jmp	.LBB172_3
.LBB172_5:
	movb	295(%rsp), %al
	movq	296(%rsp), %rcx
	movq	%rcx, 368(%rsp)
	andb	$1, %al
	movb	%al, 376(%rsp)
.LBB172_6:
.Ltmp169:
	movq	_ZN75_$LT$std..fs..ReadDir$u20$as$u20$core..iter..traits..iterator..Iterator$GT$4next17h1b3ca9fa8849412dE@GOTPCREL(%rip), %rax
	leaq	384(%rsp), %rdi
	leaq	368(%rsp), %rsi
	callq	*%rax
.Ltmp170:
	jmp	.LBB172_9
.LBB172_7:
.Ltmp282:
	leaq	368(%rsp), %rdi
	callq	_ZN4core3ptr37drop_in_place$LT$std..fs..ReadDir$GT$17ha07c4db12129cbaeE
.Ltmp283:
	jmp	.LBB172_3
.LBB172_8:
.Ltmp281:
	movq	%rax, %rcx
	movl	%edx, %eax
	movq	%rcx, 1768(%rsp)
	movl	%eax, 1776(%rsp)
	jmp	.LBB172_7
.LBB172_9:
	cmpq	$0, 384(%rsp)
	jne	.LBB172_11
.Ltmp284:
	leaq	368(%rsp), %rdi
	callq	_ZN4core3ptr37drop_in_place$LT$std..fs..ReadDir$GT$17ha07c4db12129cbaeE
.Ltmp285:
	jmp	.LBB172_12
.LBB172_11:
	movq	424(%rsp), %rax
	movq	%rax, 464(%rsp)
	movups	392(%rsp), %xmm0
	movups	408(%rsp), %xmm1
	movaps	%xmm1, 448(%rsp)
	movaps	%xmm0, 432(%rsp)
.Ltmp171:
	leaq	520(%rsp), %rdi
	leaq	432(%rsp), %rsi
	callq	_ZN79_$LT$core..result..Result$LT$T$C$E$GT$$u20$as$u20$core..ops..try_trait..Try$GT$6branch17h7ebbad92feaa2945E
.Ltmp172:
	jmp	.LBB172_14
.LBB172_12:
	movq	$0, 312(%rsp)
	movb	$0, 1767(%rsp)
.LBB172_13:
	movq	312(%rsp), %rax
	addq	$1864, %rsp
	.cfi_def_cfa_offset 8
	retq
.LBB172_14:
	.cfi_def_cfa_offset 1872
	movq	520(%rsp), %rdx
	xorl	%eax, %eax
	movl	$1, %ecx
	cmpq	$0, %rdx
	cmoveq	%rcx, %rax
	cmpq	$0, %rax
	jne	.LBB172_16
	movq	552(%rsp), %rax
	movq	%rax, 592(%rsp)
	movups	520(%rsp), %xmm0
	movups	536(%rsp), %xmm1
	movaps	%xmm1, 576(%rsp)
	movaps	%xmm0, 560(%rsp)
	movq	592(%rsp), %rax
	movq	%rax, 512(%rsp)
	movaps	560(%rsp), %xmm0
	movaps	576(%rsp), %xmm1
	movaps	%xmm1, 496(%rsp)
	movaps	%xmm0, 480(%rsp)
.Ltmp175:
	movq	_ZN3std2fs8DirEntry9file_name17hd7520d5bb9652e04E@GOTPCREL(%rip), %rax
	leaq	600(%rsp), %rdi
	leaq	480(%rsp), %rsi
	callq	*%rax
.Ltmp176:
	jmp	.LBB172_19
.LBB172_16:
	movq	528(%rsp), %rdi
.Ltmp173:
	leaq	.L__unnamed_23(%rip), %rsi
	callq	_ZN153_$LT$core..result..Result$LT$T$C$F$GT$$u20$as$u20$core..ops..try_trait..FromResidual$LT$core..result..Result$LT$core..convert..Infallible$C$E$GT$$GT$$GT$13from_residual17h65ca92f81b5f262eE
.Ltmp174:
	movq	%rax, 280(%rsp)
	jmp	.LBB172_94
.LBB172_17:
.Ltmp277:
	leaq	480(%rsp), %rdi
	callq	_ZN4core3ptr38drop_in_place$LT$std..fs..DirEntry$GT$17h0cf48b2f6d6d786aE
.Ltmp278:
	jmp	.LBB172_7
.LBB172_18:
.Ltmp276:
	movq	%rax, %rcx
	movl	%edx, %eax
	movq	%rcx, 1768(%rsp)
	movl	%eax, 1776(%rsp)
	jmp	.LBB172_17
.LBB172_19:
.Ltmp177:
	leaq	600(%rsp), %rdi
	callq	_ZN70_$LT$std..ffi..os_str..OsString$u20$as$u20$core..ops..deref..Deref$GT$5deref17h765af8dcc7afa305E
.Ltmp178:
	movq	%rdx, 264(%rsp)
	movq	%rax, 272(%rsp)
	jmp	.LBB172_22
.LBB172_20:
.Ltmp272:
	leaq	600(%rsp), %rdi
	callq	_ZN4core3ptr47drop_in_place$LT$std..ffi..os_str..OsString$GT$17hb7ec0db92b1ca403E
.Ltmp273:
	jmp	.LBB172_17
.LBB172_21:
.Ltmp271:
	movq	%rax, %rcx
	movl	%edx, %eax
	movq	%rcx, 1768(%rsp)
	movl	%eax, 1776(%rsp)
	jmp	.LBB172_20
.LBB172_22:
.Ltmp179:
	movq	264(%rsp), %rdx
	movq	272(%rsp), %rsi
	leaq	624(%rsp), %rdi
	callq	_ZN3std3ffi6os_str5OsStr15to_string_lossy17hd15181ab92a53af0E
.Ltmp180:
	jmp	.LBB172_23
.LBB172_23:
	movb	310(%rsp), %al
	testb	$1, %al
	jne	.LBB172_25
	jmp	.LBB172_24
.LBB172_24:
.Ltmp181:
	leaq	624(%rsp), %rdi
	callq	_ZN71_$LT$alloc..borrow..Cow$LT$B$GT$$u20$as$u20$core..ops..deref..Deref$GT$5deref17h47b618e8d850e33fE
.Ltmp182:
	movq	%rdx, 248(%rsp)
	movq	%rax, 256(%rsp)
	jmp	.LBB172_28
.LBB172_25:
	movb	311(%rsp), %al
	testb	$1, %al
	jne	.LBB172_34
	jmp	.LBB172_33
.LBB172_26:
.Ltmp267:
	leaq	624(%rsp), %rdi
	callq	_ZN4core3ptr50drop_in_place$LT$alloc..borrow..Cow$LT$str$GT$$GT$17h31a476972b49ef5fE
.Ltmp268:
	jmp	.LBB172_20
.LBB172_27:
.Ltmp266:
	movq	%rax, %rcx
	movl	%edx, %eax
	movq	%rcx, 1768(%rsp)
	movl	%eax, 1776(%rsp)
	jmp	.LBB172_26
.LBB172_28:
.Ltmp183:
	movq	248(%rsp), %rsi
	movq	256(%rsp), %rdi
	leaq	.L__unnamed_24(%rip), %rdx
	movl	$1, %ecx
	callq	_ZN4core3str21_$LT$impl$u20$str$GT$11starts_with17h9e007cc372642f92E
.Ltmp184:
	movb	%al, 247(%rsp)
	jmp	.LBB172_29
.LBB172_29:
	movb	247(%rsp), %al
	testb	$1, %al
	jne	.LBB172_30
	jmp	.LBB172_25
.LBB172_30:
.Ltmp185:
	leaq	624(%rsp), %rdi
	callq	_ZN4core3ptr50drop_in_place$LT$alloc..borrow..Cow$LT$str$GT$$GT$17h31a476972b49ef5fE
.Ltmp186:
	jmp	.LBB172_31
.LBB172_31:
.Ltmp187:
	leaq	600(%rsp), %rdi
	callq	_ZN4core3ptr47drop_in_place$LT$std..ffi..os_str..OsString$GT$17hb7ec0db92b1ca403E
.Ltmp188:
	jmp	.LBB172_32
.LBB172_32:
.Ltmp189:
	leaq	480(%rsp), %rdi
	callq	_ZN4core3ptr38drop_in_place$LT$std..fs..DirEntry$GT$17h0cf48b2f6d6d786aE
.Ltmp190:
	jmp	.LBB172_6
.LBB172_33:
	leaq	624(%rsp), %rax
	movq	%rax, 1800(%rsp)
	leaq	_ZN66_$LT$alloc..borrow..Cow$LT$B$GT$$u20$as$u20$core..fmt..Display$GT$3fmt17had416f3853a9945aE(%rip), %rax
	movq	%rax, 1808(%rsp)
	movq	1800(%rsp), %rax
	movq	%rax, 224(%rsp)
	movq	1808(%rsp), %rax
	movq	%rax, 232(%rsp)
	jmp	.LBB172_35
.LBB172_34:
.Ltmp195:
	movq	_ZN3std2fs8DirEntry8metadata17h8035ff1d9a3d29a6E@GOTPCREL(%rip), %rax
	leaq	1000(%rsp), %rdi
	leaq	480(%rsp), %rsi
	callq	*%rax
.Ltmp196:
	jmp	.LBB172_39
.LBB172_35:
	movq	232(%rsp), %rax
	movq	224(%rsp), %rcx
	movq	%rcx, 1624(%rsp)
	movq	%rax, 1632(%rsp)
.Ltmp191:
	leaq	.L__unnamed_25(%rip), %rsi
	leaq	1576(%rsp), %rdi
	movl	$2, %edx
	leaq	1624(%rsp), %rcx
	movl	$1, %r8d
	callq	_ZN4core3fmt9Arguments6new_v117h3c2740b9046a8f1dE
.Ltmp192:
	jmp	.LBB172_36
.LBB172_36:
.Ltmp193:
	movq	_ZN3std2io5stdio6_print17h23230f9b1dbda932E@GOTPCREL(%rip), %rax
	leaq	1576(%rsp), %rdi
	callq	*%rax
.Ltmp194:
	jmp	.LBB172_37
.LBB172_37:
	jmp	.LBB172_38
.LBB172_38:
	movb	309(%rsp), %al
	testb	$1, %al
	jne	.LBB172_63
	jmp	.LBB172_62
.LBB172_39:
.Ltmp197:
	leaq	824(%rsp), %rdi
	leaq	1000(%rsp), %rsi
	callq	_ZN79_$LT$core..result..Result$LT$T$C$E$GT$$u20$as$u20$core..ops..try_trait..Try$GT$6branch17hcb92246d906f2544E
.Ltmp198:
	jmp	.LBB172_40
.LBB172_40:
	xorl	%eax, %eax
	movl	$1, %ecx
	cmpq	$2, 824(%rsp)
	cmoveq	%rcx, %rax
	cmpq	$0, %rax
	jne	.LBB172_42
	leaq	1176(%rsp), %rdi
	movq	%rdi, 184(%rsp)
	leaq	824(%rsp), %rsi
	movl	$176, %edx
	movq	%rdx, 192(%rsp)
	movq	memcpy@GOTPCREL(%rip), %rax
	movq	%rax, 200(%rsp)
	callq	*%rax
	movq	184(%rsp), %rsi
	movq	192(%rsp), %rdx
	movq	200(%rsp), %rax
	leaq	648(%rsp), %rdi
	movq	%rdi, 208(%rsp)
	callq	*%rax
	movq	208(%rsp), %rdi
.Ltmp201:
	callq	_ZN68_$LT$std..fs..Metadata$u20$as$u20$std..os..unix..fs..MetadataExt$GT$4mode17h0f35e4880d9e5070E
.Ltmp202:
	movl	%eax, 220(%rsp)
	jmp	.LBB172_43
.LBB172_42:
	movq	832(%rsp), %rdi
.Ltmp199:
	leaq	.L__unnamed_26(%rip), %rsi
	callq	_ZN153_$LT$core..result..Result$LT$T$C$F$GT$$u20$as$u20$core..ops..try_trait..FromResidual$LT$core..result..Result$LT$core..convert..Infallible$C$E$GT$$GT$$GT$13from_residual17h65ca92f81b5f262eE
.Ltmp200:
	movq	%rax, 176(%rsp)
	jmp	.LBB172_90
.LBB172_43:
	movl	220(%rsp), %eax
	movl	%eax, 1356(%rsp)
	leaq	1356(%rsp), %rax
	movq	%rax, 1848(%rsp)
	movq	_ZN4core3fmt3num50_$LT$impl$u20$core..fmt..Octal$u20$for$u20$u32$GT$3fmt17hd16fd8d6dd025e95E@GOTPCREL(%rip), %rax
	movq	%rax, 1856(%rsp)
	movq	1848(%rsp), %rax
	movq	%rax, 160(%rsp)
	movq	1856(%rsp), %rax
	movq	%rax, 168(%rsp)
	movq	168(%rsp), %rax
	movq	160(%rsp), %rcx
	movq	%rcx, 1456(%rsp)
	movq	%rax, 1464(%rsp)
.Ltmp203:
	leaq	.L__unnamed_27(%rip), %rsi
	leaq	1408(%rsp), %rdi
	leaq	1456(%rsp), %rcx
	movl	$1, %r8d
	movq	%r8, %rdx
	callq	_ZN4core3fmt9Arguments6new_v117h3c2740b9046a8f1dE
.Ltmp204:
	jmp	.LBB172_45
.LBB172_45:
.Ltmp205:
	leaq	1384(%rsp), %rdi
	leaq	1408(%rsp), %rsi
	callq	_ZN5alloc3fmt6format17hd965f065ef2c6da8E
.Ltmp206:
	jmp	.LBB172_46
.LBB172_46:
	movq	1400(%rsp), %rax
	movq	%rax, 1376(%rsp)
	movups	1384(%rsp), %xmm0
	movaps	%xmm0, 1360(%rsp)
.Ltmp207:
	leaq	648(%rsp), %rdi
	callq	_ZN3std2fs8Metadata9file_type17ha4c2360132193838E
.Ltmp208:
	movl	%eax, 156(%rsp)
	jmp	.LBB172_49
.LBB172_47:
.Ltmp218:
	leaq	1360(%rsp), %rdi
	callq	_ZN4core3ptr42drop_in_place$LT$alloc..string..String$GT$17h592997dd52716563E
.Ltmp219:
	jmp	.LBB172_26
.LBB172_48:
.Ltmp217:
	movq	%rax, %rcx
	movl	%edx, %eax
	movq	%rcx, 1768(%rsp)
	movl	%eax, 1776(%rsp)
	jmp	.LBB172_47
.LBB172_49:
	movl	156(%rsp), %eax
	movl	%eax, 1472(%rsp)
.Ltmp209:
	leaq	1472(%rsp), %rdi
	callq	_ZN3std2fs8FileType6is_dir17h5e8ddcafda0be701E
.Ltmp210:
	movb	%al, 155(%rsp)
	jmp	.LBB172_50
.LBB172_50:
	movb	155(%rsp), %al
	testb	$1, %al
	jne	.LBB172_52
	jmp	.LBB172_51
.LBB172_51:
.Ltmp211:
	leaq	1472(%rsp), %rdi
	callq	_ZN3std2fs8FileType10is_symlink17hf0f563a364989644E
.Ltmp212:
	movb	%al, 154(%rsp)
	jmp	.LBB172_53
.LBB172_52:
	movl	$100, 1476(%rsp)
	jmp	.LBB172_56
.LBB172_53:
	movb	154(%rsp), %al
	testb	$1, %al
	jne	.LBB172_55
	jmp	.LBB172_54
.LBB172_54:
	movl	$45, 1476(%rsp)
	jmp	.LBB172_56
.LBB172_55:
	movl	$108, 1476(%rsp)
.LBB172_56:
	leaq	1476(%rsp), %rax
	movq	%rax, 1832(%rsp)
	movq	_ZN43_$LT$char$u20$as$u20$core..fmt..Display$GT$3fmt17hc258a753d1999c83E@GOTPCREL(%rip), %rax
	movq	%rax, 1840(%rsp)
	movq	1832(%rsp), %rax
	movq	%rax, 136(%rsp)
	movq	1840(%rsp), %rax
	movq	%rax, 144(%rsp)
	movq	144(%rsp), %rax
	movq	136(%rsp), %rcx
	movq	%rcx, 104(%rsp)
	movq	%rax, 112(%rsp)
	leaq	1360(%rsp), %rax
	movq	%rax, 1816(%rsp)
	leaq	_ZN60_$LT$alloc..string..String$u20$as$u20$core..fmt..Display$GT$3fmt17h8c4ea237b2f99f7fE(%rip), %rax
	movq	%rax, 1824(%rsp)
	movq	1816(%rsp), %rax
	movq	%rax, 120(%rsp)
	movq	1824(%rsp), %rax
	movq	%rax, 128(%rsp)
	movq	128(%rsp), %rax
	movq	120(%rsp), %rcx
	movq	%rcx, 72(%rsp)
	movq	%rax, 80(%rsp)
	leaq	624(%rsp), %rax
	movq	%rax, 1784(%rsp)
	leaq	_ZN66_$LT$alloc..borrow..Cow$LT$B$GT$$u20$as$u20$core..fmt..Display$GT$3fmt17had416f3853a9945aE(%rip), %rax
	movq	%rax, 1792(%rsp)
	movq	1784(%rsp), %rax
	movq	%rax, 88(%rsp)
	movq	1792(%rsp), %rax
	movq	%rax, 96(%rsp)
	movq	96(%rsp), %rax
	movq	88(%rsp), %rcx
	movq	80(%rsp), %rdx
	movq	72(%rsp), %rsi
	movq	112(%rsp), %rdi
	movq	104(%rsp), %r8
	movq	%r8, 1528(%rsp)
	movq	%rdi, 1536(%rsp)
	movq	%rsi, 1544(%rsp)
	movq	%rdx, 1552(%rsp)
	movq	%rcx, 1560(%rsp)
	movq	%rax, 1568(%rsp)
.Ltmp213:
	leaq	.L__unnamed_28(%rip), %rsi
	leaq	1480(%rsp), %rdi
	movl	$4, %edx
	leaq	1528(%rsp), %rcx
	movl	$3, %r8d
	callq	_ZN4core3fmt9Arguments6new_v117h3c2740b9046a8f1dE
.Ltmp214:
	jmp	.LBB172_60
.LBB172_60:
.Ltmp215:
	movq	_ZN3std2io5stdio6_print17h23230f9b1dbda932E@GOTPCREL(%rip), %rax
	leaq	1480(%rsp), %rdi
	callq	*%rax
.Ltmp216:
	jmp	.LBB172_61
.LBB172_61:
.Ltmp220:
	leaq	1360(%rsp), %rdi
	callq	_ZN4core3ptr42drop_in_place$LT$alloc..string..String$GT$17h592997dd52716563E
.Ltmp221:
	jmp	.LBB172_38
.LBB172_62:
.Ltmp269:
	leaq	624(%rsp), %rdi
	callq	_ZN4core3ptr50drop_in_place$LT$alloc..borrow..Cow$LT$str$GT$$GT$17h31a476972b49ef5fE
.Ltmp270:
	jmp	.LBB172_84
.LBB172_63:
.Ltmp222:
	movq	_ZN3std2fs8DirEntry9file_type17hd8b4f6659aeb9dc6E@GOTPCREL(%rip), %rax
	leaq	1664(%rsp), %rdi
	leaq	480(%rsp), %rsi
	callq	*%rax
.Ltmp223:
	jmp	.LBB172_64
.LBB172_64:
.Ltmp224:
	leaq	1648(%rsp), %rdi
	leaq	1664(%rsp), %rsi
	callq	_ZN79_$LT$core..result..Result$LT$T$C$E$GT$$u20$as$u20$core..ops..try_trait..Try$GT$6branch17he29ca69f2995b9dcE
.Ltmp225:
	jmp	.LBB172_65
.LBB172_65:
	movl	1648(%rsp), %eax
	cmpq	$0, %rax
	jne	.LBB172_67
	movl	1652(%rsp), %eax
	movl	%eax, 1644(%rsp)
.Ltmp228:
	leaq	1644(%rsp), %rdi
	callq	_ZN3std2fs8FileType6is_dir17h5e8ddcafda0be701E
.Ltmp229:
	movb	%al, 71(%rsp)
	jmp	.LBB172_68
.LBB172_67:
	movq	1656(%rsp), %rdi
.Ltmp226:
	leaq	.L__unnamed_29(%rip), %rsi
	callq	_ZN153_$LT$core..result..Result$LT$T$C$F$GT$$u20$as$u20$core..ops..try_trait..FromResidual$LT$core..result..Result$LT$core..convert..Infallible$C$E$GT$$GT$$GT$13from_residual17h65ca92f81b5f262eE
.Ltmp227:
	movq	%rax, 56(%rsp)
	jmp	.LBB172_89
.LBB172_68:
	movb	71(%rsp), %al
	testb	$1, %al
	jne	.LBB172_69
	jmp	.LBB172_62
.LBB172_69:
.Ltmp230:
	movq	_ZN3std2fs8DirEntry4path17h50d23a5823b8e48bE@GOTPCREL(%rip), %rax
	leaq	1728(%rsp), %rdi
	leaq	480(%rsp), %rsi
	callq	*%rax
.Ltmp231:
	jmp	.LBB172_70
.LBB172_70:
.Ltmp232:
	leaq	1728(%rsp), %rdi
	callq	_ZN62_$LT$std..path..PathBuf$u20$as$u20$core..ops..deref..Deref$GT$5deref17h5380c686e3133c0fE
.Ltmp233:
	movq	%rdx, 40(%rsp)
	movq	%rax, 48(%rsp)
	jmp	.LBB172_73
.LBB172_71:
.Ltmp239:
	leaq	1728(%rsp), %rdi
	callq	_ZN4core3ptr39drop_in_place$LT$std..path..PathBuf$GT$17h102c33ab261ea3baE
.Ltmp240:
	jmp	.LBB172_26
.LBB172_72:
.Ltmp238:
	movq	%rax, %rcx
	movl	%edx, %eax
	movq	%rcx, 1768(%rsp)
	movl	%eax, 1776(%rsp)
	jmp	.LBB172_71
.LBB172_73:
.Ltmp234:
	movq	40(%rsp), %rdx
	movq	48(%rsp), %rsi
	leaq	1704(%rsp), %rdi
	callq	_ZN3std4path4Path15to_string_lossy17hf17daf3965c8032dE
.Ltmp235:
	jmp	.LBB172_74
.LBB172_74:
.Ltmp236:
	leaq	1680(%rsp), %rdi
	leaq	1704(%rsp), %rsi
	callq	_ZN5alloc6borrow12Cow$LT$B$GT$10into_owned17h4af22a44eaac6542E
.Ltmp237:
	jmp	.LBB172_75
.LBB172_75:
.Ltmp241:
	leaq	1728(%rsp), %rdi
	callq	_ZN4core3ptr39drop_in_place$LT$std..path..PathBuf$GT$17h102c33ab261ea3baE
.Ltmp242:
	jmp	.LBB172_78
.LBB172_76:
.Ltmp252:
	leaq	1680(%rsp), %rdi
	callq	_ZN4core3ptr42drop_in_place$LT$alloc..string..String$GT$17h592997dd52716563E
.Ltmp253:
	jmp	.LBB172_26
.LBB172_77:
.Ltmp251:
	movq	%rax, %rcx
	movl	%edx, %eax
	movq	%rcx, 1768(%rsp)
	movl	%eax, 1776(%rsp)
	jmp	.LBB172_76
.LBB172_78:
.Ltmp243:
	leaq	1680(%rsp), %rdi
	callq	_ZN65_$LT$alloc..string..String$u20$as$u20$core..ops..deref..Deref$GT$5deref17ha2fe093e36007998E
.Ltmp244:
	movq	%rdx, 24(%rsp)
	movq	%rax, 32(%rsp)
	jmp	.LBB172_79
.LBB172_79:
.Ltmp245:
	movq	24(%rsp), %rsi
	movq	32(%rsp), %rdi
	movb	309(%rsp), %al
	movb	310(%rsp), %cl
	movb	311(%rsp), %dl
	movzbl	%dl, %edx
	andl	$1, %edx
	movzbl	%cl, %ecx
	andl	$1, %ecx
	movzbl	%al, %r8d
	andl	$1, %r8d
	callq	_ZN2ls14list_directory17h565c4d931ae77bacE
.Ltmp246:
	movq	%rax, 16(%rsp)
	jmp	.LBB172_80
.LBB172_80:
.Ltmp247:
	movq	16(%rsp), %rdi
	callq	_ZN79_$LT$core..result..Result$LT$T$C$E$GT$$u20$as$u20$core..ops..try_trait..Try$GT$6branch17h2a7b9cfdbf0bd261E
.Ltmp248:
	movq	%rax, 8(%rsp)
	jmp	.LBB172_81
.LBB172_81:
	movq	8(%rsp), %rax
	movq	%rax, 1752(%rsp)
	movq	1752(%rsp), %rdx
	movl	$1, %eax
	xorl	%ecx, %ecx
	cmpq	$0, %rdx
	cmoveq	%rcx, %rax
	cmpq	$0, %rax
	jne	.LBB172_83
.Ltmp264:
	leaq	1680(%rsp), %rdi
	callq	_ZN4core3ptr42drop_in_place$LT$alloc..string..String$GT$17h592997dd52716563E
.Ltmp265:
	jmp	.LBB172_62
.LBB172_83:
	movq	1752(%rsp), %rdi
.Ltmp249:
	leaq	.L__unnamed_30(%rip), %rsi
	callq	_ZN153_$LT$core..result..Result$LT$T$C$F$GT$$u20$as$u20$core..ops..try_trait..FromResidual$LT$core..result..Result$LT$core..convert..Infallible$C$E$GT$$GT$$GT$13from_residual17h65ca92f81b5f262eE
.Ltmp250:
	movq	%rax, (%rsp)
	jmp	.LBB172_86
.LBB172_84:
.Ltmp274:
	leaq	600(%rsp), %rdi
	callq	_ZN4core3ptr47drop_in_place$LT$std..ffi..os_str..OsString$GT$17hb7ec0db92b1ca403E
.Ltmp275:
	jmp	.LBB172_85
.LBB172_85:
.Ltmp279:
	leaq	480(%rsp), %rdi
