	.text
	.file	"dfs.cpp"
	.section	.text.startup,"ax",@progbits
	.p2align	4, 0x90         # -- Begin function __cxx_global_var_init
	.type	__cxx_global_var_init,@function
__cxx_global_var_init:                  # @__cxx_global_var_init
	.cfi_startproc
# %bb.0:
	pushq	%rbp
	.cfi_def_cfa_offset 16
	.cfi_offset %rbp, -16
	movq	%rsp, %rbp
	.cfi_def_cfa_register %rbp
	movabsq	$_ZStL8__ioinit, %rdi
	callq	_ZNSt8ios_base4InitC1Ev
	movabsq	$_ZNSt8ios_base4InitD1Ev, %rax
	movq	%rax, %rdi
	movabsq	$_ZStL8__ioinit, %rsi
	movabsq	$__dso_handle, %rdx
	callq	__cxa_atexit
	popq	%rbp
	.cfi_def_cfa %rsp, 8
	retq
.Lfunc_end0:
	.size	__cxx_global_var_init, .Lfunc_end0-__cxx_global_var_init
	.cfi_endproc
                                        # -- End function
	.text
	.globl	main                    # -- Begin function main
	.p2align	4, 0x90
	.type	main,@function
main:                                   # @main
.Lfunc_begin0:
	.cfi_startproc
	.cfi_personality 3, __gxx_personality_v0
	.cfi_lsda 3, .Lexception0
# %bb.0:
	pushq	%rbp
	.cfi_def_cfa_offset 16
	.cfi_offset %rbp, -16
	movq	%rsp, %rbp
	.cfi_def_cfa_register %rbp
	subq	$160, %rsp
	movl	$0, -4(%rbp)
	leaq	-64(%rbp), %rax
	movq	%rax, %rdi
	movq	%rax, -144(%rbp)        # 8-byte Spill
	callq	_ZN5GraphC2Ev
.Ltmp0:
	movl	$1, %esi
	movl	$2, %edx
	movq	-144(%rbp), %rdi        # 8-byte Reload
	callq	_ZN5Graph8add_edgeEii
.Ltmp1:
	jmp	.LBB1_1
.LBB1_1:
.Ltmp2:
	leaq	-64(%rbp), %rdi
	movl	$1, %esi
	movl	$3, %edx
	callq	_ZN5Graph8add_edgeEii
.Ltmp3:
	jmp	.LBB1_2
.LBB1_2:
.Ltmp4:
	leaq	-64(%rbp), %rdi
	movl	$2, %esi
	movl	$4, %edx
	callq	_ZN5Graph8add_edgeEii
.Ltmp5:
	jmp	.LBB1_3
.LBB1_3:
.Ltmp6:
	leaq	-64(%rbp), %rdi
	movl	$2, %esi
	movl	$5, %edx
	callq	_ZN5Graph8add_edgeEii
.Ltmp7:
	jmp	.LBB1_4
.LBB1_4:
.Ltmp8:
	leaq	-64(%rbp), %rdi
	movl	$3, %esi
	movl	$6, %edx
	callq	_ZN5Graph8add_edgeEii
.Ltmp9:
	jmp	.LBB1_5
.LBB1_5:
.Ltmp10:
	leaq	-104(%rbp), %rdi
	leaq	-64(%rbp), %rsi
	movl	$1, %edx
	callq	_ZN5Graph3dfsEi
.Ltmp11:
	jmp	.LBB1_6
.LBB1_6:
	leaq	-104(%rbp), %rax
	movq	%rax, -112(%rbp)
	movq	-112(%rbp), %rdi
	callq	_ZNSt6vectorIiSaIiEE5beginEv
	movq	%rax, -120(%rbp)
	movq	-112(%rbp), %rdi
	callq	_ZNSt6vectorIiSaIiEE3endEv
	movq	%rax, -128(%rbp)
.LBB1_7:                                # =>This Inner Loop Header: Depth=1
	leaq	-120(%rbp), %rdi
	leaq	-128(%rbp), %rsi
	callq	_ZN9__gnu_cxxneIPiSt6vectorIiSaIiEEEEbRKNS_17__normal_iteratorIT_T0_EESA_
	testb	$1, %al
	jne	.LBB1_8
	jmp	.LBB1_14
.LBB1_8:                                #   in Loop: Header=BB1_7 Depth=1
	leaq	-120(%rbp), %rdi
	callq	_ZNK9__gnu_cxx17__normal_iteratorIPiSt6vectorIiSaIiEEEdeEv
	movl	(%rax), %ecx
	movl	%ecx, -132(%rbp)
	movl	-132(%rbp), %esi
.Ltmp15:
	movl	$_ZSt4cout, %edi
	callq	_ZNSolsEi
.Ltmp16:
	movq	%rax, -152(%rbp)        # 8-byte Spill
	jmp	.LBB1_9
.LBB1_9:                                #   in Loop: Header=BB1_7 Depth=1
.Ltmp17:
	movl	$.L.str, %esi
	movq	-152(%rbp), %rdi        # 8-byte Reload
	callq	_ZStlsISt11char_traitsIcEERSt13basic_ostreamIcT_ES5_PKc
.Ltmp18:
	jmp	.LBB1_10
.LBB1_10:                               #   in Loop: Header=BB1_7 Depth=1
	jmp	.LBB1_11
.LBB1_11:                               #   in Loop: Header=BB1_7 Depth=1
	leaq	-120(%rbp), %rdi
	callq	_ZN9__gnu_cxx17__normal_iteratorIPiSt6vectorIiSaIiEEEppEv
	jmp	.LBB1_7
.LBB1_12:
.Ltmp12:
                                        # kill: def $edx killed $edx killed $rdx
	movq	%rax, -72(%rbp)
	movl	%edx, -76(%rbp)
	jmp	.LBB1_16
.LBB1_13:
.Ltmp19:
                                        # kill: def $edx killed $edx killed $rdx
	movq	%rax, -72(%rbp)
	movl	%edx, -76(%rbp)
	leaq	-104(%rbp), %rdi
	callq	_ZNSt6vectorIiSaIiEED2Ev
	jmp	.LBB1_16
.LBB1_14:
.Ltmp13:
	movl	$_ZSt4cout, %edi
	movl	$_ZSt4endlIcSt11char_traitsIcEERSt13basic_ostreamIT_T0_ES6_, %esi
	callq	_ZNSolsEPFRSoS_E
.Ltmp14:
	jmp	.LBB1_15
.LBB1_15:
	movl	$0, -4(%rbp)
	leaq	-104(%rbp), %rdi
	callq	_ZNSt6vectorIiSaIiEED2Ev
	leaq	-64(%rbp), %rdi
	callq	_ZN5GraphD2Ev
	movl	-4(%rbp), %eax
	addq	$160, %rsp
	popq	%rbp
	.cfi_def_cfa %rsp, 8
	retq
.LBB1_16:
	.cfi_def_cfa %rbp, 16
	leaq	-64(%rbp), %rdi
	callq	_ZN5GraphD2Ev
# %bb.17:
	movq	-72(%rbp), %rdi
	callq	_Unwind_Resume
.Lfunc_end1:
	.size	main, .Lfunc_end1-main
	.cfi_endproc
	.section	.gcc_except_table,"a",@progbits
	.p2align	2
GCC_except_table1:
.Lexception0:
	.byte	255                     # @LPStart Encoding = omit
	.byte	255                     # @TType Encoding = omit
	.byte	1                       # Call site Encoding = uleb128
	.uleb128 .Lcst_end0-.Lcst_begin0
.Lcst_begin0:
	.uleb128 .Ltmp0-.Lfunc_begin0   # >> Call Site 1 <<
	.uleb128 .Ltmp11-.Ltmp0         #   Call between .Ltmp0 and .Ltmp11
	.uleb128 .Ltmp12-.Lfunc_begin0  #     jumps to .Ltmp12
	.byte	0                       #   On action: cleanup
	.uleb128 .Ltmp15-.Lfunc_begin0  # >> Call Site 2 <<
	.uleb128 .Ltmp14-.Ltmp15        #   Call between .Ltmp15 and .Ltmp14
	.uleb128 .Ltmp19-.Lfunc_begin0  #     jumps to .Ltmp19
	.byte	0                       #   On action: cleanup
	.uleb128 .Ltmp14-.Lfunc_begin0  # >> Call Site 3 <<
	.uleb128 .Lfunc_end1-.Ltmp14    #   Call between .Ltmp14 and .Lfunc_end1
	.byte	0                       #     has no landing pad
	.byte	0                       #   On action: cleanup
.Lcst_end0:
	.p2align	2
                                        # -- End function
	.section	.text._ZN5GraphC2Ev,"axG",@progbits,_ZN5GraphC2Ev,comdat
	.weak	_ZN5GraphC2Ev           # -- Begin function _ZN5GraphC2Ev
	.p2align	4, 0x90
	.type	_ZN5GraphC2Ev,@function
_ZN5GraphC2Ev:                          # @_ZN5GraphC2Ev
	.cfi_startproc
# %bb.0:
	pushq	%rbp
	.cfi_def_cfa_offset 16
	.cfi_offset %rbp, -16
	movq	%rsp, %rbp
	.cfi_def_cfa_register %rbp
	subq	$16, %rsp
	movq	%rdi, -8(%rbp)
	movq	-8(%rbp), %rdi
	callq	_ZNSt13unordered_mapIiSt6vectorIiSaIiEESt4hashIiESt8equal_toIiESaISt4pairIKiS2_EEEC2Ev
	addq	$16, %rsp
	popq	%rbp
	.cfi_def_cfa %rsp, 8
	retq
.Lfunc_end2:
	.size	_ZN5GraphC2Ev, .Lfunc_end2-_ZN5GraphC2Ev
	.cfi_endproc
                                        # -- End function
	.section	.text._ZN5Graph8add_edgeEii,"axG",@progbits,_ZN5Graph8add_edgeEii,comdat
	.weak	_ZN5Graph8add_edgeEii   # -- Begin function _ZN5Graph8add_edgeEii
	.p2align	4, 0x90
	.type	_ZN5Graph8add_edgeEii,@function
_ZN5Graph8add_edgeEii:                  # @_ZN5Graph8add_edgeEii
	.cfi_startproc
# %bb.0:
	pushq	%rbp
	.cfi_def_cfa_offset 16
	.cfi_offset %rbp, -16
	movq	%rsp, %rbp
	.cfi_def_cfa_register %rbp
	subq	$32, %rsp
	movq	%rdi, -8(%rbp)
	movl	%esi, -12(%rbp)
	movl	%edx, -16(%rbp)
	movq	-8(%rbp), %rax
	movq	%rax, %rdi
	leaq	-12(%rbp), %rsi
	movq	%rax, -24(%rbp)         # 8-byte Spill
	callq	_ZNSt13unordered_mapIiSt6vectorIiSaIiEESt4hashIiESt8equal_toIiESaISt4pairIKiS2_EEEixERS8_
	movq	%rax, %rdi
	leaq	-16(%rbp), %rsi
	callq	_ZNSt6vectorIiSaIiEE9push_backERKi
	movq	-24(%rbp), %rdi         # 8-byte Reload
	leaq	-16(%rbp), %rsi
	callq	_ZNSt13unordered_mapIiSt6vectorIiSaIiEESt4hashIiESt8equal_toIiESaISt4pairIKiS2_EEEixERS8_
	movq	%rax, %rdi
	leaq	-12(%rbp), %rsi
	callq	_ZNSt6vectorIiSaIiEE9push_backERKi
	addq	$32, %rsp
	popq	%rbp
	.cfi_def_cfa %rsp, 8
	retq
.Lfunc_end3:
	.size	_ZN5Graph8add_edgeEii, .Lfunc_end3-_ZN5Graph8add_edgeEii
	.cfi_endproc
                                        # -- End function
	.section	.text._ZN5Graph3dfsEi,"axG",@progbits,_ZN5Graph3dfsEi,comdat
	.weak	_ZN5Graph3dfsEi         # -- Begin function _ZN5Graph3dfsEi
	.p2align	4, 0x90
	.type	_ZN5Graph3dfsEi,@function
_ZN5Graph3dfsEi:                        # @_ZN5Graph3dfsEi
.Lfunc_begin1:
	.cfi_startproc
	.cfi_personality 3, __gxx_personality_v0
	.cfi_lsda 3, .Lexception1
# %bb.0:
	pushq	%rbp
	.cfi_def_cfa_offset 16
	.cfi_offset %rbp, -16
	movq	%rsp, %rbp
	.cfi_def_cfa_register %rbp
	subq	$144, %rsp
	movq	%rdi, %rax
	movq	%rdi, -8(%rbp)
	movq	%rsi, -16(%rbp)
	movl	%edx, -20(%rbp)
	movq	-16(%rbp), %rcx
	leaq	-80(%rbp), %rsi
	movq	%rdi, -112(%rbp)        # 8-byte Spill
	movq	%rsi, %rdi
	movq	%rax, -120(%rbp)        # 8-byte Spill
	movq	%rcx, -128(%rbp)        # 8-byte Spill
	movq	%rsi, -136(%rbp)        # 8-byte Spill
	callq	_ZNSt13unordered_setIiSt4hashIiESt8equal_toIiESaIiEEC2Ev
	movb	$0, -81(%rbp)
	movq	-112(%rbp), %rdi        # 8-byte Reload
	callq	_ZNSt6vectorIiSaIiEEC2Ev
	movl	-20(%rbp), %esi
.Ltmp20:
	movq	-128(%rbp), %rdi        # 8-byte Reload
	movq	-136(%rbp), %rdx        # 8-byte Reload
	movq	-112(%rbp), %rcx        # 8-byte Reload
	callq	_ZN5Graph8dfs_utilEiRSt13unordered_setIiSt4hashIiESt8equal_toIiESaIiEERSt6vectorIiS5_E
.Ltmp21:
	jmp	.LBB4_1
.LBB4_1:
	movb	$1, -81(%rbp)
	testb	$1, -81(%rbp)
	jne	.LBB4_4
	jmp	.LBB4_3
.LBB4_2:
.Ltmp22:
                                        # kill: def $edx killed $edx killed $rdx
	movq	%rax, -96(%rbp)
	movl	%edx, -100(%rbp)
	movq	-112(%rbp), %rdi        # 8-byte Reload
	callq	_ZNSt6vectorIiSaIiEED2Ev
	leaq	-80(%rbp), %rdi
	callq	_ZNSt13unordered_setIiSt4hashIiESt8equal_toIiESaIiEED2Ev
	jmp	.LBB4_5
.LBB4_3:
	movq	-112(%rbp), %rdi        # 8-byte Reload
	callq	_ZNSt6vectorIiSaIiEED2Ev
.LBB4_4:
	leaq	-80(%rbp), %rdi
	callq	_ZNSt13unordered_setIiSt4hashIiESt8equal_toIiESaIiEED2Ev
	movq	-120(%rbp), %rax        # 8-byte Reload
	addq	$144, %rsp
	popq	%rbp
	.cfi_def_cfa %rsp, 8
	retq
.LBB4_5:
	.cfi_def_cfa %rbp, 16
	movq	-96(%rbp), %rdi
	callq	_Unwind_Resume
.Lfunc_end4:
	.size	_ZN5Graph3dfsEi, .Lfunc_end4-_ZN5Graph3dfsEi
	.cfi_endproc
	.section	.gcc_except_table,"a",@progbits
	.p2align	2
GCC_except_table4:
.Lexception1:
	.byte	255                     # @LPStart Encoding = omit
	.byte	255                     # @TType Encoding = omit
	.byte	1                       # Call site Encoding = uleb128
	.uleb128 .Lcst_end1-.Lcst_begin1
.Lcst_begin1:
	.uleb128 .Ltmp20-.Lfunc_begin1  # >> Call Site 1 <<
	.uleb128 .Ltmp21-.Ltmp20        #   Call between .Ltmp20 and .Ltmp21
	.uleb128 .Ltmp22-.Lfunc_begin1  #     jumps to .Ltmp22
	.byte	0                       #   On action: cleanup
	.uleb128 .Ltmp21-.Lfunc_begin1  # >> Call Site 2 <<
	.uleb128 .Lfunc_end4-.Ltmp21    #   Call between .Ltmp21 and .Lfunc_end4
	.byte	0                       #     has no landing pad
	.byte	0                       #   On action: cleanup
.Lcst_end1:
	.p2align	2
                                        # -- End function
	.section	.text._ZNSt6vectorIiSaIiEE5beginEv,"axG",@progbits,_ZNSt6vectorIiSaIiEE5beginEv,comdat
	.weak	_ZNSt6vectorIiSaIiEE5beginEv # -- Begin function _ZNSt6vectorIiSaIiEE5beginEv
	.p2align	4, 0x90
	.type	_ZNSt6vectorIiSaIiEE5beginEv,@function
_ZNSt6vectorIiSaIiEE5beginEv:           # @_ZNSt6vectorIiSaIiEE5beginEv
	.cfi_startproc
# %bb.0:
	pushq	%rbp
	.cfi_def_cfa_offset 16
	.cfi_offset %rbp, -16
	movq	%rsp, %rbp
	.cfi_def_cfa_register %rbp
	subq	$16, %rsp
	movq	%rdi, -16(%rbp)
	movq	-16(%rbp), %rax
	leaq	-8(%rbp), %rdi
	movq	%rax, %rsi
	callq	_ZN9__gnu_cxx17__normal_iteratorIPiSt6vectorIiSaIiEEEC2ERKS1_
	movq	-8(%rbp), %rax
	addq	$16, %rsp
	popq	%rbp
	.cfi_def_cfa %rsp, 8
	retq
.Lfunc_end5:
	.size	_ZNSt6vectorIiSaIiEE5beginEv, .Lfunc_end5-_ZNSt6vectorIiSaIiEE5beginEv
	.cfi_endproc
                                        # -- End function
	.section	.text._ZNSt6vectorIiSaIiEE3endEv,"axG",@progbits,_ZNSt6vectorIiSaIiEE3endEv,comdat
	.weak	_ZNSt6vectorIiSaIiEE3endEv # -- Begin function _ZNSt6vectorIiSaIiEE3endEv
	.p2align	4, 0x90
	.type	_ZNSt6vectorIiSaIiEE3endEv,@function
_ZNSt6vectorIiSaIiEE3endEv:             # @_ZNSt6vectorIiSaIiEE3endEv
	.cfi_startproc
# %bb.0:
	pushq	%rbp
	.cfi_def_cfa_offset 16
	.cfi_offset %rbp, -16
	movq	%rsp, %rbp
	.cfi_def_cfa_register %rbp
	subq	$16, %rsp
	movq	%rdi, -16(%rbp)
	movq	-16(%rbp), %rax
	addq	$8, %rax
	leaq	-8(%rbp), %rdi
	movq	%rax, %rsi
	callq	_ZN9__gnu_cxx17__normal_iteratorIPiSt6vectorIiSaIiEEEC2ERKS1_
	movq	-8(%rbp), %rax
	addq	$16, %rsp
	popq	%rbp
	.cfi_def_cfa %rsp, 8
	retq
.Lfunc_end6:
	.size	_ZNSt6vectorIiSaIiEE3endEv, .Lfunc_end6-_ZNSt6vectorIiSaIiEE3endEv
	.cfi_endproc
                                        # -- End function
	.section	.text._ZN9__gnu_cxxneIPiSt6vectorIiSaIiEEEEbRKNS_17__normal_iteratorIT_T0_EESA_,"axG",@progbits,_ZN9__gnu_cxxneIPiSt6vectorIiSaIiEEEEbRKNS_17__normal_iteratorIT_T0_EESA_,comdat
	.weak	_ZN9__gnu_cxxneIPiSt6vectorIiSaIiEEEEbRKNS_17__normal_iteratorIT_T0_EESA_ # -- Begin function _ZN9__gnu_cxxneIPiSt6vectorIiSaIiEEEEbRKNS_17__normal_iteratorIT_T0_EESA_
	.p2align	4, 0x90
	.type	_ZN9__gnu_cxxneIPiSt6vectorIiSaIiEEEEbRKNS_17__normal_iteratorIT_T0_EESA_,@function
_ZN9__gnu_cxxneIPiSt6vectorIiSaIiEEEEbRKNS_17__normal_iteratorIT_T0_EESA_: # @_ZN9__gnu_cxxneIPiSt6vectorIiSaIiEEEEbRKNS_17__normal_iteratorIT_T0_EESA_
	.cfi_startproc
# %bb.0:
	pushq	%rbp
	.cfi_def_cfa_offset 16
	.cfi_offset %rbp, -16
	movq	%rsp, %rbp
	.cfi_def_cfa_register %rbp
	subq	$32, %rsp
	movq	%rdi, -8(%rbp)
	movq	%rsi, -16(%rbp)
	movq	-8(%rbp), %rdi
	callq	_ZNK9__gnu_cxx17__normal_iteratorIPiSt6vectorIiSaIiEEE4baseEv
	movq	(%rax), %rax
	movq	-16(%rbp), %rdi
	movq	%rax, -24(%rbp)         # 8-byte Spill
	callq	_ZNK9__gnu_cxx17__normal_iteratorIPiSt6vectorIiSaIiEEE4baseEv
	movq	-24(%rbp), %rcx         # 8-byte Reload
	cmpq	(%rax), %rcx
	setne	%dl
	andb	$1, %dl
	movzbl	%dl, %eax
	addq	$32, %rsp
	popq	%rbp
	.cfi_def_cfa %rsp, 8
	retq
.Lfunc_end7:
	.size	_ZN9__gnu_cxxneIPiSt6vectorIiSaIiEEEEbRKNS_17__normal_iteratorIT_T0_EESA_, .Lfunc_end7-_ZN9__gnu_cxxneIPiSt6vectorIiSaIiEEEEbRKNS_17__normal_iteratorIT_T0_EESA_
	.cfi_endproc
                                        # -- End function
	.section	.text._ZNK9__gnu_cxx17__normal_iteratorIPiSt6vectorIiSaIiEEEdeEv,"axG",@progbits,_ZNK9__gnu_cxx17__normal_iteratorIPiSt6vectorIiSaIiEEEdeEv,comdat
	.weak	_ZNK9__gnu_cxx17__normal_iteratorIPiSt6vectorIiSaIiEEEdeEv # -- Begin function _ZNK9__gnu_cxx17__normal_iteratorIPiSt6vectorIiSaIiEEEdeEv
	.p2align	4, 0x90
	.type	_ZNK9__gnu_cxx17__normal_iteratorIPiSt6vectorIiSaIiEEEdeEv,@function
_ZNK9__gnu_cxx17__normal_iteratorIPiSt6vectorIiSaIiEEEdeEv: # @_ZNK9__gnu_cxx17__normal_iteratorIPiSt6vectorIiSaIiEEEdeEv
	.cfi_startproc
# %bb.0:
	pushq	%rbp
	.cfi_def_cfa_offset 16
	.cfi_offset %rbp, -16
	movq	%rsp, %rbp
	.cfi_def_cfa_register %rbp
	movq	%rdi, -8(%rbp)
	movq	-8(%rbp), %rax
	movq	(%rax), %rax
	popq	%rbp
	.cfi_def_cfa %rsp, 8
	retq
.Lfunc_end8:
	.size	_ZNK9__gnu_cxx17__normal_iteratorIPiSt6vectorIiSaIiEEEdeEv, .Lfunc_end8-_ZNK9__gnu_cxx17__normal_iteratorIPiSt6vectorIiSaIiEEEdeEv
	.cfi_endproc
                                        # -- End function
	.section	.text._ZN9__gnu_cxx17__normal_iteratorIPiSt6vectorIiSaIiEEEppEv,"axG",@progbits,_ZN9__gnu_cxx17__normal_iteratorIPiSt6vectorIiSaIiEEEppEv,comdat
	.weak	_ZN9__gnu_cxx17__normal_iteratorIPiSt6vectorIiSaIiEEEppEv # -- Begin function _ZN9__gnu_cxx17__normal_iteratorIPiSt6vectorIiSaIiEEEppEv
	.p2align	4, 0x90
	.type	_ZN9__gnu_cxx17__normal_iteratorIPiSt6vectorIiSaIiEEEppEv,@function
_ZN9__gnu_cxx17__normal_iteratorIPiSt6vectorIiSaIiEEEppEv: # @_ZN9__gnu_cxx17__normal_iteratorIPiSt6vectorIiSaIiEEEppEv
	.cfi_startproc
# %bb.0:
	pushq	%rbp
	.cfi_def_cfa_offset 16
	.cfi_offset %rbp, -16
	movq	%rsp, %rbp
	.cfi_def_cfa_register %rbp
	movq	%rdi, -8(%rbp)
	movq	-8(%rbp), %rax
	movq	(%rax), %rcx
	addq	$4, %rcx
	movq	%rcx, (%rax)
	popq	%rbp
	.cfi_def_cfa %rsp, 8
	retq
.Lfunc_end9:
	.size	_ZN9__gnu_cxx17__normal_iteratorIPiSt6vectorIiSaIiEEEppEv, .Lfunc_end9-_ZN9__gnu_cxx17__normal_iteratorIPiSt6vectorIiSaIiEEEppEv
	.cfi_endproc
                                        # -- End function
	.section	.text._ZNSt6vectorIiSaIiEED2Ev,"axG",@progbits,_ZNSt6vectorIiSaIiEED2Ev,comdat
	.weak	_ZNSt6vectorIiSaIiEED2Ev # -- Begin function _ZNSt6vectorIiSaIiEED2Ev
	.p2align	4, 0x90
	.type	_ZNSt6vectorIiSaIiEED2Ev,@function
_ZNSt6vectorIiSaIiEED2Ev:               # @_ZNSt6vectorIiSaIiEED2Ev
.Lfunc_begin2:
	.cfi_startproc
	.cfi_personality 3, __gxx_personality_v0
	.cfi_lsda 3, .Lexception2
# %bb.0:
	pushq	%rbp
	.cfi_def_cfa_offset 16
	.cfi_offset %rbp, -16
	movq	%rsp, %rbp
	.cfi_def_cfa_register %rbp
	subq	$48, %rsp
	movq	%rdi, -8(%rbp)
	movq	-8(%rbp), %rax
	movq	(%rax), %rdi
	movq	8(%rax), %rsi
	movq	%rdi, -32(%rbp)         # 8-byte Spill
	movq	%rax, %rdi
	movq	%rax, -40(%rbp)         # 8-byte Spill
	movq	%rsi, -48(%rbp)         # 8-byte Spill
	callq	_ZNSt12_Vector_baseIiSaIiEE19_M_get_Tp_allocatorEv
.Ltmp23:
	movq	-32(%rbp), %rdi         # 8-byte Reload
	movq	-48(%rbp), %rsi         # 8-byte Reload
	movq	%rax, %rdx
	callq	_ZSt8_DestroyIPiiEvT_S1_RSaIT0_E
.Ltmp24:
	jmp	.LBB10_1
.LBB10_1:
	movq	-40(%rbp), %rax         # 8-byte Reload
	movq	%rax, %rdi
	callq	_ZNSt12_Vector_baseIiSaIiEED2Ev
	addq	$48, %rsp
	popq	%rbp
	.cfi_def_cfa %rsp, 8
	retq
.LBB10_2:
	.cfi_def_cfa %rbp, 16
.Ltmp25:
                                        # kill: def $edx killed $edx killed $rdx
	movq	%rax, -16(%rbp)
	movl	%edx, -20(%rbp)
	movq	-40(%rbp), %rax         # 8-byte Reload
	movq	%rax, %rdi
	callq	_ZNSt12_Vector_baseIiSaIiEED2Ev
# %bb.3:
	movq	-16(%rbp), %rdi
	callq	__clang_call_terminate
.Lfunc_end10:
	.size	_ZNSt6vectorIiSaIiEED2Ev, .Lfunc_end10-_ZNSt6vectorIiSaIiEED2Ev
	.cfi_endproc
	.section	.gcc_except_table,"a",@progbits
	.p2align	2
GCC_except_table10:
.Lexception2:
	.byte	255                     # @LPStart Encoding = omit
	.byte	3                       # @TType Encoding = udata4
	.uleb128 .Lttbase0-.Lttbaseref0
.Lttbaseref0:
	.byte	1                       # Call site Encoding = uleb128
	.uleb128 .Lcst_end2-.Lcst_begin2
.Lcst_begin2:
	.uleb128 .Ltmp23-.Lfunc_begin2  # >> Call Site 1 <<
	.uleb128 .Ltmp24-.Ltmp23        #   Call between .Ltmp23 and .Ltmp24
	.uleb128 .Ltmp25-.Lfunc_begin2  #     jumps to .Ltmp25
	.byte	1                       #   On action: 1
.Lcst_end2:
	.byte	1                       # >> Action Record 1 <<
                                        #   Catch TypeInfo 1
	.byte	0                       #   No further actions
	.p2align	2
                                        # >> Catch TypeInfos <<
	.long	0                       # TypeInfo 1
.Lttbase0:
	.p2align	2
                                        # -- End function
	.section	.text._ZN5GraphD2Ev,"axG",@progbits,_ZN5GraphD2Ev,comdat
	.weak	_ZN5GraphD2Ev           # -- Begin function _ZN5GraphD2Ev
	.p2align	4, 0x90
	.type	_ZN5GraphD2Ev,@function
_ZN5GraphD2Ev:                          # @_ZN5GraphD2Ev
	.cfi_startproc
# %bb.0:
	pushq	%rbp
	.cfi_def_cfa_offset 16
	.cfi_offset %rbp, -16
	movq	%rsp, %rbp
	.cfi_def_cfa_register %rbp
	subq	$16, %rsp
	movq	%rdi, -8(%rbp)
	movq	-8(%rbp), %rdi
	callq	_ZNSt13unordered_mapIiSt6vectorIiSaIiEESt4hashIiESt8equal_toIiESaISt4pairIKiS2_EEED2Ev
	addq	$16, %rsp
	popq	%rbp
	.cfi_def_cfa %rsp, 8
	retq
.Lfunc_end11:
	.size	_ZN5GraphD2Ev, .Lfunc_end11-_ZN5GraphD2Ev
	.cfi_endproc
                                        # -- End function
	.section	.text._ZNSt13unordered_mapIiSt6vectorIiSaIiEESt4hashIiESt8equal_toIiESaISt4pairIKiS2_EEEC2Ev,"axG",@progbits,_ZNSt13unordered_mapIiSt6vectorIiSaIiEESt4hashIiESt8equal_toIiESaISt4pairIKiS2_EEEC2Ev,comdat
	.weak	_ZNSt13unordered_mapIiSt6vectorIiSaIiEESt4hashIiESt8equal_toIiESaISt4pairIKiS2_EEEC2Ev # -- Begin function _ZNSt13unordered_mapIiSt6vectorIiSaIiEESt4hashIiESt8equal_toIiESaISt4pairIKiS2_EEEC2Ev
	.p2align	4, 0x90
	.type	_ZNSt13unordered_mapIiSt6vectorIiSaIiEESt4hashIiESt8equal_toIiESaISt4pairIKiS2_EEEC2Ev,@function
_ZNSt13unordered_mapIiSt6vectorIiSaIiEESt4hashIiESt8equal_toIiESaISt4pairIKiS2_EEEC2Ev: # @_ZNSt13unordered_mapIiSt6vectorIiSaIiEESt4hashIiESt8equal_toIiESaISt4pairIKiS2_EEEC2Ev
	.cfi_startproc
# %bb.0:
	pushq	%rbp
	.cfi_def_cfa_offset 16
	.cfi_offset %rbp, -16
	movq	%rsp, %rbp
	.cfi_def_cfa_register %rbp
	subq	$16, %rsp
	movq	%rdi, -8(%rbp)
	movq	-8(%rbp), %rdi
	callq	_ZNSt10_HashtableIiSt4pairIKiSt6vectorIiSaIiEEESaIS5_ENSt8__detail10_Select1stESt8equal_toIiESt4hashIiENS7_18_Mod_range_hashingENS7_20_Default_ranged_hashENS7_20_Prime_rehash_policyENS7_17_Hashtable_traitsILb0ELb0ELb1EEEEC2Ev
	addq	$16, %rsp
	popq	%rbp
	.cfi_def_cfa %rsp, 8
	retq
.Lfunc_end12:
	.size	_ZNSt13unordered_mapIiSt6vectorIiSaIiEESt4hashIiESt8equal_toIiESaISt4pairIKiS2_EEEC2Ev, .Lfunc_end12-_ZNSt13unordered_mapIiSt6vectorIiSaIiEESt4hashIiESt8equal_toIiESaISt4pairIKiS2_EEEC2Ev
	.cfi_endproc
                                        # -- End function
	.section	.rodata.cst4,"aM",@progbits,4
	.p2align	2               # -- Begin function _ZNSt10_HashtableIiSt4pairIKiSt6vectorIiSaIiEEESaIS5_ENSt8__detail10_Select1stESt8equal_toIiESt4hashIiENS7_18_Mod_range_hashingENS7_20_Default_ranged_hashENS7_20_Prime_rehash_policyENS7_17_Hashtable_traitsILb0ELb0ELb1EEEEC2Ev
.LCPI13_0:
	.long	1065353216              # float 1
	.section	.text._ZNSt10_HashtableIiSt4pairIKiSt6vectorIiSaIiEEESaIS5_ENSt8__detail10_Select1stESt8equal_toIiESt4hashIiENS7_18_Mod_range_hashingENS7_20_Default_ranged_hashENS7_20_Prime_rehash_policyENS7_17_Hashtable_traitsILb0ELb0ELb1EEEEC2Ev,"axG",@progbits,_ZNSt10_HashtableIiSt4pairIKiSt6vectorIiSaIiEEESaIS5_ENSt8__detail10_Select1stESt8equal_toIiESt4hashIiENS7_18_Mod_range_hashingENS7_20_Default_ranged_hashENS7_20_Prime_rehash_policyENS7_17_Hashtable_traitsILb0ELb0ELb1EEEEC2Ev,comdat
	.weak	_ZNSt10_HashtableIiSt4pairIKiSt6vectorIiSaIiEEESaIS5_ENSt8__detail10_Select1stESt8equal_toIiESt4hashIiENS7_18_Mod_range_hashingENS7_20_Default_ranged_hashENS7_20_Prime_rehash_policyENS7_17_Hashtable_traitsILb0ELb0ELb1EEEEC2Ev
	.p2align	4, 0x90
	.type	_ZNSt10_HashtableIiSt4pairIKiSt6vectorIiSaIiEEESaIS5_ENSt8__detail10_Select1stESt8equal_toIiESt4hashIiENS7_18_Mod_range_hashingENS7_20_Default_ranged_hashENS7_20_Prime_rehash_policyENS7_17_Hashtable_traitsILb0ELb0ELb1EEEEC2Ev,@function
_ZNSt10_HashtableIiSt4pairIKiSt6vectorIiSaIiEEESaIS5_ENSt8__detail10_Select1stESt8equal_toIiESt4hashIiENS7_18_Mod_range_hashingENS7_20_Default_ranged_hashENS7_20_Prime_rehash_policyENS7_17_Hashtable_traitsILb0ELb0ELb1EEEEC2Ev: # @_ZNSt10_HashtableIiSt4pairIKiSt6vectorIiSaIiEEESaIS5_ENSt8__detail10_Select1stESt8equal_toIiESt4hashIiENS7_18_Mod_range_hashingENS7_20_Default_ranged_hashENS7_20_Prime_rehash_policyENS7_17_Hashtable_traitsILb0ELb0ELb1EEEEC2Ev
	.cfi_startproc
# %bb.0:
	pushq	%rbp
	.cfi_def_cfa_offset 16
	.cfi_offset %rbp, -16
	movq	%rsp, %rbp
	.cfi_def_cfa_register %rbp
	subq	$16, %rsp
	movq	%rdi, -8(%rbp)
	movq	-8(%rbp), %rax
	movq	%rax, %rcx
	movq	%rcx, %rdi
	movq	%rax, -16(%rbp)         # 8-byte Spill
	callq	_ZNSt8__detail16_Hashtable_allocISaINS_10_Hash_nodeISt4pairIKiSt6vectorIiSaIiEEELb0EEEEEC2Ev
	movq	-16(%rbp), %rax         # 8-byte Reload
	addq	$48, %rax
	movq	-16(%rbp), %rcx         # 8-byte Reload
	movq	%rax, (%rcx)
	movq	$1, 8(%rcx)
	addq	$16, %rcx
	movq	%rcx, %rdi
	callq	_ZNSt8__detail15_Hash_node_baseC2Ev
	movss	.LCPI13_0(%rip), %xmm0  # xmm0 = mem[0],zero,zero,zero
	movq	-16(%rbp), %rax         # 8-byte Reload
	movq	$0, 24(%rax)
	addq	$32, %rax
	movq	%rax, %rdi
	callq	_ZNSt8__detail20_Prime_rehash_policyC2Ef
	movq	-16(%rbp), %rax         # 8-byte Reload
	movq	$0, 48(%rax)
	addq	$16, %rsp
	popq	%rbp
	.cfi_def_cfa %rsp, 8
	retq
.Lfunc_end13:
	.size	_ZNSt10_HashtableIiSt4pairIKiSt6vectorIiSaIiEEESaIS5_ENSt8__detail10_Select1stESt8equal_toIiESt4hashIiENS7_18_Mod_range_hashingENS7_20_Default_ranged_hashENS7_20_Prime_rehash_policyENS7_17_Hashtable_traitsILb0ELb0ELb1EEEEC2Ev, .Lfunc_end13-_ZNSt10_HashtableIiSt4pairIKiSt6vectorIiSaIiEEESaIS5_ENSt8__detail10_Select1stESt8equal_toIiESt4hashIiENS7_18_Mod_range_hashingENS7_20_Default_ranged_hashENS7_20_Prime_rehash_policyENS7_17_Hashtable_traitsILb0ELb0ELb1EEEEC2Ev
	.cfi_endproc
                                        # -- End function
	.section	.text._ZNSt8__detail16_Hashtable_allocISaINS_10_Hash_nodeISt4pairIKiSt6vectorIiSaIiEEELb0EEEEEC2Ev,"axG",@progbits,_ZNSt8__detail16_Hashtable_allocISaINS_10_Hash_nodeISt4pairIKiSt6vectorIiSaIiEEELb0EEEEEC2Ev,comdat
	.weak	_ZNSt8__detail16_Hashtable_allocISaINS_10_Hash_nodeISt4pairIKiSt6vectorIiSaIiEEELb0EEEEEC2Ev # -- Begin function _ZNSt8__detail16_Hashtable_allocISaINS_10_Hash_nodeISt4pairIKiSt6vectorIiSaIiEEELb0EEEEEC2Ev
	.p2align	4, 0x90
	.type	_ZNSt8__detail16_Hashtable_allocISaINS_10_Hash_nodeISt4pairIKiSt6vectorIiSaIiEEELb0EEEEEC2Ev,@function
_ZNSt8__detail16_Hashtable_allocISaINS_10_Hash_nodeISt4pairIKiSt6vectorIiSaIiEEELb0EEEEEC2Ev: # @_ZNSt8__detail16_Hashtable_allocISaINS_10_Hash_nodeISt4pairIKiSt6vectorIiSaIiEEELb0EEEEEC2Ev
	.cfi_startproc
# %bb.0:
	pushq	%rbp
	.cfi_def_cfa_offset 16
	.cfi_offset %rbp, -16
	movq	%rsp, %rbp
	.cfi_def_cfa_register %rbp
	subq	$16, %rsp
	movq	%rdi, -8(%rbp)
	movq	-8(%rbp), %rax
	movq	%rax, %rdi
	callq	_ZNSt8__detail21_Hashtable_ebo_helperILi0ESaINS_10_Hash_nodeISt4pairIKiSt6vectorIiSaIiEEELb0EEEELb1EEC2Ev
	addq	$16, %rsp
	popq	%rbp
	.cfi_def_cfa %rsp, 8
	retq
.Lfunc_end14:
	.size	_ZNSt8__detail16_Hashtable_allocISaINS_10_Hash_nodeISt4pairIKiSt6vectorIiSaIiEEELb0EEEEEC2Ev, .Lfunc_end14-_ZNSt8__detail16_Hashtable_allocISaINS_10_Hash_nodeISt4pairIKiSt6vectorIiSaIiEEELb0EEEEEC2Ev
	.cfi_endproc
                                        # -- End function
	.section	.text._ZNSt8__detail15_Hash_node_baseC2Ev,"axG",@progbits,_ZNSt8__detail15_Hash_node_baseC2Ev,comdat
	.weak	_ZNSt8__detail15_Hash_node_baseC2Ev # -- Begin function _ZNSt8__detail15_Hash_node_baseC2Ev
	.p2align	4, 0x90
	.type	_ZNSt8__detail15_Hash_node_baseC2Ev,@function
_ZNSt8__detail15_Hash_node_baseC2Ev:    # @_ZNSt8__detail15_Hash_node_baseC2Ev
	.cfi_startproc
# %bb.0:
	pushq	%rbp
	.cfi_def_cfa_offset 16
	.cfi_offset %rbp, -16
	movq	%rsp, %rbp
	.cfi_def_cfa_register %rbp
	movq	%rdi, -8(%rbp)
	movq	-8(%rbp), %rax
	movq	$0, (%rax)
	popq	%rbp
	.cfi_def_cfa %rsp, 8
	retq
.Lfunc_end15:
	.size	_ZNSt8__detail15_Hash_node_baseC2Ev, .Lfunc_end15-_ZNSt8__detail15_Hash_node_baseC2Ev
	.cfi_endproc
                                        # -- End function
	.section	.text._ZNSt8__detail20_Prime_rehash_policyC2Ef,"axG",@progbits,_ZNSt8__detail20_Prime_rehash_policyC2Ef,comdat
	.weak	_ZNSt8__detail20_Prime_rehash_policyC2Ef # -- Begin function _ZNSt8__detail20_Prime_rehash_policyC2Ef
	.p2align	4, 0x90
	.type	_ZNSt8__detail20_Prime_rehash_policyC2Ef,@function
_ZNSt8__detail20_Prime_rehash_policyC2Ef: # @_ZNSt8__detail20_Prime_rehash_policyC2Ef
	.cfi_startproc
# %bb.0:
	pushq	%rbp
	.cfi_def_cfa_offset 16
	.cfi_offset %rbp, -16
	movq	%rsp, %rbp
	.cfi_def_cfa_register %rbp
	movq	%rdi, -8(%rbp)
	movss	%xmm0, -12(%rbp)
	movq	-8(%rbp), %rax
	movss	-12(%rbp), %xmm0        # xmm0 = mem[0],zero,zero,zero
	movss	%xmm0, (%rax)
	movq	$0, 8(%rax)
	popq	%rbp
	.cfi_def_cfa %rsp, 8
	retq
.Lfunc_end16:
	.size	_ZNSt8__detail20_Prime_rehash_policyC2Ef, .Lfunc_end16-_ZNSt8__detail20_Prime_rehash_policyC2Ef
	.cfi_endproc
                                        # -- End function
	.section	.text._ZNSt8__detail21_Hashtable_ebo_helperILi0ESaINS_10_Hash_nodeISt4pairIKiSt6vectorIiSaIiEEELb0EEEELb1EEC2Ev,"axG",@progbits,_ZNSt8__detail21_Hashtable_ebo_helperILi0ESaINS_10_Hash_nodeISt4pairIKiSt6vectorIiSaIiEEELb0EEEELb1EEC2Ev,comdat
	.weak	_ZNSt8__detail21_Hashtable_ebo_helperILi0ESaINS_10_Hash_nodeISt4pairIKiSt6vectorIiSaIiEEELb0EEEELb1EEC2Ev # -- Begin function _ZNSt8__detail21_Hashtable_ebo_helperILi0ESaINS_10_Hash_nodeISt4pairIKiSt6vectorIiSaIiEEELb0EEEELb1EEC2Ev
	.p2align	4, 0x90
	.type	_ZNSt8__detail21_Hashtable_ebo_helperILi0ESaINS_10_Hash_nodeISt4pairIKiSt6vectorIiSaIiEEELb0EEEELb1EEC2Ev,@function
_ZNSt8__detail21_Hashtable_ebo_helperILi0ESaINS_10_Hash_nodeISt4pairIKiSt6vectorIiSaIiEEELb0EEEELb1EEC2Ev: # @_ZNSt8__detail21_Hashtable_ebo_helperILi0ESaINS_10_Hash_nodeISt4pairIKiSt6vectorIiSaIiEEELb0EEEELb1EEC2Ev
	.cfi_startproc
# %bb.0:
	pushq	%rbp
	.cfi_def_cfa_offset 16
	.cfi_offset %rbp, -16
	movq	%rsp, %rbp
	.cfi_def_cfa_register %rbp
	subq	$16, %rsp
	movq	%rdi, -8(%rbp)
	movq	-8(%rbp), %rax
	movq	%rax, %rdi
	callq	_ZNSaINSt8__detail10_Hash_nodeISt4pairIKiSt6vectorIiSaIiEEELb0EEEEC2Ev
	addq	$16, %rsp
	popq	%rbp
	.cfi_def_cfa %rsp, 8
	retq
.Lfunc_end17:
	.size	_ZNSt8__detail21_Hashtable_ebo_helperILi0ESaINS_10_Hash_nodeISt4pairIKiSt6vectorIiSaIiEEELb0EEEELb1EEC2Ev, .Lfunc_end17-_ZNSt8__detail21_Hashtable_ebo_helperILi0ESaINS_10_Hash_nodeISt4pairIKiSt6vectorIiSaIiEEELb0EEEELb1EEC2Ev
	.cfi_endproc
                                        # -- End function
	.section	.text._ZNSaINSt8__detail10_Hash_nodeISt4pairIKiSt6vectorIiSaIiEEELb0EEEEC2Ev,"axG",@progbits,_ZNSaINSt8__detail10_Hash_nodeISt4pairIKiSt6vectorIiSaIiEEELb0EEEEC2Ev,comdat
	.weak	_ZNSaINSt8__detail10_Hash_nodeISt4pairIKiSt6vectorIiSaIiEEELb0EEEEC2Ev # -- Begin function _ZNSaINSt8__detail10_Hash_nodeISt4pairIKiSt6vectorIiSaIiEEELb0EEEEC2Ev
	.p2align	4, 0x90
	.type	_ZNSaINSt8__detail10_Hash_nodeISt4pairIKiSt6vectorIiSaIiEEELb0EEEEC2Ev,@function
_ZNSaINSt8__detail10_Hash_nodeISt4pairIKiSt6vectorIiSaIiEEELb0EEEEC2Ev: # @_ZNSaINSt8__detail10_Hash_nodeISt4pairIKiSt6vectorIiSaIiEEELb0EEEEC2Ev
	.cfi_startproc
# %bb.0:
	pushq	%rbp
	.cfi_def_cfa_offset 16
	.cfi_offset %rbp, -16
	movq	%rsp, %rbp
	.cfi_def_cfa_register %rbp
	subq	$16, %rsp
	movq	%rdi, -8(%rbp)
	movq	-8(%rbp), %rax
	movq	%rax, %rdi
	callq	_ZN9__gnu_cxx13new_allocatorINSt8__detail10_Hash_nodeISt4pairIKiSt6vectorIiSaIiEEELb0EEEEC2Ev
	addq	$16, %rsp
	popq	%rbp
	.cfi_def_cfa %rsp, 8
	retq
.Lfunc_end18:
	.size	_ZNSaINSt8__detail10_Hash_nodeISt4pairIKiSt6vectorIiSaIiEEELb0EEEEC2Ev, .Lfunc_end18-_ZNSaINSt8__detail10_Hash_nodeISt4pairIKiSt6vectorIiSaIiEEELb0EEEEC2Ev
	.cfi_endproc
                                        # -- End function
	.section	.text._ZN9__gnu_cxx13new_allocatorINSt8__detail10_Hash_nodeISt4pairIKiSt6vectorIiSaIiEEELb0EEEEC2Ev,"axG",@progbits,_ZN9__gnu_cxx13new_allocatorINSt8__detail10_Hash_nodeISt4pairIKiSt6vectorIiSaIiEEELb0EEEEC2Ev,comdat
	.weak	_ZN9__gnu_cxx13new_allocatorINSt8__detail10_Hash_nodeISt4pairIKiSt6vectorIiSaIiEEELb0EEEEC2Ev # -- Begin function _ZN9__gnu_cxx13new_allocatorINSt8__detail10_Hash_nodeISt4pairIKiSt6vectorIiSaIiEEELb0EEEEC2Ev
	.p2align	4, 0x90
	.type	_ZN9__gnu_cxx13new_allocatorINSt8__detail10_Hash_nodeISt4pairIKiSt6vectorIiSaIiEEELb0EEEEC2Ev,@function
_ZN9__gnu_cxx13new_allocatorINSt8__detail10_Hash_nodeISt4pairIKiSt6vectorIiSaIiEEELb0EEEEC2Ev: # @_ZN9__gnu_cxx13new_allocatorINSt8__detail10_Hash_nodeISt4pairIKiSt6vectorIiSaIiEEELb0EEEEC2Ev
	.cfi_startproc
# %bb.0:
	pushq	%rbp
	.cfi_def_cfa_offset 16
	.cfi_offset %rbp, -16
	movq	%rsp, %rbp
	.cfi_def_cfa_register %rbp
	movq	%rdi, -8(%rbp)
	popq	%rbp
	.cfi_def_cfa %rsp, 8
	retq
.Lfunc_end19:
	.size	_ZN9__gnu_cxx13new_allocatorINSt8__detail10_Hash_nodeISt4pairIKiSt6vectorIiSaIiEEELb0EEEEC2Ev, .Lfunc_end19-_ZN9__gnu_cxx13new_allocatorINSt8__detail10_Hash_nodeISt4pairIKiSt6vectorIiSaIiEEELb0EEEEC2Ev
	.cfi_endproc
                                        # -- End function
	.section	.text._ZNSt13unordered_mapIiSt6vectorIiSaIiEESt4hashIiESt8equal_toIiESaISt4pairIKiS2_EEEixERS8_,"axG",@progbits,_ZNSt13unordered_mapIiSt6vectorIiSaIiEESt4hashIiESt8equal_toIiESaISt4pairIKiS2_EEEixERS8_,comdat
	.weak	_ZNSt13unordered_mapIiSt6vectorIiSaIiEESt4hashIiESt8equal_toIiESaISt4pairIKiS2_EEEixERS8_ # -- Begin function _ZNSt13unordered_mapIiSt6vectorIiSaIiEESt4hashIiESt8equal_toIiESaISt4pairIKiS2_EEEixERS8_
	.p2align	4, 0x90
	.type	_ZNSt13unordered_mapIiSt6vectorIiSaIiEESt4hashIiESt8equal_toIiESaISt4pairIKiS2_EEEixERS8_,@function
_ZNSt13unordered_mapIiSt6vectorIiSaIiEESt4hashIiESt8equal_toIiESaISt4pairIKiS2_EEEixERS8_: # @_ZNSt13unordered_mapIiSt6vectorIiSaIiEESt4hashIiESt8equal_toIiESaISt4pairIKiS2_EEEixERS8_
	.cfi_startproc
# %bb.0:
	pushq	%rbp
	.cfi_def_cfa_offset 16
	.cfi_offset %rbp, -16
	movq	%rsp, %rbp
	.cfi_def_cfa_register %rbp
	subq	$16, %rsp
	movq	%rdi, -8(%rbp)
	movq	%rsi, -16(%rbp)
	movq	-8(%rbp), %rax
	movq	-16(%rbp), %rsi
	movq	%rax, %rdi
	callq	_ZNSt8__detail9_Map_baseIiSt4pairIKiSt6vectorIiSaIiEEESaIS6_ENS_10_Select1stESt8equal_toIiESt4hashIiENS_18_Mod_range_hashingENS_20_Default_ranged_hashENS_20_Prime_rehash_policyENS_17_Hashtable_traitsILb0ELb0ELb1EEELb1EEixERS2_
	addq	$16, %rsp
	popq	%rbp
	.cfi_def_cfa %rsp, 8
	retq
.Lfunc_end20:
	.size	_ZNSt13unordered_mapIiSt6vectorIiSaIiEESt4hashIiESt8equal_toIiESaISt4pairIKiS2_EEEixERS8_, .Lfunc_end20-_ZNSt13unordered_mapIiSt6vectorIiSaIiEESt4hashIiESt8equal_toIiESaISt4pairIKiS2_EEEixERS8_
	.cfi_endproc
                                        # -- End function
	.section	.text._ZNSt6vectorIiSaIiEE9push_backERKi,"axG",@progbits,_ZNSt6vectorIiSaIiEE9push_backERKi,comdat
	.weak	_ZNSt6vectorIiSaIiEE9push_backERKi # -- Begin function _ZNSt6vectorIiSaIiEE9push_backERKi
	.p2align	4, 0x90
	.type	_ZNSt6vectorIiSaIiEE9push_backERKi,@function
_ZNSt6vectorIiSaIiEE9push_backERKi:     # @_ZNSt6vectorIiSaIiEE9push_backERKi
	.cfi_startproc
# %bb.0:
	pushq	%rbp
	.cfi_def_cfa_offset 16
	.cfi_offset %rbp, -16
	movq	%rsp, %rbp
	.cfi_def_cfa_register %rbp
	subq	$32, %rsp
	movq	%rdi, -8(%rbp)
	movq	%rsi, -16(%rbp)
	movq	-8(%rbp), %rax
	movq	8(%rax), %rcx
	cmpq	16(%rax), %rcx
	movq	%rax, -32(%rbp)         # 8-byte Spill
	je	.LBB21_2
# %bb.1:
	movq	-32(%rbp), %rax         # 8-byte Reload
	movq	-32(%rbp), %rcx         # 8-byte Reload
	movq	8(%rcx), %rsi
	movq	-16(%rbp), %rdx
	movq	%rax, %rdi
	callq	_ZNSt16allocator_traitsISaIiEE9constructIiJRKiEEEvRS0_PT_DpOT0_
	movq	-32(%rbp), %rax         # 8-byte Reload
	movq	8(%rax), %rcx
	addq	$4, %rcx
	movq	%rcx, 8(%rax)
	jmp	.LBB21_3
.LBB21_2:
	movq	-32(%rbp), %rdi         # 8-byte Reload
	callq	_ZNSt6vectorIiSaIiEE3endEv
	movq	%rax, -24(%rbp)
	movq	-16(%rbp), %rdx
	movq	-24(%rbp), %rsi
	movq	-32(%rbp), %rdi         # 8-byte Reload
	callq	_ZNSt6vectorIiSaIiEE17_M_realloc_insertIJRKiEEEvN9__gnu_cxx17__normal_iteratorIPiS1_EEDpOT_
.LBB21_3:
	addq	$32, %rsp
	popq	%rbp
	.cfi_def_cfa %rsp, 8
	retq
.Lfunc_end21:
	.size	_ZNSt6vectorIiSaIiEE9push_backERKi, .Lfunc_end21-_ZNSt6vectorIiSaIiEE9push_backERKi
	.cfi_endproc
                                        # -- End function
	.section	.text._ZNSt8__detail9_Map_baseIiSt4pairIKiSt6vectorIiSaIiEEESaIS6_ENS_10_Select1stESt8equal_toIiESt4hashIiENS_18_Mod_range_hashingENS_20_Default_ranged_hashENS_20_Prime_rehash_policyENS_17_Hashtable_traitsILb0ELb0ELb1EEELb1EEixERS2_,"axG",@progbits,_ZNSt8__detail9_Map_baseIiSt4pairIKiSt6vectorIiSaIiEEESaIS6_ENS_10_Select1stESt8equal_toIiESt4hashIiENS_18_Mod_range_hashingENS_20_Default_ranged_hashENS_20_Prime_rehash_policyENS_17_Hashtable_traitsILb0ELb0ELb1EEELb1EEixERS2_,comdat
	.weak	_ZNSt8__detail9_Map_baseIiSt4pairIKiSt6vectorIiSaIiEEESaIS6_ENS_10_Select1stESt8equal_toIiESt4hashIiENS_18_Mod_range_hashingENS_20_Default_ranged_hashENS_20_Prime_rehash_policyENS_17_Hashtable_traitsILb0ELb0ELb1EEELb1EEixERS2_ # -- Begin function _ZNSt8__detail9_Map_baseIiSt4pairIKiSt6vectorIiSaIiEEESaIS6_ENS_10_Select1stESt8equal_toIiESt4hashIiENS_18_Mod_range_hashingENS_20_Default_ranged_hashENS_20_Prime_rehash_policyENS_17_Hashtable_traitsILb0ELb0ELb1EEELb1EEixERS2_
	.p2align	4, 0x90
	.type	_ZNSt8__detail9_Map_baseIiSt4pairIKiSt6vectorIiSaIiEEESaIS6_ENS_10_Select1stESt8equal_toIiESt4hashIiENS_18_Mod_range_hashingENS_20_Default_ranged_hashENS_20_Prime_rehash_policyENS_17_Hashtable_traitsILb0ELb0ELb1EEELb1EEixERS2_,@function
_ZNSt8__detail9_Map_baseIiSt4pairIKiSt6vectorIiSaIiEEESaIS6_ENS_10_Select1stESt8equal_toIiESt4hashIiENS_18_Mod_range_hashingENS_20_Default_ranged_hashENS_20_Prime_rehash_policyENS_17_Hashtable_traitsILb0ELb0ELb1EEELb1EEixERS2_: # @_ZNSt8__detail9_Map_baseIiSt4pairIKiSt6vectorIiSaIiEEESaIS6_ENS_10_Select1stESt8equal_toIiESt4hashIiENS_18_Mod_range_hashingENS_20_Default_ranged_hashENS_20_Prime_rehash_policyENS_17_Hashtable_traitsILb0ELb0ELb1EEELb1EEixERS2_
	.cfi_startproc
# %bb.0:
	pushq	%rbp
	.cfi_def_cfa_offset 16
	.cfi_offset %rbp, -16
	movq	%rsp, %rbp
	.cfi_def_cfa_register %rbp
	subq	$96, %rsp
	movq	%rdi, -16(%rbp)
	movq	%rsi, -24(%rbp)
	movq	-16(%rbp), %rax
	movq	%rax, -32(%rbp)
	movq	-32(%rbp), %rax
	movq	-24(%rbp), %rsi
	movq	%rax, %rdi
	callq	_ZNKSt8__detail15_Hash_code_baseIiSt4pairIKiSt6vectorIiSaIiEEENS_10_Select1stESt4hashIiENS_18_Mod_range_hashingENS_20_Default_ranged_hashELb0EE12_M_hash_codeERS2_
	movq	%rax, -40(%rbp)
	movq	-32(%rbp), %rdi
	movq	-24(%rbp), %rsi
	movq	-40(%rbp), %rdx
	callq	_ZNKSt10_HashtableIiSt4pairIKiSt6vectorIiSaIiEEESaIS5_ENSt8__detail10_Select1stESt8equal_toIiESt4hashIiENS7_18_Mod_range_hashingENS7_20_Default_ranged_hashENS7_20_Prime_rehash_policyENS7_17_Hashtable_traitsILb0ELb0ELb1EEEE15_M_bucket_indexERS1_m
	movq	%rax, -48(%rbp)
	movq	-32(%rbp), %rdi
	movq	-48(%rbp), %rsi
	movq	-24(%rbp), %rdx
	movq	-40(%rbp), %rcx
	callq	_ZNKSt10_HashtableIiSt4pairIKiSt6vectorIiSaIiEEESaIS5_ENSt8__detail10_Select1stESt8equal_toIiESt4hashIiENS7_18_Mod_range_hashingENS7_20_Default_ranged_hashENS7_20_Prime_rehash_policyENS7_17_Hashtable_traitsILb0ELb0ELb1EEEE12_M_find_nodeEmRS1_m
	movq	%rax, -56(%rbp)
	cmpq	$0, -56(%rbp)
	jne	.LBB22_2
# %bb.1:
	movq	-32(%rbp), %rax
	movq	-24(%rbp), %rsi
	leaq	-64(%rbp), %rdi
	movq	%rax, -88(%rbp)         # 8-byte Spill
	callq	_ZNSt5tupleIJRKiEEC2IvLb1EEES1_
	movq	-88(%rbp), %rdi         # 8-byte Reload
	movabsq	$_ZStL19piecewise_construct, %rsi
	leaq	-64(%rbp), %rdx
	leaq	-72(%rbp), %rcx
	callq	_ZNSt8__detail16_Hashtable_allocISaINS_10_Hash_nodeISt4pairIKiSt6vectorIiSaIiEEELb0EEEEE16_M_allocate_nodeIJRKSt21piecewise_construct_tSt5tupleIJRS3_EESF_IJEEEEEPS8_DpOT_
	movq	%rax, -56(%rbp)
	movq	-32(%rbp), %rdi
	movq	-48(%rbp), %rsi
	movq	-40(%rbp), %rdx
	movq	-56(%rbp), %rcx
	movl	$1, %r8d
	callq	_ZNSt10_HashtableIiSt4pairIKiSt6vectorIiSaIiEEESaIS5_ENSt8__detail10_Select1stESt8equal_toIiESt4hashIiENS7_18_Mod_range_hashingENS7_20_Default_ranged_hashENS7_20_Prime_rehash_policyENS7_17_Hashtable_traitsILb0ELb0ELb1EEEE21_M_insert_unique_nodeEmmPNS7_10_Hash_nodeIS5_Lb0EEEm
	movq	%rax, -80(%rbp)
	leaq	-80(%rbp), %rdi
	callq	_ZNKSt8__detail14_Node_iteratorISt4pairIKiSt6vectorIiSaIiEEELb0ELb0EEptEv
	addq	$8, %rax
	movq	%rax, -8(%rbp)
	jmp	.LBB22_3
.LBB22_2:
	movq	-56(%rbp), %rax
	movq	%rax, %rdi
	callq	_ZNSt8__detail21_Hash_node_value_baseISt4pairIKiSt6vectorIiSaIiEEEE4_M_vEv
	addq	$8, %rax
	movq	%rax, -8(%rbp)
.LBB22_3:
	movq	-8(%rbp), %rax
	addq	$96, %rsp
	popq	%rbp
	.cfi_def_cfa %rsp, 8
	retq
.Lfunc_end22:
	.size	_ZNSt8__detail9_Map_baseIiSt4pairIKiSt6vectorIiSaIiEEESaIS6_ENS_10_Select1stESt8equal_toIiESt4hashIiENS_18_Mod_range_hashingENS_20_Default_ranged_hashENS_20_Prime_rehash_policyENS_17_Hashtable_traitsILb0ELb0ELb1EEELb1EEixERS2_, .Lfunc_end22-_ZNSt8__detail9_Map_baseIiSt4pairIKiSt6vectorIiSaIiEEESaIS6_ENS_10_Select1stESt8equal_toIiESt4hashIiENS_18_Mod_range_hashingENS_20_Default_ranged_hashENS_20_Prime_rehash_policyENS_17_Hashtable_traitsILb0ELb0ELb1EEELb1EEixERS2_
	.cfi_endproc
                                        # -- End function
	.section	.text._ZNKSt8__detail15_Hash_code_baseIiSt4pairIKiSt6vectorIiSaIiEEENS_10_Select1stESt4hashIiENS_18_Mod_range_hashingENS_20_Default_ranged_hashELb0EE12_M_hash_codeERS2_,"axG",@progbits,_ZNKSt8__detail15_Hash_code_baseIiSt4pairIKiSt6vectorIiSaIiEEENS_10_Select1stESt4hashIiENS_18_Mod_range_hashingENS_20_Default_ranged_hashELb0EE12_M_hash_codeERS2_,comdat
	.weak	_ZNKSt8__detail15_Hash_code_baseIiSt4pairIKiSt6vectorIiSaIiEEENS_10_Select1stESt4hashIiENS_18_Mod_range_hashingENS_20_Default_ranged_hashELb0EE12_M_hash_codeERS2_ # -- Begin function _ZNKSt8__detail15_Hash_code_baseIiSt4pairIKiSt6vectorIiSaIiEEENS_10_Select1stESt4hashIiENS_18_Mod_range_hashingENS_20_Default_ranged_hashELb0EE12_M_hash_codeERS2_
	.p2align	4, 0x90
	.type	_ZNKSt8__detail15_Hash_code_baseIiSt4pairIKiSt6vectorIiSaIiEEENS_10_Select1stESt4hashIiENS_18_Mod_range_hashingENS_20_Default_ranged_hashELb0EE12_M_hash_codeERS2_,@function
_ZNKSt8__detail15_Hash_code_baseIiSt4pairIKiSt6vectorIiSaIiEEENS_10_Select1stESt4hashIiENS_18_Mod_range_hashingENS_20_Default_ranged_hashELb0EE12_M_hash_codeERS2_: # @_ZNKSt8__detail15_Hash_code_baseIiSt4pairIKiSt6vectorIiSaIiEEENS_10_Select1stESt4hashIiENS_18_Mod_range_hashingENS_20_Default_ranged_hashELb0EE12_M_hash_codeERS2_
	.cfi_startproc
# %bb.0:
	pushq	%rbp
	.cfi_def_cfa_offset 16
	.cfi_offset %rbp, -16
	movq	%rsp, %rbp
	.cfi_def_cfa_register %rbp
	subq	$16, %rsp
	movq	%rdi, -8(%rbp)
	movq	%rsi, -16(%rbp)
	movq	-8(%rbp), %rdi
	callq	_ZNKSt8__detail15_Hash_code_baseIiSt4pairIKiSt6vectorIiSaIiEEENS_10_Select1stESt4hashIiENS_18_Mod_range_hashingENS_20_Default_ranged_hashELb0EE5_M_h1Ev
	movq	-16(%rbp), %rcx
	movl	(%rcx), %esi
	movq	%rax, %rdi
	callq	_ZNKSt4hashIiEclEi
	addq	$16, %rsp
	popq	%rbp
	.cfi_def_cfa %rsp, 8
	retq
.Lfunc_end23:
	.size	_ZNKSt8__detail15_Hash_code_baseIiSt4pairIKiSt6vectorIiSaIiEEENS_10_Select1stESt4hashIiENS_18_Mod_range_hashingENS_20_Default_ranged_hashELb0EE12_M_hash_codeERS2_, .Lfunc_end23-_ZNKSt8__detail15_Hash_code_baseIiSt4pairIKiSt6vectorIiSaIiEEENS_10_Select1stESt4hashIiENS_18_Mod_range_hashingENS_20_Default_ranged_hashELb0EE12_M_hash_codeERS2_
	.cfi_endproc
                                        # -- End function
	.section	.text._ZNKSt10_HashtableIiSt4pairIKiSt6vectorIiSaIiEEESaIS5_ENSt8__detail10_Select1stESt8equal_toIiESt4hashIiENS7_18_Mod_range_hashingENS7_20_Default_ranged_hashENS7_20_Prime_rehash_policyENS7_17_Hashtable_traitsILb0ELb0ELb1EEEE15_M_bucket_indexERS1_m,"axG",@progbits,_ZNKSt10_HashtableIiSt4pairIKiSt6vectorIiSaIiEEESaIS5_ENSt8__detail10_Select1stESt8equal_toIiESt4hashIiENS7_18_Mod_range_hashingENS7_20_Default_ranged_hashENS7_20_Prime_rehash_policyENS7_17_Hashtable_traitsILb0ELb0ELb1EEEE15_M_bucket_indexERS1_m,comdat
	.weak	_ZNKSt10_HashtableIiSt4pairIKiSt6vectorIiSaIiEEESaIS5_ENSt8__detail10_Select1stESt8equal_toIiESt4hashIiENS7_18_Mod_range_hashingENS7_20_Default_ranged_hashENS7_20_Prime_rehash_policyENS7_17_Hashtable_traitsILb0ELb0ELb1EEEE15_M_bucket_indexERS1_m # -- Begin function _ZNKSt10_HashtableIiSt4pairIKiSt6vectorIiSaIiEEESaIS5_ENSt8__detail10_Select1stESt8equal_toIiESt4hashIiENS7_18_Mod_range_hashingENS7_20_Default_ranged_hashENS7_20_Prime_rehash_policyENS7_17_Hashtable_traitsILb0ELb0ELb1EEEE15_M_bucket_indexERS1_m
	.p2align	4, 0x90
	.type	_ZNKSt10_HashtableIiSt4pairIKiSt6vectorIiSaIiEEESaIS5_ENSt8__detail10_Select1stESt8equal_toIiESt4hashIiENS7_18_Mod_range_hashingENS7_20_Default_ranged_hashENS7_20_Prime_rehash_policyENS7_17_Hashtable_traitsILb0ELb0ELb1EEEE15_M_bucket_indexERS1_m,@function
_ZNKSt10_HashtableIiSt4pairIKiSt6vectorIiSaIiEEESaIS5_ENSt8__detail10_Select1stESt8equal_toIiESt4hashIiENS7_18_Mod_range_hashingENS7_20_Default_ranged_hashENS7_20_Prime_rehash_policyENS7_17_Hashtable_traitsILb0ELb0ELb1EEEE15_M_bucket_indexERS1_m: # @_ZNKSt10_HashtableIiSt4pairIKiSt6vectorIiSaIiEEESaIS5_ENSt8__detail10_Select1stESt8equal_toIiESt4hashIiENS7_18_Mod_range_hashingENS7_20_Default_ranged_hashENS7_20_Prime_rehash_policyENS7_17_Hashtable_traitsILb0ELb0ELb1EEEE15_M_bucket_indexERS1_m
	.cfi_startproc
# %bb.0:
	pushq	%rbp
	.cfi_def_cfa_offset 16
	.cfi_offset %rbp, -16
	movq	%rsp, %rbp
	.cfi_def_cfa_register %rbp
	subq	$32, %rsp
	movq	%rdi, -8(%rbp)
	movq	%rsi, -16(%rbp)
	movq	%rdx, -24(%rbp)
	movq	-8(%rbp), %rax
	movq	%rax, %rcx
	movq	-16(%rbp), %rsi
	movq	-24(%rbp), %rdx
	movq	8(%rax), %rax
	movq	%rcx, %rdi
	movq	%rax, %rcx
	callq	_ZNKSt8__detail15_Hash_code_baseIiSt4pairIKiSt6vectorIiSaIiEEENS_10_Select1stESt4hashIiENS_18_Mod_range_hashingENS_20_Default_ranged_hashELb0EE15_M_bucket_indexERS2_mm
	addq	$32, %rsp
	popq	%rbp
	.cfi_def_cfa %rsp, 8
	retq
.Lfunc_end24:
	.size	_ZNKSt10_HashtableIiSt4pairIKiSt6vectorIiSaIiEEESaIS5_ENSt8__detail10_Select1stESt8equal_toIiESt4hashIiENS7_18_Mod_range_hashingENS7_20_Default_ranged_hashENS7_20_Prime_rehash_policyENS7_17_Hashtable_traitsILb0ELb0ELb1EEEE15_M_bucket_indexERS1_m, .Lfunc_end24-_ZNKSt10_HashtableIiSt4pairIKiSt6vectorIiSaIiEEESaIS5_ENSt8__detail10_Select1stESt8equal_toIiESt4hashIiENS7_18_Mod_range_hashingENS7_20_Default_ranged_hashENS7_20_Prime_rehash_policyENS7_17_Hashtable_traitsILb0ELb0ELb1EEEE15_M_bucket_indexERS1_m
	.cfi_endproc
                                        # -- End function
	.section	.text._ZNKSt10_HashtableIiSt4pairIKiSt6vectorIiSaIiEEESaIS5_ENSt8__detail10_Select1stESt8equal_toIiESt4hashIiENS7_18_Mod_range_hashingENS7_20_Default_ranged_hashENS7_20_Prime_rehash_policyENS7_17_Hashtable_traitsILb0ELb0ELb1EEEE12_M_find_nodeEmRS1_m,"axG",@progbits,_ZNKSt10_HashtableIiSt4pairIKiSt6vectorIiSaIiEEESaIS5_ENSt8__detail10_Select1stESt8equal_toIiESt4hashIiENS7_18_Mod_range_hashingENS7_20_Default_ranged_hashENS7_20_Prime_rehash_policyENS7_17_Hashtable_traitsILb0ELb0ELb1EEEE12_M_find_nodeEmRS1_m,comdat
	.weak	_ZNKSt10_HashtableIiSt4pairIKiSt6vectorIiSaIiEEESaIS5_ENSt8__detail10_Select1stESt8equal_toIiESt4hashIiENS7_18_Mod_range_hashingENS7_20_Default_ranged_hashENS7_20_Prime_rehash_policyENS7_17_Hashtable_traitsILb0ELb0ELb1EEEE12_M_find_nodeEmRS1_m # -- Begin function _ZNKSt10_HashtableIiSt4pairIKiSt6vectorIiSaIiEEESaIS5_ENSt8__detail10_Select1stESt8equal_toIiESt4hashIiENS7_18_Mod_range_hashingENS7_20_Default_ranged_hashENS7_20_Prime_rehash_policyENS7_17_Hashtable_traitsILb0ELb0ELb1EEEE12_M_find_nodeEmRS1_m
	.p2align	4, 0x90
	.type	_ZNKSt10_HashtableIiSt4pairIKiSt6vectorIiSaIiEEESaIS5_ENSt8__detail10_Select1stESt8equal_toIiESt4hashIiENS7_18_Mod_range_hashingENS7_20_Default_ranged_hashENS7_20_Prime_rehash_policyENS7_17_Hashtable_traitsILb0ELb0ELb1EEEE12_M_find_nodeEmRS1_m,@function
_ZNKSt10_HashtableIiSt4pairIKiSt6vectorIiSaIiEEESaIS5_ENSt8__detail10_Select1stESt8equal_toIiESt4hashIiENS7_18_Mod_range_hashingENS7_20_Default_ranged_hashENS7_20_Prime_rehash_policyENS7_17_Hashtable_traitsILb0ELb0ELb1EEEE12_M_find_nodeEmRS1_m: # @_ZNKSt10_HashtableIiSt4pairIKiSt6vectorIiSaIiEEESaIS5_ENSt8__detail10_Select1stESt8equal_toIiESt4hashIiENS7_18_Mod_range_hashingENS7_20_Default_ranged_hashENS7_20_Prime_rehash_policyENS7_17_Hashtable_traitsILb0ELb0ELb1EEEE12_M_find_nodeEmRS1_m
	.cfi_startproc
# %bb.0:
	pushq	%rbp
	.cfi_def_cfa_offset 16
	.cfi_offset %rbp, -16
	movq	%rsp, %rbp
	.cfi_def_cfa_register %rbp
	subq	$48, %rsp
	movq	%rdi, -16(%rbp)
	movq	%rsi, -24(%rbp)
	movq	%rdx, -32(%rbp)
	movq	%rcx, -40(%rbp)
	movq	-16(%rbp), %rdi
	movq	-24(%rbp), %rsi
	movq	-32(%rbp), %rdx
	movq	-40(%rbp), %rcx
	callq	_ZNKSt10_HashtableIiSt4pairIKiSt6vectorIiSaIiEEESaIS5_ENSt8__detail10_Select1stESt8equal_toIiESt4hashIiENS7_18_Mod_range_hashingENS7_20_Default_ranged_hashENS7_20_Prime_rehash_policyENS7_17_Hashtable_traitsILb0ELb0ELb1EEEE19_M_find_before_nodeEmRS1_m
	movq	%rax, -48(%rbp)
	cmpq	$0, -48(%rbp)
	je	.LBB25_2
# %bb.1:
	movq	-48(%rbp), %rax
	movq	(%rax), %rax
	movq	%rax, -8(%rbp)
	jmp	.LBB25_3
.LBB25_2:
	movq	$0, -8(%rbp)
.LBB25_3:
	movq	-8(%rbp), %rax
	addq	$48, %rsp
	popq	%rbp
	.cfi_def_cfa %rsp, 8
	retq
.Lfunc_end25:
	.size	_ZNKSt10_HashtableIiSt4pairIKiSt6vectorIiSaIiEEESaIS5_ENSt8__detail10_Select1stESt8equal_toIiESt4hashIiENS7_18_Mod_range_hashingENS7_20_Default_ranged_hashENS7_20_Prime_rehash_policyENS7_17_Hashtable_traitsILb0ELb0ELb1EEEE12_M_find_nodeEmRS1_m, .Lfunc_end25-_ZNKSt10_HashtableIiSt4pairIKiSt6vectorIiSaIiEEESaIS5_ENSt8__detail10_Select1stESt8equal_toIiESt4hashIiENS7_18_Mod_range_hashingENS7_20_Default_ranged_hashENS7_20_Prime_rehash_policyENS7_17_Hashtable_traitsILb0ELb0ELb1EEEE12_M_find_nodeEmRS1_m
	.cfi_endproc
                                        # -- End function
	.section	.text._ZNSt8__detail16_Hashtable_allocISaINS_10_Hash_nodeISt4pairIKiSt6vectorIiSaIiEEELb0EEEEE16_M_allocate_nodeIJRKSt21piecewise_construct_tSt5tupleIJRS3_EESF_IJEEEEEPS8_DpOT_,"axG",@progbits,_ZNSt8__detail16_Hashtable_allocISaINS_10_Hash_nodeISt4pairIKiSt6vectorIiSaIiEEELb0EEEEE16_M_allocate_nodeIJRKSt21piecewise_construct_tSt5tupleIJRS3_EESF_IJEEEEEPS8_DpOT_,comdat
	.weak	_ZNSt8__detail16_Hashtable_allocISaINS_10_Hash_nodeISt4pairIKiSt6vectorIiSaIiEEELb0EEEEE16_M_allocate_nodeIJRKSt21piecewise_construct_tSt5tupleIJRS3_EESF_IJEEEEEPS8_DpOT_ # -- Begin function _ZNSt8__detail16_Hashtable_allocISaINS_10_Hash_nodeISt4pairIKiSt6vectorIiSaIiEEELb0EEEEE16_M_allocate_nodeIJRKSt21piecewise_construct_tSt5tupleIJRS3_EESF_IJEEEEEPS8_DpOT_
	.p2align	4, 0x90
	.type	_ZNSt8__detail16_Hashtable_allocISaINS_10_Hash_nodeISt4pairIKiSt6vectorIiSaIiEEELb0EEEEE16_M_allocate_nodeIJRKSt21piecewise_construct_tSt5tupleIJRS3_EESF_IJEEEEEPS8_DpOT_,@function
_ZNSt8__detail16_Hashtable_allocISaINS_10_Hash_nodeISt4pairIKiSt6vectorIiSaIiEEELb0EEEEE16_M_allocate_nodeIJRKSt21piecewise_construct_tSt5tupleIJRS3_EESF_IJEEEEEPS8_DpOT_: # @_ZNSt8__detail16_Hashtable_allocISaINS_10_Hash_nodeISt4pairIKiSt6vectorIiSaIiEEELb0EEEEE16_M_allocate_nodeIJRKSt21piecewise_construct_tSt5tupleIJRS3_EESF_IJEEEEEPS8_DpOT_
.Lfunc_begin3:
	.cfi_startproc
	.cfi_personality 3, __gxx_personality_v0
	.cfi_lsda 3, .Lexception3
# %bb.0:
	pushq	%rbp
	.cfi_def_cfa_offset 16
	.cfi_offset %rbp, -16
	movq	%rsp, %rbp
	.cfi_def_cfa_register %rbp
	subq	$128, %rsp
	movq	%rdi, -8(%rbp)
	movq	%rsi, -16(%rbp)
	movq	%rdx, -24(%rbp)
	movq	%rcx, -32(%rbp)
	movq	-8(%rbp), %rax
	movq	%rax, %rdi
	movq	%rax, -72(%rbp)         # 8-byte Spill
	callq	_ZNSt8__detail16_Hashtable_allocISaINS_10_Hash_nodeISt4pairIKiSt6vectorIiSaIiEEELb0EEEEE17_M_node_allocatorEv
	movl	$1, %esi
	movq	%rax, %rdi
	callq	_ZNSt16allocator_traitsISaINSt8__detail10_Hash_nodeISt4pairIKiSt6vectorIiSaIiEEELb0EEEEE8allocateERS9_m
	movq	%rax, -40(%rbp)
	movq	-40(%rbp), %rdi
	callq	_ZSt12__to_addressINSt8__detail10_Hash_nodeISt4pairIKiSt6vectorIiSaIiEEELb0EEEEPT_SA_
	movq	%rax, -48(%rbp)
	movq	-48(%rbp), %rdi
	callq	_ZNSt8__detail10_Hash_nodeISt4pairIKiSt6vectorIiSaIiEEELb0EEC2Ev
.Ltmp26:
	movq	-72(%rbp), %rdi         # 8-byte Reload
	callq	_ZNSt8__detail16_Hashtable_allocISaINS_10_Hash_nodeISt4pairIKiSt6vectorIiSaIiEEELb0EEEEE17_M_node_allocatorEv
.Ltmp27:
	movq	%rax, -80(%rbp)         # 8-byte Spill
	jmp	.LBB26_1
.LBB26_1:
	movq	-48(%rbp), %rdi
	callq	_ZNSt8__detail21_Hash_node_value_baseISt4pairIKiSt6vectorIiSaIiEEEE9_M_valptrEv
	movq	-16(%rbp), %rdi
	movq	%rax, -88(%rbp)         # 8-byte Spill
	callq	_ZSt7forwardIRKSt21piecewise_construct_tEOT_RNSt16remove_referenceIS3_E4typeE
	movq	-24(%rbp), %rdi
	movq	%rax, -96(%rbp)         # 8-byte Spill
	callq	_ZSt7forwardISt5tupleIJRKiEEEOT_RNSt16remove_referenceIS4_E4typeE
	movq	-32(%rbp), %rdi
	movq	%rax, -104(%rbp)        # 8-byte Spill
	callq	_ZSt7forwardISt5tupleIJEEEOT_RNSt16remove_referenceIS2_E4typeE
.Ltmp28:
	movq	-80(%rbp), %rdi         # 8-byte Reload
	movq	-88(%rbp), %rsi         # 8-byte Reload
	movq	-96(%rbp), %rdx         # 8-byte Reload
	movq	-104(%rbp), %rcx        # 8-byte Reload
	movq	%rax, %r8
	callq	_ZNSt16allocator_traitsISaINSt8__detail10_Hash_nodeISt4pairIKiSt6vectorIiSaIiEEELb0EEEEE9constructIS7_JRKSt21piecewise_construct_tSt5tupleIJRS3_EESF_IJEEEEEvRS9_PT_DpOT0_
.Ltmp29:
	jmp	.LBB26_2
.LBB26_2:
	movq	-48(%rbp), %rax
	addq	$128, %rsp
	popq	%rbp
	.cfi_def_cfa %rsp, 8
	retq
.LBB26_3:
	.cfi_def_cfa %rbp, 16
.Ltmp30:
                                        # kill: def $edx killed $edx killed $rdx
	movq	%rax, -56(%rbp)
	movl	%edx, -60(%rbp)
# %bb.4:
	movq	-56(%rbp), %rdi
	callq	__cxa_begin_catch
.Ltmp31:
	movq	-72(%rbp), %rdi         # 8-byte Reload
	movq	%rax, -112(%rbp)        # 8-byte Spill
	callq	_ZNSt8__detail16_Hashtable_allocISaINS_10_Hash_nodeISt4pairIKiSt6vectorIiSaIiEEELb0EEEEE17_M_node_allocatorEv
.Ltmp32:
	movq	%rax, -120(%rbp)        # 8-byte Spill
	jmp	.LBB26_5
.LBB26_5:
	movq	-40(%rbp), %rsi
.Ltmp33:
	movl	$1, %edx
	movq	-120(%rbp), %rdi        # 8-byte Reload
	callq	_ZNSt16allocator_traitsISaINSt8__detail10_Hash_nodeISt4pairIKiSt6vectorIiSaIiEEELb0EEEEE10deallocateERS9_PS8_m
.Ltmp34:
	jmp	.LBB26_6
.LBB26_6:
.Ltmp35:
	callq	__cxa_rethrow
.Ltmp36:
	jmp	.LBB26_11
.LBB26_7:
.Ltmp37:
                                        # kill: def $edx killed $edx killed $rdx
	movq	%rax, -56(%rbp)
	movl	%edx, -60(%rbp)
.Ltmp38:
	callq	__cxa_end_catch
.Ltmp39:
	jmp	.LBB26_8
.LBB26_8:
	jmp	.LBB26_9
.LBB26_9:
	movq	-56(%rbp), %rdi
	callq	_Unwind_Resume
.LBB26_10:
.Ltmp40:
                                        # kill: def $edx killed $edx killed $rdx
	movq	%rax, %rdi
	movl	%edx, -124(%rbp)        # 4-byte Spill
	callq	__clang_call_terminate
.LBB26_11:
.Lfunc_end26:
	.size	_ZNSt8__detail16_Hashtable_allocISaINS_10_Hash_nodeISt4pairIKiSt6vectorIiSaIiEEELb0EEEEE16_M_allocate_nodeIJRKSt21piecewise_construct_tSt5tupleIJRS3_EESF_IJEEEEEPS8_DpOT_, .Lfunc_end26-_ZNSt8__detail16_Hashtable_allocISaINS_10_Hash_nodeISt4pairIKiSt6vectorIiSaIiEEELb0EEEEE16_M_allocate_nodeIJRKSt21piecewise_construct_tSt5tupleIJRS3_EESF_IJEEEEEPS8_DpOT_
	.cfi_endproc
	.section	.gcc_except_table,"a",@progbits
	.p2align	2
GCC_except_table26:
.Lexception3:
	.byte	255                     # @LPStart Encoding = omit
	.byte	3                       # @TType Encoding = udata4
	.uleb128 .Lttbase1-.Lttbaseref1
.Lttbaseref1:
	.byte	1                       # Call site Encoding = uleb128
	.uleb128 .Lcst_end3-.Lcst_begin3
.Lcst_begin3:
	.uleb128 .Lfunc_begin3-.Lfunc_begin3 # >> Call Site 1 <<
	.uleb128 .Ltmp26-.Lfunc_begin3  #   Call between .Lfunc_begin3 and .Ltmp26
	.byte	0                       #     has no landing pad
	.byte	0                       #   On action: cleanup
	.uleb128 .Ltmp26-.Lfunc_begin3  # >> Call Site 2 <<
	.uleb128 .Ltmp29-.Ltmp26        #   Call between .Ltmp26 and .Ltmp29
	.uleb128 .Ltmp30-.Lfunc_begin3  #     jumps to .Ltmp30
	.byte	1                       #   On action: 1
	.uleb128 .Ltmp29-.Lfunc_begin3  # >> Call Site 3 <<
	.uleb128 .Ltmp31-.Ltmp29        #   Call between .Ltmp29 and .Ltmp31
	.byte	0                       #     has no landing pad
	.byte	0                       #   On action: cleanup
	.uleb128 .Ltmp31-.Lfunc_begin3  # >> Call Site 4 <<
	.uleb128 .Ltmp36-.Ltmp31        #   Call between .Ltmp31 and .Ltmp36
	.uleb128 .Ltmp37-.Lfunc_begin3  #     jumps to .Ltmp37
	.byte	0                       #   On action: cleanup
	.uleb128 .Ltmp38-.Lfunc_begin3  # >> Call Site 5 <<
	.uleb128 .Ltmp39-.Ltmp38        #   Call between .Ltmp38 and .Ltmp39
	.uleb128 .Ltmp40-.Lfunc_begin3  #     jumps to .Ltmp40
	.byte	1                       #   On action: 1
	.uleb128 .Ltmp39-.Lfunc_begin3  # >> Call Site 6 <<
	.uleb128 .Lfunc_end26-.Ltmp39   #   Call between .Ltmp39 and .Lfunc_end26
	.byte	0                       #     has no landing pad
	.byte	0                       #   On action: cleanup
.Lcst_end3:
	.byte	1                       # >> Action Record 1 <<
                                        #   Catch TypeInfo 1
	.byte	0                       #   No further actions
	.p2align	2
                                        # >> Catch TypeInfos <<
	.long	0                       # TypeInfo 1
.Lttbase1:
	.p2align	2
                                        # -- End function
	.section	.text._ZNSt5tupleIJRKiEEC2IvLb1EEES1_,"axG",@progbits,_ZNSt5tupleIJRKiEEC2IvLb1EEES1_,comdat
	.weak	_ZNSt5tupleIJRKiEEC2IvLb1EEES1_ # -- Begin function _ZNSt5tupleIJRKiEEC2IvLb1EEES1_
	.p2align	4, 0x90
	.type	_ZNSt5tupleIJRKiEEC2IvLb1EEES1_,@function
_ZNSt5tupleIJRKiEEC2IvLb1EEES1_:        # @_ZNSt5tupleIJRKiEEC2IvLb1EEES1_
	.cfi_startproc
# %bb.0:
	pushq	%rbp
	.cfi_def_cfa_offset 16
	.cfi_offset %rbp, -16
	movq	%rsp, %rbp
	.cfi_def_cfa_register %rbp
	subq	$16, %rsp
	movq	%rdi, -8(%rbp)
	movq	%rsi, -16(%rbp)
	movq	-8(%rbp), %rax
	movq	-16(%rbp), %rsi
	movq	%rax, %rdi
	callq	_ZNSt11_Tuple_implILm0EJRKiEEC2ES1_
	addq	$16, %rsp
	popq	%rbp
	.cfi_def_cfa %rsp, 8
	retq
.Lfunc_end27:
	.size	_ZNSt5tupleIJRKiEEC2IvLb1EEES1_, .Lfunc_end27-_ZNSt5tupleIJRKiEEC2IvLb1EEES1_
	.cfi_endproc
                                        # -- End function
	.section	.text._ZNSt10_HashtableIiSt4pairIKiSt6vectorIiSaIiEEESaIS5_ENSt8__detail10_Select1stESt8equal_toIiESt4hashIiENS7_18_Mod_range_hashingENS7_20_Default_ranged_hashENS7_20_Prime_rehash_policyENS7_17_Hashtable_traitsILb0ELb0ELb1EEEE21_M_insert_unique_nodeEmmPNS7_10_Hash_nodeIS5_Lb0EEEm,"axG",@progbits,_ZNSt10_HashtableIiSt4pairIKiSt6vectorIiSaIiEEESaIS5_ENSt8__detail10_Select1stESt8equal_toIiESt4hashIiENS7_18_Mod_range_hashingENS7_20_Default_ranged_hashENS7_20_Prime_rehash_policyENS7_17_Hashtable_traitsILb0ELb0ELb1EEEE21_M_insert_unique_nodeEmmPNS7_10_Hash_nodeIS5_Lb0EEEm,comdat
	.weak	_ZNSt10_HashtableIiSt4pairIKiSt6vectorIiSaIiEEESaIS5_ENSt8__detail10_Select1stESt8equal_toIiESt4hashIiENS7_18_Mod_range_hashingENS7_20_Default_ranged_hashENS7_20_Prime_rehash_policyENS7_17_Hashtable_traitsILb0ELb0ELb1EEEE21_M_insert_unique_nodeEmmPNS7_10_Hash_nodeIS5_Lb0EEEm # -- Begin function _ZNSt10_HashtableIiSt4pairIKiSt6vectorIiSaIiEEESaIS5_ENSt8__detail10_Select1stESt8equal_toIiESt4hashIiENS7_18_Mod_range_hashingENS7_20_Default_ranged_hashENS7_20_Prime_rehash_policyENS7_17_Hashtable_traitsILb0ELb0ELb1EEEE21_M_insert_unique_nodeEmmPNS7_10_Hash_nodeIS5_Lb0EEEm
	.p2align	4, 0x90
	.type	_ZNSt10_HashtableIiSt4pairIKiSt6vectorIiSaIiEEESaIS5_ENSt8__detail10_Select1stESt8equal_toIiESt4hashIiENS7_18_Mod_range_hashingENS7_20_Default_ranged_hashENS7_20_Prime_rehash_policyENS7_17_Hashtable_traitsILb0ELb0ELb1EEEE21_M_insert_unique_nodeEmmPNS7_10_Hash_nodeIS5_Lb0EEEm,@function
_ZNSt10_HashtableIiSt4pairIKiSt6vectorIiSaIiEEESaIS5_ENSt8__detail10_Select1stESt8equal_toIiESt4hashIiENS7_18_Mod_range_hashingENS7_20_Default_ranged_hashENS7_20_Prime_rehash_policyENS7_17_Hashtable_traitsILb0ELb0ELb1EEEE21_M_insert_unique_nodeEmmPNS7_10_Hash_nodeIS5_Lb0EEEm: # @_ZNSt10_HashtableIiSt4pairIKiSt6vectorIiSaIiEEESaIS5_ENSt8__detail10_Select1stESt8equal_toIiESt4hashIiENS7_18_Mod_range_hashingENS7_20_Default_ranged_hashENS7_20_Prime_rehash_policyENS7_17_Hashtable_traitsILb0ELb0ELb1EEEE21_M_insert_unique_nodeEmmPNS7_10_Hash_nodeIS5_Lb0EEEm
.Lfunc_begin4:
	.cfi_startproc
	.cfi_personality 3, __gxx_personality_v0
	.cfi_lsda 3, .Lexception4
# %bb.0:
	pushq	%rbp
	.cfi_def_cfa_offset 16
	.cfi_offset %rbp, -16
	movq	%rsp, %rbp
	.cfi_def_cfa_register %rbp
	subq	$144, %rsp
	movq	%rdi, -16(%rbp)
	movq	%rsi, -24(%rbp)
	movq	%rdx, -32(%rbp)
	movq	%rcx, -40(%rbp)
	movq	%r8, -48(%rbp)
	movq	-16(%rbp), %rax
	movq	%rax, %rcx
	addq	$32, %rcx
	movq	%rcx, %rdi
	movq	%rax, -104(%rbp)        # 8-byte Spill
	callq	_ZNKSt8__detail20_Prime_rehash_policy8_M_stateEv
	movq	%rax, -64(%rbp)
	leaq	-64(%rbp), %rax
	movq	%rax, -56(%rbp)
	movq	-104(%rbp), %rax        # 8-byte Reload
	addq	$32, %rax
	movq	-104(%rbp), %rcx        # 8-byte Reload
	movq	8(%rcx), %rsi
	movq	24(%rcx), %rdx
	movq	-48(%rbp), %rcx
	movq	%rax, %rdi
	callq	_ZNKSt8__detail20_Prime_rehash_policy14_M_need_rehashEmmm
	movb	%al, -80(%rbp)
	movq	%rdx, -72(%rbp)
	testb	$1, -80(%rbp)
	je	.LBB28_9
# %bb.1:
	movq	-72(%rbp), %rsi
	movq	-56(%rbp), %rdx
.Ltmp41:
	movq	-104(%rbp), %rdi        # 8-byte Reload
	callq	_ZNSt10_HashtableIiSt4pairIKiSt6vectorIiSaIiEEESaIS5_ENSt8__detail10_Select1stESt8equal_toIiESt4hashIiENS7_18_Mod_range_hashingENS7_20_Default_ranged_hashENS7_20_Prime_rehash_policyENS7_17_Hashtable_traitsILb0ELb0ELb1EEEE9_M_rehashEmRKm
.Ltmp42:
	jmp	.LBB28_2
.LBB28_2:
.Ltmp43:
	movq	-104(%rbp), %rdi        # 8-byte Reload
	callq	_ZNSt8__detail15_Hash_code_baseIiSt4pairIKiSt6vectorIiSaIiEEENS_10_Select1stESt4hashIiENS_18_Mod_range_hashingENS_20_Default_ranged_hashELb0EE10_M_extractEv
.Ltmp44:
	movq	%rax, -112(%rbp)        # 8-byte Spill
	jmp	.LBB28_3
.LBB28_3:
	movq	-40(%rbp), %rdi
	callq	_ZNSt8__detail21_Hash_node_value_baseISt4pairIKiSt6vectorIiSaIiEEEE4_M_vEv
.Ltmp45:
	movq	-112(%rbp), %rdi        # 8-byte Reload
	movq	%rax, %rsi
	callq	_ZNKSt8__detail10_Select1stclIRSt4pairIKiSt6vectorIiSaIiEEEEEDTclsr3stdE3getIXLi0EEEclsr3stdE7forwardIT_Efp_EEEOS9_
.Ltmp46:
	movq	%rax, -120(%rbp)        # 8-byte Spill
	jmp	.LBB28_4
.LBB28_4:
	movq	-32(%rbp), %rdx
.Ltmp47:
	movq	-104(%rbp), %rdi        # 8-byte Reload
	movq	-120(%rbp), %rsi        # 8-byte Reload
	callq	_ZNKSt10_HashtableIiSt4pairIKiSt6vectorIiSaIiEEESaIS5_ENSt8__detail10_Select1stESt8equal_toIiESt4hashIiENS7_18_Mod_range_hashingENS7_20_Default_ranged_hashENS7_20_Prime_rehash_policyENS7_17_Hashtable_traitsILb0ELb0ELb1EEEE15_M_bucket_indexERS1_m
.Ltmp48:
	movq	%rax, -128(%rbp)        # 8-byte Spill
	jmp	.LBB28_5
.LBB28_5:
	movq	-128(%rbp), %rax        # 8-byte Reload
	movq	%rax, -24(%rbp)
	jmp	.LBB28_9
.LBB28_6:
.Ltmp53:
                                        # kill: def $edx killed $edx killed $rdx
	movq	%rax, -88(%rbp)
	movl	%edx, -92(%rbp)
# %bb.7:
	movq	-88(%rbp), %rdi
	callq	__cxa_begin_catch
	movq	-40(%rbp), %rsi
.Ltmp54:
	movq	-104(%rbp), %rdi        # 8-byte Reload
	movq	%rax, -136(%rbp)        # 8-byte Spill
	callq	_ZNSt8__detail16_Hashtable_allocISaINS_10_Hash_nodeISt4pairIKiSt6vectorIiSaIiEEELb0EEEEE18_M_deallocate_nodeEPS8_
.Ltmp55:
	jmp	.LBB28_8
.LBB28_8:
.Ltmp56:
	callq	__cxa_rethrow
.Ltmp57:
	jmp	.LBB28_16
.LBB28_9:
	movq	-40(%rbp), %rsi
	movq	-32(%rbp), %rdx
.Ltmp49:
	movq	-104(%rbp), %rdi        # 8-byte Reload
	callq	_ZNKSt8__detail15_Hash_code_baseIiSt4pairIKiSt6vectorIiSaIiEEENS_10_Select1stESt4hashIiENS_18_Mod_range_hashingENS_20_Default_ranged_hashELb0EE13_M_store_codeEPNS_10_Hash_nodeIS6_Lb0EEEm
.Ltmp50:
	jmp	.LBB28_10
.LBB28_10:
	movq	-24(%rbp), %rsi
	movq	-40(%rbp), %rdx
.Ltmp51:
	movq	-104(%rbp), %rdi        # 8-byte Reload
	callq	_ZNSt10_HashtableIiSt4pairIKiSt6vectorIiSaIiEEESaIS5_ENSt8__detail10_Select1stESt8equal_toIiESt4hashIiENS7_18_Mod_range_hashingENS7_20_Default_ranged_hashENS7_20_Prime_rehash_policyENS7_17_Hashtable_traitsILb0ELb0ELb1EEEE22_M_insert_bucket_beginEmPNS7_10_Hash_nodeIS5_Lb0EEE
.Ltmp52:
	jmp	.LBB28_11
.LBB28_11:
	movq	-104(%rbp), %rax        # 8-byte Reload
	movq	24(%rax), %rcx
	addq	$1, %rcx
	movq	%rcx, 24(%rax)
	movq	-40(%rbp), %rsi
	leaq	-8(%rbp), %rdi
	callq	_ZNSt8__detail14_Node_iteratorISt4pairIKiSt6vectorIiSaIiEEELb0ELb0EEC2EPNS_10_Hash_nodeIS6_Lb0EEE
	movq	-8(%rbp), %rax
	addq	$144, %rsp
	popq	%rbp
	.cfi_def_cfa %rsp, 8
	retq
.LBB28_12:
	.cfi_def_cfa %rbp, 16
.Ltmp58:
                                        # kill: def $edx killed $edx killed $rdx
	movq	%rax, -88(%rbp)
	movl	%edx, -92(%rbp)
.Ltmp59:
	callq	__cxa_end_catch
.Ltmp60:
	jmp	.LBB28_13
.LBB28_13:
	jmp	.LBB28_14
.LBB28_14:
	movq	-88(%rbp), %rdi
	callq	_Unwind_Resume
.LBB28_15:
.Ltmp61:
                                        # kill: def $edx killed $edx killed $rdx
	movq	%rax, %rdi
	movl	%edx, -140(%rbp)        # 4-byte Spill
	callq	__clang_call_terminate
.LBB28_16:
.Lfunc_end28:
	.size	_ZNSt10_HashtableIiSt4pairIKiSt6vectorIiSaIiEEESaIS5_ENSt8__detail10_Select1stESt8equal_toIiESt4hashIiENS7_18_Mod_range_hashingENS7_20_Default_ranged_hashENS7_20_Prime_rehash_policyENS7_17_Hashtable_traitsILb0ELb0ELb1EEEE21_M_insert_unique_nodeEmmPNS7_10_Hash_nodeIS5_Lb0EEEm, .Lfunc_end28-_ZNSt10_HashtableIiSt4pairIKiSt6vectorIiSaIiEEESaIS5_ENSt8__detail10_Select1stESt8equal_toIiESt4hashIiENS7_18_Mod_range_hashingENS7_20_Default_ranged_hashENS7_20_Prime_rehash_policyENS7_17_Hashtable_traitsILb0ELb0ELb1EEEE21_M_insert_unique_nodeEmmPNS7_10_Hash_nodeIS5_Lb0EEEm
	.cfi_endproc
	.section	.gcc_except_table,"a",@progbits
	.p2align	2
GCC_except_table28:
.Lexception4:
	.byte	255                     # @LPStart Encoding = omit
	.byte	3                       # @TType Encoding = udata4
	.uleb128 .Lttbase2-.Lttbaseref2
.Lttbaseref2:
	.byte	1                       # Call site Encoding = uleb128
	.uleb128 .Lcst_end4-.Lcst_begin4
.Lcst_begin4:
	.uleb128 .Lfunc_begin4-.Lfunc_begin4 # >> Call Site 1 <<
	.uleb128 .Ltmp41-.Lfunc_begin4  #   Call between .Lfunc_begin4 and .Ltmp41
	.byte	0                       #     has no landing pad
	.byte	0                       #   On action: cleanup
	.uleb128 .Ltmp41-.Lfunc_begin4  # >> Call Site 2 <<
	.uleb128 .Ltmp48-.Ltmp41        #   Call between .Ltmp41 and .Ltmp48
	.uleb128 .Ltmp53-.Lfunc_begin4  #     jumps to .Ltmp53
	.byte	1                       #   On action: 1
	.uleb128 .Ltmp48-.Lfunc_begin4  # >> Call Site 3 <<
	.uleb128 .Ltmp54-.Ltmp48        #   Call between .Ltmp48 and .Ltmp54
	.byte	0                       #     has no landing pad
	.byte	0                       #   On action: cleanup
	.uleb128 .Ltmp54-.Lfunc_begin4  # >> Call Site 4 <<
	.uleb128 .Ltmp57-.Ltmp54        #   Call between .Ltmp54 and .Ltmp57
	.uleb128 .Ltmp58-.Lfunc_begin4  #     jumps to .Ltmp58
	.byte	0                       #   On action: cleanup
	.uleb128 .Ltmp49-.Lfunc_begin4  # >> Call Site 5 <<
	.uleb128 .Ltmp52-.Ltmp49        #   Call between .Ltmp49 and .Ltmp52
	.uleb128 .Ltmp53-.Lfunc_begin4  #     jumps to .Ltmp53
	.byte	1                       #   On action: 1
	.uleb128 .Ltmp59-.Lfunc_begin4  # >> Call Site 6 <<
	.uleb128 .Ltmp60-.Ltmp59        #   Call between .Ltmp59 and .Ltmp60
	.uleb128 .Ltmp61-.Lfunc_begin4  #     jumps to .Ltmp61
	.byte	1                       #   On action: 1
	.uleb128 .Ltmp60-.Lfunc_begin4  # >> Call Site 7 <<
	.uleb128 .Lfunc_end28-.Ltmp60   #   Call between .Ltmp60 and .Lfunc_end28
	.byte	0                       #     has no landing pad
	.byte	0                       #   On action: cleanup
.Lcst_end4:
	.byte	1                       # >> Action Record 1 <<
                                        #   Catch TypeInfo 1
	.byte	0                       #   No further actions
	.p2align	2
                                        # >> Catch TypeInfos <<
	.long	0                       # TypeInfo 1
.Lttbase2:
	.p2align	2
                                        # -- End function
	.section	.text._ZNKSt8__detail14_Node_iteratorISt4pairIKiSt6vectorIiSaIiEEELb0ELb0EEptEv,"axG",@progbits,_ZNKSt8__detail14_Node_iteratorISt4pairIKiSt6vectorIiSaIiEEELb0ELb0EEptEv,comdat
	.weak	_ZNKSt8__detail14_Node_iteratorISt4pairIKiSt6vectorIiSaIiEEELb0ELb0EEptEv # -- Begin function _ZNKSt8__detail14_Node_iteratorISt4pairIKiSt6vectorIiSaIiEEELb0ELb0EEptEv
	.p2align	4, 0x90
	.type	_ZNKSt8__detail14_Node_iteratorISt4pairIKiSt6vectorIiSaIiEEELb0ELb0EEptEv,@function
_ZNKSt8__detail14_Node_iteratorISt4pairIKiSt6vectorIiSaIiEEELb0ELb0EEptEv: # @_ZNKSt8__detail14_Node_iteratorISt4pairIKiSt6vectorIiSaIiEEELb0ELb0EEptEv
	.cfi_startproc
# %bb.0:
	pushq	%rbp
	.cfi_def_cfa_offset 16
	.cfi_offset %rbp, -16
	movq	%rsp, %rbp
	.cfi_def_cfa_register %rbp
	subq	$16, %rsp
	movq	%rdi, -8(%rbp)
	movq	-8(%rbp), %rax
	movq	(%rax), %rax
	movq	%rax, %rdi
	callq	_ZNSt8__detail21_Hash_node_value_baseISt4pairIKiSt6vectorIiSaIiEEEE9_M_valptrEv
	addq	$16, %rsp
	popq	%rbp
	.cfi_def_cfa %rsp, 8
	retq
.Lfunc_end29:
	.size	_ZNKSt8__detail14_Node_iteratorISt4pairIKiSt6vectorIiSaIiEEELb0ELb0EEptEv, .Lfunc_end29-_ZNKSt8__detail14_Node_iteratorISt4pairIKiSt6vectorIiSaIiEEELb0ELb0EEptEv
	.cfi_endproc
                                        # -- End function
	.section	.text._ZNSt8__detail21_Hash_node_value_baseISt4pairIKiSt6vectorIiSaIiEEEE4_M_vEv,"axG",@progbits,_ZNSt8__detail21_Hash_node_value_baseISt4pairIKiSt6vectorIiSaIiEEEE4_M_vEv,comdat
	.weak	_ZNSt8__detail21_Hash_node_value_baseISt4pairIKiSt6vectorIiSaIiEEEE4_M_vEv # -- Begin function _ZNSt8__detail21_Hash_node_value_baseISt4pairIKiSt6vectorIiSaIiEEEE4_M_vEv
	.p2align	4, 0x90
	.type	_ZNSt8__detail21_Hash_node_value_baseISt4pairIKiSt6vectorIiSaIiEEEE4_M_vEv,@function
_ZNSt8__detail21_Hash_node_value_baseISt4pairIKiSt6vectorIiSaIiEEEE4_M_vEv: # @_ZNSt8__detail21_Hash_node_value_baseISt4pairIKiSt6vectorIiSaIiEEEE4_M_vEv
	.cfi_startproc
# %bb.0:
	pushq	%rbp
	.cfi_def_cfa_offset 16
	.cfi_offset %rbp, -16
	movq	%rsp, %rbp
	.cfi_def_cfa_register %rbp
	subq	$16, %rsp
	movq	%rdi, -8(%rbp)
	movq	-8(%rbp), %rdi
	callq	_ZNSt8__detail21_Hash_node_value_baseISt4pairIKiSt6vectorIiSaIiEEEE9_M_valptrEv
	addq	$16, %rsp
	popq	%rbp
	.cfi_def_cfa %rsp, 8
	retq
.Lfunc_end30:
	.size	_ZNSt8__detail21_Hash_node_value_baseISt4pairIKiSt6vectorIiSaIiEEEE4_M_vEv, .Lfunc_end30-_ZNSt8__detail21_Hash_node_value_baseISt4pairIKiSt6vectorIiSaIiEEEE4_M_vEv
	.cfi_endproc
                                        # -- End function
	.section	.text._ZNKSt8__detail15_Hash_code_baseIiSt4pairIKiSt6vectorIiSaIiEEENS_10_Select1stESt4hashIiENS_18_Mod_range_hashingENS_20_Default_ranged_hashELb0EE5_M_h1Ev,"axG",@progbits,_ZNKSt8__detail15_Hash_code_baseIiSt4pairIKiSt6vectorIiSaIiEEENS_10_Select1stESt4hashIiENS_18_Mod_range_hashingENS_20_Default_ranged_hashELb0EE5_M_h1Ev,comdat
	.weak	_ZNKSt8__detail15_Hash_code_baseIiSt4pairIKiSt6vectorIiSaIiEEENS_10_Select1stESt4hashIiENS_18_Mod_range_hashingENS_20_Default_ranged_hashELb0EE5_M_h1Ev # -- Begin function _ZNKSt8__detail15_Hash_code_baseIiSt4pairIKiSt6vectorIiSaIiEEENS_10_Select1stESt4hashIiENS_18_Mod_range_hashingENS_20_Default_ranged_hashELb0EE5_M_h1Ev
	.p2align	4, 0x90
	.type	_ZNKSt8__detail15_Hash_code_baseIiSt4pairIKiSt6vectorIiSaIiEEENS_10_Select1stESt4hashIiENS_18_Mod_range_hashingENS_20_Default_ranged_hashELb0EE5_M_h1Ev,@function
_ZNKSt8__detail15_Hash_code_baseIiSt4pairIKiSt6vectorIiSaIiEEENS_10_Select1stESt4hashIiENS_18_Mod_range_hashingENS_20_Default_ranged_hashELb0EE5_M_h1Ev: # @_ZNKSt8__detail15_Hash_code_baseIiSt4pairIKiSt6vectorIiSaIiEEENS_10_Select1stESt4hashIiENS_18_Mod_range_hashingENS_20_Default_ranged_hashELb0EE5_M_h1Ev
	.cfi_startproc
# %bb.0:
	pushq	%rbp
	.cfi_def_cfa_offset 16
	.cfi_offset %rbp, -16
	movq	%rsp, %rbp
	.cfi_def_cfa_register %rbp
	subq	$16, %rsp
	movq	%rdi, -8(%rbp)
	movq	-8(%rbp), %rax
	movq	%rax, %rdi
	callq	_ZNSt8__detail21_Hashtable_ebo_helperILi1ESt4hashIiELb1EE7_S_cgetERKS3_
	addq	$16, %rsp
	popq	%rbp
	.cfi_def_cfa %rsp, 8
	retq
.Lfunc_end31:
	.size	_ZNKSt8__detail15_Hash_code_baseIiSt4pairIKiSt6vectorIiSaIiEEENS_10_Select1stESt4hashIiENS_18_Mod_range_hashingENS_20_Default_ranged_hashELb0EE5_M_h1Ev, .Lfunc_end31-_ZNKSt8__detail15_Hash_code_baseIiSt4pairIKiSt6vectorIiSaIiEEENS_10_Select1stESt4hashIiENS_18_Mod_range_hashingENS_20_Default_ranged_hashELb0EE5_M_h1Ev
	.cfi_endproc
                                        # -- End function
	.section	.text._ZNKSt4hashIiEclEi,"axG",@progbits,_ZNKSt4hashIiEclEi,comdat
	.weak	_ZNKSt4hashIiEclEi      # -- Begin function _ZNKSt4hashIiEclEi
	.p2align	4, 0x90
	.type	_ZNKSt4hashIiEclEi,@function
_ZNKSt4hashIiEclEi:                     # @_ZNKSt4hashIiEclEi
	.cfi_startproc
# %bb.0:
	pushq	%rbp
	.cfi_def_cfa_offset 16
	.cfi_offset %rbp, -16
	movq	%rsp, %rbp
	.cfi_def_cfa_register %rbp
	movq	%rdi, -8(%rbp)
	movl	%esi, -12(%rbp)
	movslq	-12(%rbp), %rax
	popq	%rbp
	.cfi_def_cfa %rsp, 8
	retq
.Lfunc_end32:
	.size	_ZNKSt4hashIiEclEi, .Lfunc_end32-_ZNKSt4hashIiEclEi
	.cfi_endproc
                                        # -- End function
	.section	.text._ZNSt8__detail21_Hashtable_ebo_helperILi1ESt4hashIiELb1EE7_S_cgetERKS3_,"axG",@progbits,_ZNSt8__detail21_Hashtable_ebo_helperILi1ESt4hashIiELb1EE7_S_cgetERKS3_,comdat
	.weak	_ZNSt8__detail21_Hashtable_ebo_helperILi1ESt4hashIiELb1EE7_S_cgetERKS3_ # -- Begin function _ZNSt8__detail21_Hashtable_ebo_helperILi1ESt4hashIiELb1EE7_S_cgetERKS3_
	.p2align	4, 0x90
	.type	_ZNSt8__detail21_Hashtable_ebo_helperILi1ESt4hashIiELb1EE7_S_cgetERKS3_,@function
_ZNSt8__detail21_Hashtable_ebo_helperILi1ESt4hashIiELb1EE7_S_cgetERKS3_: # @_ZNSt8__detail21_Hashtable_ebo_helperILi1ESt4hashIiELb1EE7_S_cgetERKS3_
	.cfi_startproc
# %bb.0:
	pushq	%rbp
	.cfi_def_cfa_offset 16
	.cfi_offset %rbp, -16
	movq	%rsp, %rbp
	.cfi_def_cfa_register %rbp
	movq	%rdi, -8(%rbp)
	movq	-8(%rbp), %rax
	popq	%rbp
	.cfi_def_cfa %rsp, 8
	retq
.Lfunc_end33:
	.size	_ZNSt8__detail21_Hashtable_ebo_helperILi1ESt4hashIiELb1EE7_S_cgetERKS3_, .Lfunc_end33-_ZNSt8__detail21_Hashtable_ebo_helperILi1ESt4hashIiELb1EE7_S_cgetERKS3_
	.cfi_endproc
                                        # -- End function
	.section	.text._ZNKSt8__detail15_Hash_code_baseIiSt4pairIKiSt6vectorIiSaIiEEENS_10_Select1stESt4hashIiENS_18_Mod_range_hashingENS_20_Default_ranged_hashELb0EE15_M_bucket_indexERS2_mm,"axG",@progbits,_ZNKSt8__detail15_Hash_code_baseIiSt4pairIKiSt6vectorIiSaIiEEENS_10_Select1stESt4hashIiENS_18_Mod_range_hashingENS_20_Default_ranged_hashELb0EE15_M_bucket_indexERS2_mm,comdat
	.weak	_ZNKSt8__detail15_Hash_code_baseIiSt4pairIKiSt6vectorIiSaIiEEENS_10_Select1stESt4hashIiENS_18_Mod_range_hashingENS_20_Default_ranged_hashELb0EE15_M_bucket_indexERS2_mm # -- Begin function _ZNKSt8__detail15_Hash_code_baseIiSt4pairIKiSt6vectorIiSaIiEEENS_10_Select1stESt4hashIiENS_18_Mod_range_hashingENS_20_Default_ranged_hashELb0EE15_M_bucket_indexERS2_mm
	.p2align	4, 0x90
	.type	_ZNKSt8__detail15_Hash_code_baseIiSt4pairIKiSt6vectorIiSaIiEEENS_10_Select1stESt4hashIiENS_18_Mod_range_hashingENS_20_Default_ranged_hashELb0EE15_M_bucket_indexERS2_mm,@function
_ZNKSt8__detail15_Hash_code_baseIiSt4pairIKiSt6vectorIiSaIiEEENS_10_Select1stESt4hashIiENS_18_Mod_range_hashingENS_20_Default_ranged_hashELb0EE15_M_bucket_indexERS2_mm: # @_ZNKSt8__detail15_Hash_code_baseIiSt4pairIKiSt6vectorIiSaIiEEENS_10_Select1stESt4hashIiENS_18_Mod_range_hashingENS_20_Default_ranged_hashELb0EE15_M_bucket_indexERS2_mm
	.cfi_startproc
# %bb.0:
	pushq	%rbp
	.cfi_def_cfa_offset 16
	.cfi_offset %rbp, -16
	movq	%rsp, %rbp
	.cfi_def_cfa_register %rbp
	subq	$32, %rsp
	movq	%rdi, -8(%rbp)
	movq	%rsi, -16(%rbp)
	movq	%rdx, -24(%rbp)
	movq	%rcx, -32(%rbp)
	movq	-8(%rbp), %rdi
	callq	_ZNKSt8__detail15_Hash_code_baseIiSt4pairIKiSt6vectorIiSaIiEEENS_10_Select1stESt4hashIiENS_18_Mod_range_hashingENS_20_Default_ranged_hashELb0EE5_M_h2Ev
	movq	-24(%rbp), %rsi
	movq	-32(%rbp), %rdx
	movq	%rax, %rdi
	callq	_ZNKSt8__detail18_Mod_range_hashingclEmm
	addq	$32, %rsp
	popq	%rbp
	.cfi_def_cfa %rsp, 8
	retq
.Lfunc_end34:
	.size	_ZNKSt8__detail15_Hash_code_baseIiSt4pairIKiSt6vectorIiSaIiEEENS_10_Select1stESt4hashIiENS_18_Mod_range_hashingENS_20_Default_ranged_hashELb0EE15_M_bucket_indexERS2_mm, .Lfunc_end34-_ZNKSt8__detail15_Hash_code_baseIiSt4pairIKiSt6vectorIiSaIiEEENS_10_Select1stESt4hashIiENS_18_Mod_range_hashingENS_20_Default_ranged_hashELb0EE15_M_bucket_indexERS2_mm
	.cfi_endproc
                                        # -- End function
	.section	.text._ZNKSt8__detail15_Hash_code_baseIiSt4pairIKiSt6vectorIiSaIiEEENS_10_Select1stESt4hashIiENS_18_Mod_range_hashingENS_20_Default_ranged_hashELb0EE5_M_h2Ev,"axG",@progbits,_ZNKSt8__detail15_Hash_code_baseIiSt4pairIKiSt6vectorIiSaIiEEENS_10_Select1stESt4hashIiENS_18_Mod_range_hashingENS_20_Default_ranged_hashELb0EE5_M_h2Ev,comdat
	.weak	_ZNKSt8__detail15_Hash_code_baseIiSt4pairIKiSt6vectorIiSaIiEEENS_10_Select1stESt4hashIiENS_18_Mod_range_hashingENS_20_Default_ranged_hashELb0EE5_M_h2Ev # -- Begin function _ZNKSt8__detail15_Hash_code_baseIiSt4pairIKiSt6vectorIiSaIiEEENS_10_Select1stESt4hashIiENS_18_Mod_range_hashingENS_20_Default_ranged_hashELb0EE5_M_h2Ev
	.p2align	4, 0x90
	.type	_ZNKSt8__detail15_Hash_code_baseIiSt4pairIKiSt6vectorIiSaIiEEENS_10_Select1stESt4hashIiENS_18_Mod_range_hashingENS_20_Default_ranged_hashELb0EE5_M_h2Ev,@function
_ZNKSt8__detail15_Hash_code_baseIiSt4pairIKiSt6vectorIiSaIiEEENS_10_Select1stESt4hashIiENS_18_Mod_range_hashingENS_20_Default_ranged_hashELb0EE5_M_h2Ev: # @_ZNKSt8__detail15_Hash_code_baseIiSt4pairIKiSt6vectorIiSaIiEEENS_10_Select1stESt4hashIiENS_18_Mod_range_hashingENS_20_Default_ranged_hashELb0EE5_M_h2Ev
	.cfi_startproc
# %bb.0:
	pushq	%rbp
	.cfi_def_cfa_offset 16
	.cfi_offset %rbp, -16
	movq	%rsp, %rbp
	.cfi_def_cfa_register %rbp
	subq	$16, %rsp
	movq	%rdi, -8(%rbp)
	movq	-8(%rbp), %rax
	movq	%rax, %rdi
	callq	_ZNSt8__detail21_Hashtable_ebo_helperILi2ENS_18_Mod_range_hashingELb1EE7_S_cgetERKS2_
	addq	$16, %rsp
	popq	%rbp
	.cfi_def_cfa %rsp, 8
	retq
.Lfunc_end35:
	.size	_ZNKSt8__detail15_Hash_code_baseIiSt4pairIKiSt6vectorIiSaIiEEENS_10_Select1stESt4hashIiENS_18_Mod_range_hashingENS_20_Default_ranged_hashELb0EE5_M_h2Ev, .Lfunc_end35-_ZNKSt8__detail15_Hash_code_baseIiSt4pairIKiSt6vectorIiSaIiEEENS_10_Select1stESt4hashIiENS_18_Mod_range_hashingENS_20_Default_ranged_hashELb0EE5_M_h2Ev
	.cfi_endproc
                                        # -- End function
	.section	.text._ZNKSt8__detail18_Mod_range_hashingclEmm,"axG",@progbits,_ZNKSt8__detail18_Mod_range_hashingclEmm,comdat
	.weak	_ZNKSt8__detail18_Mod_range_hashingclEmm # -- Begin function _ZNKSt8__detail18_Mod_range_hashingclEmm
	.p2align	4, 0x90
	.type	_ZNKSt8__detail18_Mod_range_hashingclEmm,@function
_ZNKSt8__detail18_Mod_range_hashingclEmm: # @_ZNKSt8__detail18_Mod_range_hashingclEmm
	.cfi_startproc
# %bb.0:
	pushq	%rbp
	.cfi_def_cfa_offset 16
	.cfi_offset %rbp, -16
	movq	%rsp, %rbp
	.cfi_def_cfa_register %rbp
	movq	%rdi, -8(%rbp)
	movq	%rsi, -16(%rbp)
	movq	%rdx, -24(%rbp)
	movq	-16(%rbp), %rax
	xorl	%ecx, %ecx
	movl	%ecx, %edx
	divq	-24(%rbp)
	movq	%rdx, %rax
	popq	%rbp
	.cfi_def_cfa %rsp, 8
	retq
.Lfunc_end36:
	.size	_ZNKSt8__detail18_Mod_range_hashingclEmm, .Lfunc_end36-_ZNKSt8__detail18_Mod_range_hashingclEmm
	.cfi_endproc
                                        # -- End function
	.section	.text._ZNSt8__detail21_Hashtable_ebo_helperILi2ENS_18_Mod_range_hashingELb1EE7_S_cgetERKS2_,"axG",@progbits,_ZNSt8__detail21_Hashtable_ebo_helperILi2ENS_18_Mod_range_hashingELb1EE7_S_cgetERKS2_,comdat
	.weak	_ZNSt8__detail21_Hashtable_ebo_helperILi2ENS_18_Mod_range_hashingELb1EE7_S_cgetERKS2_ # -- Begin function _ZNSt8__detail21_Hashtable_ebo_helperILi2ENS_18_Mod_range_hashingELb1EE7_S_cgetERKS2_
	.p2align	4, 0x90
	.type	_ZNSt8__detail21_Hashtable_ebo_helperILi2ENS_18_Mod_range_hashingELb1EE7_S_cgetERKS2_,@function
_ZNSt8__detail21_Hashtable_ebo_helperILi2ENS_18_Mod_range_hashingELb1EE7_S_cgetERKS2_: # @_ZNSt8__detail21_Hashtable_ebo_helperILi2ENS_18_Mod_range_hashingELb1EE7_S_cgetERKS2_
	.cfi_startproc
# %bb.0:
	pushq	%rbp
	.cfi_def_cfa_offset 16
	.cfi_offset %rbp, -16
	movq	%rsp, %rbp
	.cfi_def_cfa_register %rbp
	movq	%rdi, -8(%rbp)
	movq	-8(%rbp), %rax
	popq	%rbp
	.cfi_def_cfa %rsp, 8
	retq
.Lfunc_end37:
	.size	_ZNSt8__detail21_Hashtable_ebo_helperILi2ENS_18_Mod_range_hashingELb1EE7_S_cgetERKS2_, .Lfunc_end37-_ZNSt8__detail21_Hashtable_ebo_helperILi2ENS_18_Mod_range_hashingELb1EE7_S_cgetERKS2_
	.cfi_endproc
                                        # -- End function
	.section	.text._ZNKSt10_HashtableIiSt4pairIKiSt6vectorIiSaIiEEESaIS5_ENSt8__detail10_Select1stESt8equal_toIiESt4hashIiENS7_18_Mod_range_hashingENS7_20_Default_ranged_hashENS7_20_Prime_rehash_policyENS7_17_Hashtable_traitsILb0ELb0ELb1EEEE19_M_find_before_nodeEmRS1_m,"axG",@progbits,_ZNKSt10_HashtableIiSt4pairIKiSt6vectorIiSaIiEEESaIS5_ENSt8__detail10_Select1stESt8equal_toIiESt4hashIiENS7_18_Mod_range_hashingENS7_20_Default_ranged_hashENS7_20_Prime_rehash_policyENS7_17_Hashtable_traitsILb0ELb0ELb1EEEE19_M_find_before_nodeEmRS1_m,comdat
	.weak	_ZNKSt10_HashtableIiSt4pairIKiSt6vectorIiSaIiEEESaIS5_ENSt8__detail10_Select1stESt8equal_toIiESt4hashIiENS7_18_Mod_range_hashingENS7_20_Default_ranged_hashENS7_20_Prime_rehash_policyENS7_17_Hashtable_traitsILb0ELb0ELb1EEEE19_M_find_before_nodeEmRS1_m # -- Begin function _ZNKSt10_HashtableIiSt4pairIKiSt6vectorIiSaIiEEESaIS5_ENSt8__detail10_Select1stESt8equal_toIiESt4hashIiENS7_18_Mod_range_hashingENS7_20_Default_ranged_hashENS7_20_Prime_rehash_policyENS7_17_Hashtable_traitsILb0ELb0ELb1EEEE19_M_find_before_nodeEmRS1_m
	.p2align	4, 0x90
	.type	_ZNKSt10_HashtableIiSt4pairIKiSt6vectorIiSaIiEEESaIS5_ENSt8__detail10_Select1stESt8equal_toIiESt4hashIiENS7_18_Mod_range_hashingENS7_20_Default_ranged_hashENS7_20_Prime_rehash_policyENS7_17_Hashtable_traitsILb0ELb0ELb1EEEE19_M_find_before_nodeEmRS1_m,@function
_ZNKSt10_HashtableIiSt4pairIKiSt6vectorIiSaIiEEESaIS5_ENSt8__detail10_Select1stESt8equal_toIiESt4hashIiENS7_18_Mod_range_hashingENS7_20_Default_ranged_hashENS7_20_Prime_rehash_policyENS7_17_Hashtable_traitsILb0ELb0ELb1EEEE19_M_find_before_nodeEmRS1_m: # @_ZNKSt10_HashtableIiSt4pairIKiSt6vectorIiSaIiEEESaIS5_ENSt8__detail10_Select1stESt8equal_toIiESt4hashIiENS7_18_Mod_range_hashingENS7_20_Default_ranged_hashENS7_20_Prime_rehash_policyENS7_17_Hashtable_traitsILb0ELb0ELb1EEEE19_M_find_before_nodeEmRS1_m
	.cfi_startproc
# %bb.0:
	pushq	%rbp
	.cfi_def_cfa_offset 16
	.cfi_offset %rbp, -16
	movq	%rsp, %rbp
	.cfi_def_cfa_register %rbp
	subq	$64, %rsp
	movq	%rdi, -16(%rbp)
	movq	%rsi, -24(%rbp)
	movq	%rdx, -32(%rbp)
	movq	%rcx, -40(%rbp)
	movq	-16(%rbp), %rax
	movq	(%rax), %rcx
	movq	-24(%rbp), %rdx
	movq	(%rcx,%rdx,8), %rcx
	movq	%rcx, -48(%rbp)
	cmpq	$0, -48(%rbp)
	movq	%rax, -64(%rbp)         # 8-byte Spill
	jne	.LBB38_2
# %bb.1:
	movq	$0, -8(%rbp)
	jmp	.LBB38_11
.LBB38_2:
	movq	-48(%rbp), %rax
	movq	(%rax), %rax
	movq	%rax, -56(%rbp)
.LBB38_3:                               # =>This Inner Loop Header: Depth=1
	movq	-64(%rbp), %rax         # 8-byte Reload
	movq	-32(%rbp), %rsi
	movq	-40(%rbp), %rdx
	movq	-56(%rbp), %rcx
	movq	%rax, %rdi
	callq	_ZNKSt8__detail15_Hashtable_baseIiSt4pairIKiSt6vectorIiSaIiEEENS_10_Select1stESt8equal_toIiESt4hashIiENS_18_Mod_range_hashingENS_20_Default_ranged_hashENS_17_Hashtable_traitsILb0ELb0ELb1EEEE9_M_equalsERS2_mPNS_10_Hash_nodeIS6_Lb0EEE
	testb	$1, %al
	jne	.LBB38_4
	jmp	.LBB38_5
.LBB38_4:
	movq	-48(%rbp), %rax
	movq	%rax, -8(%rbp)
	jmp	.LBB38_11
.LBB38_5:                               #   in Loop: Header=BB38_3 Depth=1
	movq	-56(%rbp), %rax
	cmpq	$0, (%rax)
	je	.LBB38_7
# %bb.6:                                #   in Loop: Header=BB38_3 Depth=1
	movq	-56(%rbp), %rdi
	callq	_ZNKSt8__detail10_Hash_nodeISt4pairIKiSt6vectorIiSaIiEEELb0EE7_M_nextEv
	movq	-64(%rbp), %rdi         # 8-byte Reload
	movq	%rax, %rsi
	callq	_ZNKSt10_HashtableIiSt4pairIKiSt6vectorIiSaIiEEESaIS5_ENSt8__detail10_Select1stESt8equal_toIiESt4hashIiENS7_18_Mod_range_hashingENS7_20_Default_ranged_hashENS7_20_Prime_rehash_policyENS7_17_Hashtable_traitsILb0ELb0ELb1EEEE15_M_bucket_indexEPNS7_10_Hash_nodeIS5_Lb0EEE
	cmpq	-24(%rbp), %rax
	je	.LBB38_8
.LBB38_7:
	jmp	.LBB38_10
.LBB38_8:                               #   in Loop: Header=BB38_3 Depth=1
	movq	-56(%rbp), %rax
	movq	%rax, -48(%rbp)
# %bb.9:                                #   in Loop: Header=BB38_3 Depth=1
	movq	-56(%rbp), %rdi
	callq	_ZNKSt8__detail10_Hash_nodeISt4pairIKiSt6vectorIiSaIiEEELb0EE7_M_nextEv
	movq	%rax, -56(%rbp)
	jmp	.LBB38_3
.LBB38_10:
	movq	$0, -8(%rbp)
.LBB38_11:
	movq	-8(%rbp), %rax
	addq	$64, %rsp
	popq	%rbp
	.cfi_def_cfa %rsp, 8
	retq
.Lfunc_end38:
	.size	_ZNKSt10_HashtableIiSt4pairIKiSt6vectorIiSaIiEEESaIS5_ENSt8__detail10_Select1stESt8equal_toIiESt4hashIiENS7_18_Mod_range_hashingENS7_20_Default_ranged_hashENS7_20_Prime_rehash_policyENS7_17_Hashtable_traitsILb0ELb0ELb1EEEE19_M_find_before_nodeEmRS1_m, .Lfunc_end38-_ZNKSt10_HashtableIiSt4pairIKiSt6vectorIiSaIiEEESaIS5_ENSt8__detail10_Select1stESt8equal_toIiESt4hashIiENS7_18_Mod_range_hashingENS7_20_Default_ranged_hashENS7_20_Prime_rehash_policyENS7_17_Hashtable_traitsILb0ELb0ELb1EEEE19_M_find_before_nodeEmRS1_m
	.cfi_endproc
                                        # -- End function
	.section	.text._ZNKSt8__detail15_Hashtable_baseIiSt4pairIKiSt6vectorIiSaIiEEENS_10_Select1stESt8equal_toIiESt4hashIiENS_18_Mod_range_hashingENS_20_Default_ranged_hashENS_17_Hashtable_traitsILb0ELb0ELb1EEEE9_M_equalsERS2_mPNS_10_Hash_nodeIS6_Lb0EEE,"axG",@progbits,_ZNKSt8__detail15_Hashtable_baseIiSt4pairIKiSt6vectorIiSaIiEEENS_10_Select1stESt8equal_toIiESt4hashIiENS_18_Mod_range_hashingENS_20_Default_ranged_hashENS_17_Hashtable_traitsILb0ELb0ELb1EEEE9_M_equalsERS2_mPNS_10_Hash_nodeIS6_Lb0EEE,comdat
	.weak	_ZNKSt8__detail15_Hashtable_baseIiSt4pairIKiSt6vectorIiSaIiEEENS_10_Select1stESt8equal_toIiESt4hashIiENS_18_Mod_range_hashingENS_20_Default_ranged_hashENS_17_Hashtable_traitsILb0ELb0ELb1EEEE9_M_equalsERS2_mPNS_10_Hash_nodeIS6_Lb0EEE # -- Begin function _ZNKSt8__detail15_Hashtable_baseIiSt4pairIKiSt6vectorIiSaIiEEENS_10_Select1stESt8equal_toIiESt4hashIiENS_18_Mod_range_hashingENS_20_Default_ranged_hashENS_17_Hashtable_traitsILb0ELb0ELb1EEEE9_M_equalsERS2_mPNS_10_Hash_nodeIS6_Lb0EEE
	.p2align	4, 0x90
	.type	_ZNKSt8__detail15_Hashtable_baseIiSt4pairIKiSt6vectorIiSaIiEEENS_10_Select1stESt8equal_toIiESt4hashIiENS_18_Mod_range_hashingENS_20_Default_ranged_hashENS_17_Hashtable_traitsILb0ELb0ELb1EEEE9_M_equalsERS2_mPNS_10_Hash_nodeIS6_Lb0EEE,@function
_ZNKSt8__detail15_Hashtable_baseIiSt4pairIKiSt6vectorIiSaIiEEENS_10_Select1stESt8equal_toIiESt4hashIiENS_18_Mod_range_hashingENS_20_Default_ranged_hashENS_17_Hashtable_traitsILb0ELb0ELb1EEEE9_M_equalsERS2_mPNS_10_Hash_nodeIS6_Lb0EEE: # @_ZNKSt8__detail15_Hashtable_baseIiSt4pairIKiSt6vectorIiSaIiEEENS_10_Select1stESt8equal_toIiESt4hashIiENS_18_Mod_range_hashingENS_20_Default_ranged_hashENS_17_Hashtable_traitsILb0ELb0ELb1EEEE9_M_equalsERS2_mPNS_10_Hash_nodeIS6_Lb0EEE
	.cfi_startproc
# %bb.0:
	pushq	%rbp
	.cfi_def_cfa_offset 16
	.cfi_offset %rbp, -16
	movq	%rsp, %rbp
	.cfi_def_cfa_register %rbp
	subq	$48, %rsp
	movq	%rdi, -8(%rbp)
	movq	%rsi, -16(%rbp)
	movq	%rdx, -24(%rbp)
	movq	%rcx, -32(%rbp)
	movq	-8(%rbp), %rax
	movq	%rax, %rdi
	movq	%rax, -40(%rbp)         # 8-byte Spill
	callq	_ZNKSt8__detail15_Hashtable_baseIiSt4pairIKiSt6vectorIiSaIiEEENS_10_Select1stESt8equal_toIiESt4hashIiENS_18_Mod_range_hashingENS_20_Default_ranged_hashENS_17_Hashtable_traitsILb0ELb0ELb1EEEE5_M_eqEv
	movq	-40(%rbp), %rcx         # 8-byte Reload
	movq	%rcx, %rdi
	movq	%rax, -48(%rbp)         # 8-byte Spill
	callq	_ZNKSt8__detail15_Hash_code_baseIiSt4pairIKiSt6vectorIiSaIiEEENS_10_Select1stESt4hashIiENS_18_Mod_range_hashingENS_20_Default_ranged_hashELb0EE10_M_extractEv
	movq	-16(%rbp), %rdx
	movq	-24(%rbp), %rcx
	movq	-32(%rbp), %r8
	movq	-48(%rbp), %rdi         # 8-byte Reload
	movq	%rax, %rsi
	callq	_ZNSt8__detail13_Equal_helperIiSt4pairIKiSt6vectorIiSaIiEEENS_10_Select1stESt8equal_toIiEmLb0EE9_S_equalsERKS9_RKS7_RS2_mPNS_10_Hash_nodeIS6_Lb0EEE
	andb	$1, %al
	movzbl	%al, %eax
	addq	$48, %rsp
	popq	%rbp
	.cfi_def_cfa %rsp, 8
	retq
.Lfunc_end39:
	.size	_ZNKSt8__detail15_Hashtable_baseIiSt4pairIKiSt6vectorIiSaIiEEENS_10_Select1stESt8equal_toIiESt4hashIiENS_18_Mod_range_hashingENS_20_Default_ranged_hashENS_17_Hashtable_traitsILb0ELb0ELb1EEEE9_M_equalsERS2_mPNS_10_Hash_nodeIS6_Lb0EEE, .Lfunc_end39-_ZNKSt8__detail15_Hashtable_baseIiSt4pairIKiSt6vectorIiSaIiEEENS_10_Select1stESt8equal_toIiESt4hashIiENS_18_Mod_range_hashingENS_20_Default_ranged_hashENS_17_Hashtable_traitsILb0ELb0ELb1EEEE9_M_equalsERS2_mPNS_10_Hash_nodeIS6_Lb0EEE
	.cfi_endproc
                                        # -- End function
	.section	.text._ZNKSt10_HashtableIiSt4pairIKiSt6vectorIiSaIiEEESaIS5_ENSt8__detail10_Select1stESt8equal_toIiESt4hashIiENS7_18_Mod_range_hashingENS7_20_Default_ranged_hashENS7_20_Prime_rehash_policyENS7_17_Hashtable_traitsILb0ELb0ELb1EEEE15_M_bucket_indexEPNS7_10_Hash_nodeIS5_Lb0EEE,"axG",@progbits,_ZNKSt10_HashtableIiSt4pairIKiSt6vectorIiSaIiEEESaIS5_ENSt8__detail10_Select1stESt8equal_toIiESt4hashIiENS7_18_Mod_range_hashingENS7_20_Default_ranged_hashENS7_20_Prime_rehash_policyENS7_17_Hashtable_traitsILb0ELb0ELb1EEEE15_M_bucket_indexEPNS7_10_Hash_nodeIS5_Lb0EEE,comdat
	.weak	_ZNKSt10_HashtableIiSt4pairIKiSt6vectorIiSaIiEEESaIS5_ENSt8__detail10_Select1stESt8equal_toIiESt4hashIiENS7_18_Mod_range_hashingENS7_20_Default_ranged_hashENS7_20_Prime_rehash_policyENS7_17_Hashtable_traitsILb0ELb0ELb1EEEE15_M_bucket_indexEPNS7_10_Hash_nodeIS5_Lb0EEE # -- Begin function _ZNKSt10_HashtableIiSt4pairIKiSt6vectorIiSaIiEEESaIS5_ENSt8__detail10_Select1stESt8equal_toIiESt4hashIiENS7_18_Mod_range_hashingENS7_20_Default_ranged_hashENS7_20_Prime_rehash_policyENS7_17_Hashtable_traitsILb0ELb0ELb1EEEE15_M_bucket_indexEPNS7_10_Hash_nodeIS5_Lb0EEE
	.p2align	4, 0x90
	.type	_ZNKSt10_HashtableIiSt4pairIKiSt6vectorIiSaIiEEESaIS5_ENSt8__detail10_Select1stESt8equal_toIiESt4hashIiENS7_18_Mod_range_hashingENS7_20_Default_ranged_hashENS7_20_Prime_rehash_policyENS7_17_Hashtable_traitsILb0ELb0ELb1EEEE15_M_bucket_indexEPNS7_10_Hash_nodeIS5_Lb0EEE,@function
_ZNKSt10_HashtableIiSt4pairIKiSt6vectorIiSaIiEEESaIS5_ENSt8__detail10_Select1stESt8equal_toIiESt4hashIiENS7_18_Mod_range_hashingENS7_20_Default_ranged_hashENS7_20_Prime_rehash_policyENS7_17_Hashtable_traitsILb0ELb0ELb1EEEE15_M_bucket_indexEPNS7_10_Hash_nodeIS5_Lb0EEE: # @_ZNKSt10_HashtableIiSt4pairIKiSt6vectorIiSaIiEEESaIS5_ENSt8__detail10_Select1stESt8equal_toIiESt4hashIiENS7_18_Mod_range_hashingENS7_20_Default_ranged_hashENS7_20_Prime_rehash_policyENS7_17_Hashtable_traitsILb0ELb0ELb1EEEE15_M_bucket_indexEPNS7_10_Hash_nodeIS5_Lb0EEE
	.cfi_startproc
# %bb.0:
	pushq	%rbp
	.cfi_def_cfa_offset 16
	.cfi_offset %rbp, -16
	movq	%rsp, %rbp
	.cfi_def_cfa_register %rbp
	subq	$16, %rsp
	movq	%rdi, -8(%rbp)
	movq	%rsi, -16(%rbp)
	movq	-8(%rbp), %rax
	movq	%rax, %rcx
	movq	-16(%rbp), %rsi
	movq	8(%rax), %rdx
	movq	%rcx, %rdi
	callq	_ZNKSt8__detail15_Hash_code_baseIiSt4pairIKiSt6vectorIiSaIiEEENS_10_Select1stESt4hashIiENS_18_Mod_range_hashingENS_20_Default_ranged_hashELb0EE15_M_bucket_indexEPKNS_10_Hash_nodeIS6_Lb0EEEm
	addq	$16, %rsp
	popq	%rbp
	.cfi_def_cfa %rsp, 8
	retq
.Lfunc_end40:
	.size	_ZNKSt10_HashtableIiSt4pairIKiSt6vectorIiSaIiEEESaIS5_ENSt8__detail10_Select1stESt8equal_toIiESt4hashIiENS7_18_Mod_range_hashingENS7_20_Default_ranged_hashENS7_20_Prime_rehash_policyENS7_17_Hashtable_traitsILb0ELb0ELb1EEEE15_M_bucket_indexEPNS7_10_Hash_nodeIS5_Lb0EEE, .Lfunc_end40-_ZNKSt10_HashtableIiSt4pairIKiSt6vectorIiSaIiEEESaIS5_ENSt8__detail10_Select1stESt8equal_toIiESt4hashIiENS7_18_Mod_range_hashingENS7_20_Default_ranged_hashENS7_20_Prime_rehash_policyENS7_17_Hashtable_traitsILb0ELb0ELb1EEEE15_M_bucket_indexEPNS7_10_Hash_nodeIS5_Lb0EEE
	.cfi_endproc
                                        # -- End function
	.section	.text._ZNKSt8__detail10_Hash_nodeISt4pairIKiSt6vectorIiSaIiEEELb0EE7_M_nextEv,"axG",@progbits,_ZNKSt8__detail10_Hash_nodeISt4pairIKiSt6vectorIiSaIiEEELb0EE7_M_nextEv,comdat
	.weak	_ZNKSt8__detail10_Hash_nodeISt4pairIKiSt6vectorIiSaIiEEELb0EE7_M_nextEv # -- Begin function _ZNKSt8__detail10_Hash_nodeISt4pairIKiSt6vectorIiSaIiEEELb0EE7_M_nextEv
	.p2align	4, 0x90
	.type	_ZNKSt8__detail10_Hash_nodeISt4pairIKiSt6vectorIiSaIiEEELb0EE7_M_nextEv,@function
_ZNKSt8__detail10_Hash_nodeISt4pairIKiSt6vectorIiSaIiEEELb0EE7_M_nextEv: # @_ZNKSt8__detail10_Hash_nodeISt4pairIKiSt6vectorIiSaIiEEELb0EE7_M_nextEv
	.cfi_startproc
# %bb.0:
	pushq	%rbp
	.cfi_def_cfa_offset 16
	.cfi_offset %rbp, -16
	movq	%rsp, %rbp
	.cfi_def_cfa_register %rbp
	movq	%rdi, -8(%rbp)
	movq	-8(%rbp), %rax
	movq	(%rax), %rax
	popq	%rbp
	.cfi_def_cfa %rsp, 8
	retq
.Lfunc_end41:
	.size	_ZNKSt8__detail10_Hash_nodeISt4pairIKiSt6vectorIiSaIiEEELb0EE7_M_nextEv, .Lfunc_end41-_ZNKSt8__detail10_Hash_nodeISt4pairIKiSt6vectorIiSaIiEEELb0EE7_M_nextEv
	.cfi_endproc
                                        # -- End function
	.section	.text._ZNSt8__detail13_Equal_helperIiSt4pairIKiSt6vectorIiSaIiEEENS_10_Select1stESt8equal_toIiEmLb0EE9_S_equalsERKS9_RKS7_RS2_mPNS_10_Hash_nodeIS6_Lb0EEE,"axG",@progbits,_ZNSt8__detail13_Equal_helperIiSt4pairIKiSt6vectorIiSaIiEEENS_10_Select1stESt8equal_toIiEmLb0EE9_S_equalsERKS9_RKS7_RS2_mPNS_10_Hash_nodeIS6_Lb0EEE,comdat
	.weak	_ZNSt8__detail13_Equal_helperIiSt4pairIKiSt6vectorIiSaIiEEENS_10_Select1stESt8equal_toIiEmLb0EE9_S_equalsERKS9_RKS7_RS2_mPNS_10_Hash_nodeIS6_Lb0EEE # -- Begin function _ZNSt8__detail13_Equal_helperIiSt4pairIKiSt6vectorIiSaIiEEENS_10_Select1stESt8equal_toIiEmLb0EE9_S_equalsERKS9_RKS7_RS2_mPNS_10_Hash_nodeIS6_Lb0EEE
	.p2align	4, 0x90
	.type	_ZNSt8__detail13_Equal_helperIiSt4pairIKiSt6vectorIiSaIiEEENS_10_Select1stESt8equal_toIiEmLb0EE9_S_equalsERKS9_RKS7_RS2_mPNS_10_Hash_nodeIS6_Lb0EEE,@function
_ZNSt8__detail13_Equal_helperIiSt4pairIKiSt6vectorIiSaIiEEENS_10_Select1stESt8equal_toIiEmLb0EE9_S_equalsERKS9_RKS7_RS2_mPNS_10_Hash_nodeIS6_Lb0EEE: # @_ZNSt8__detail13_Equal_helperIiSt4pairIKiSt6vectorIiSaIiEEENS_10_Select1stESt8equal_toIiEmLb0EE9_S_equalsERKS9_RKS7_RS2_mPNS_10_Hash_nodeIS6_Lb0EEE
	.cfi_startproc
# %bb.0:
	pushq	%rbp
	.cfi_def_cfa_offset 16
	.cfi_offset %rbp, -16
	movq	%rsp, %rbp
	.cfi_def_cfa_register %rbp
	subq	$64, %rsp
	movq	%rdi, -8(%rbp)
	movq	%rsi, -16(%rbp)
	movq	%rdx, -24(%rbp)
	movq	%rcx, -32(%rbp)
	movq	%r8, -40(%rbp)
	movq	-8(%rbp), %rdi
	movq	-24(%rbp), %rsi
	movq	-16(%rbp), %rax
	movq	-40(%rbp), %rcx
	movq	%rdi, -48(%rbp)         # 8-byte Spill
	movq	%rcx, %rdi
	movq	%rsi, -56(%rbp)         # 8-byte Spill
	movq	%rax, -64(%rbp)         # 8-byte Spill
	callq	_ZNSt8__detail21_Hash_node_value_baseISt4pairIKiSt6vectorIiSaIiEEEE4_M_vEv
	movq	-64(%rbp), %rdi         # 8-byte Reload
	movq	%rax, %rsi
	callq	_ZNKSt8__detail10_Select1stclIRSt4pairIKiSt6vectorIiSaIiEEEEEDTclsr3stdE3getIXLi0EEEclsr3stdE7forwardIT_Efp_EEEOS9_
	movq	-48(%rbp), %rdi         # 8-byte Reload
	movq	-56(%rbp), %rsi         # 8-byte Reload
	movq	%rax, %rdx
	callq	_ZNKSt8equal_toIiEclERKiS2_
	andb	$1, %al
	movzbl	%al, %eax
	addq	$64, %rsp
	popq	%rbp
	.cfi_def_cfa %rsp, 8
	retq
.Lfunc_end42:
	.size	_ZNSt8__detail13_Equal_helperIiSt4pairIKiSt6vectorIiSaIiEEENS_10_Select1stESt8equal_toIiEmLb0EE9_S_equalsERKS9_RKS7_RS2_mPNS_10_Hash_nodeIS6_Lb0EEE, .Lfunc_end42-_ZNSt8__detail13_Equal_helperIiSt4pairIKiSt6vectorIiSaIiEEENS_10_Select1stESt8equal_toIiEmLb0EE9_S_equalsERKS9_RKS7_RS2_mPNS_10_Hash_nodeIS6_Lb0EEE
	.cfi_endproc
                                        # -- End function
	.section	.text._ZNKSt8__detail15_Hashtable_baseIiSt4pairIKiSt6vectorIiSaIiEEENS_10_Select1stESt8equal_toIiESt4hashIiENS_18_Mod_range_hashingENS_20_Default_ranged_hashENS_17_Hashtable_traitsILb0ELb0ELb1EEEE5_M_eqEv,"axG",@progbits,_ZNKSt8__detail15_Hashtable_baseIiSt4pairIKiSt6vectorIiSaIiEEENS_10_Select1stESt8equal_toIiESt4hashIiENS_18_Mod_range_hashingENS_20_Default_ranged_hashENS_17_Hashtable_traitsILb0ELb0ELb1EEEE5_M_eqEv,comdat
	.weak	_ZNKSt8__detail15_Hashtable_baseIiSt4pairIKiSt6vectorIiSaIiEEENS_10_Select1stESt8equal_toIiESt4hashIiENS_18_Mod_range_hashingENS_20_Default_ranged_hashENS_17_Hashtable_traitsILb0ELb0ELb1EEEE5_M_eqEv # -- Begin function _ZNKSt8__detail15_Hashtable_baseIiSt4pairIKiSt6vectorIiSaIiEEENS_10_Select1stESt8equal_toIiESt4hashIiENS_18_Mod_range_hashingENS_20_Default_ranged_hashENS_17_Hashtable_traitsILb0ELb0ELb1EEEE5_M_eqEv
	.p2align	4, 0x90
	.type	_ZNKSt8__detail15_Hashtable_baseIiSt4pairIKiSt6vectorIiSaIiEEENS_10_Select1stESt8equal_toIiESt4hashIiENS_18_Mod_range_hashingENS_20_Default_ranged_hashENS_17_Hashtable_traitsILb0ELb0ELb1EEEE5_M_eqEv,@function
_ZNKSt8__detail15_Hashtable_baseIiSt4pairIKiSt6vectorIiSaIiEEENS_10_Select1stESt8equal_toIiESt4hashIiENS_18_Mod_range_hashingENS_20_Default_ranged_hashENS_17_Hashtable_traitsILb0ELb0ELb1EEEE5_M_eqEv: # @_ZNKSt8__detail15_Hashtable_baseIiSt4pairIKiSt6vectorIiSaIiEEENS_10_Select1stESt8equal_toIiESt4hashIiENS_18_Mod_range_hashingENS_20_Default_ranged_hashENS_17_Hashtable_traitsILb0ELb0ELb1EEEE5_M_eqEv
	.cfi_startproc
# %bb.0:
	pushq	%rbp
	.cfi_def_cfa_offset 16
	.cfi_offset %rbp, -16
	movq	%rsp, %rbp
	.cfi_def_cfa_register %rbp
	subq	$16, %rsp
	movq	%rdi, -8(%rbp)
	movq	-8(%rbp), %rax
	movq	%rax, %rdi
	callq	_ZNSt8__detail21_Hashtable_ebo_helperILi0ESt8equal_toIiELb1EE7_S_cgetERKS3_
	addq	$16, %rsp
	popq	%rbp
	.cfi_def_cfa %rsp, 8
	retq
.Lfunc_end43:
	.size	_ZNKSt8__detail15_Hashtable_baseIiSt4pairIKiSt6vectorIiSaIiEEENS_10_Select1stESt8equal_toIiESt4hashIiENS_18_Mod_range_hashingENS_20_Default_ranged_hashENS_17_Hashtable_traitsILb0ELb0ELb1EEEE5_M_eqEv, .Lfunc_end43-_ZNKSt8__detail15_Hashtable_baseIiSt4pairIKiSt6vectorIiSaIiEEENS_10_Select1stESt8equal_toIiESt4hashIiENS_18_Mod_range_hashingENS_20_Default_ranged_hashENS_17_Hashtable_traitsILb0ELb0ELb1EEEE5_M_eqEv
	.cfi_endproc
                                        # -- End function
	.section	.text._ZNKSt8__detail15_Hash_code_baseIiSt4pairIKiSt6vectorIiSaIiEEENS_10_Select1stESt4hashIiENS_18_Mod_range_hashingENS_20_Default_ranged_hashELb0EE10_M_extractEv,"axG",@progbits,_ZNKSt8__detail15_Hash_code_baseIiSt4pairIKiSt6vectorIiSaIiEEENS_10_Select1stESt4hashIiENS_18_Mod_range_hashingENS_20_Default_ranged_hashELb0EE10_M_extractEv,comdat
	.weak	_ZNKSt8__detail15_Hash_code_baseIiSt4pairIKiSt6vectorIiSaIiEEENS_10_Select1stESt4hashIiENS_18_Mod_range_hashingENS_20_Default_ranged_hashELb0EE10_M_extractEv # -- Begin function _ZNKSt8__detail15_Hash_code_baseIiSt4pairIKiSt6vectorIiSaIiEEENS_10_Select1stESt4hashIiENS_18_Mod_range_hashingENS_20_Default_ranged_hashELb0EE10_M_extractEv
	.p2align	4, 0x90
	.type	_ZNKSt8__detail15_Hash_code_baseIiSt4pairIKiSt6vectorIiSaIiEEENS_10_Select1stESt4hashIiENS_18_Mod_range_hashingENS_20_Default_ranged_hashELb0EE10_M_extractEv,@function
_ZNKSt8__detail15_Hash_code_baseIiSt4pairIKiSt6vectorIiSaIiEEENS_10_Select1stESt4hashIiENS_18_Mod_range_hashingENS_20_Default_ranged_hashELb0EE10_M_extractEv: # @_ZNKSt8__detail15_Hash_code_baseIiSt4pairIKiSt6vectorIiSaIiEEENS_10_Select1stESt4hashIiENS_18_Mod_range_hashingENS_20_Default_ranged_hashELb0EE10_M_extractEv
	.cfi_startproc
# %bb.0:
	pushq	%rbp
	.cfi_def_cfa_offset 16
	.cfi_offset %rbp, -16
	movq	%rsp, %rbp
	.cfi_def_cfa_register %rbp
	subq	$16, %rsp
	movq	%rdi, -8(%rbp)
	movq	-8(%rbp), %rax
	movq	%rax, %rdi
	callq	_ZNSt8__detail21_Hashtable_ebo_helperILi0ENS_10_Select1stELb1EE7_S_cgetERKS2_
	addq	$16, %rsp
	popq	%rbp
	.cfi_def_cfa %rsp, 8
	retq
.Lfunc_end44:
	.size	_ZNKSt8__detail15_Hash_code_baseIiSt4pairIKiSt6vectorIiSaIiEEENS_10_Select1stESt4hashIiENS_18_Mod_range_hashingENS_20_Default_ranged_hashELb0EE10_M_extractEv, .Lfunc_end44-_ZNKSt8__detail15_Hash_code_baseIiSt4pairIKiSt6vectorIiSaIiEEENS_10_Select1stESt4hashIiENS_18_Mod_range_hashingENS_20_Default_ranged_hashELb0EE10_M_extractEv
	.cfi_endproc
                                        # -- End function
	.section	.text._ZNKSt8equal_toIiEclERKiS2_,"axG",@progbits,_ZNKSt8equal_toIiEclERKiS2_,comdat
	.weak	_ZNKSt8equal_toIiEclERKiS2_ # -- Begin function _ZNKSt8equal_toIiEclERKiS2_
	.p2align	4, 0x90
	.type	_ZNKSt8equal_toIiEclERKiS2_,@function
_ZNKSt8equal_toIiEclERKiS2_:            # @_ZNKSt8equal_toIiEclERKiS2_
	.cfi_startproc
# %bb.0:
	pushq	%rbp
	.cfi_def_cfa_offset 16
	.cfi_offset %rbp, -16
	movq	%rsp, %rbp
	.cfi_def_cfa_register %rbp
	movq	%rdi, -8(%rbp)
	movq	%rsi, -16(%rbp)
	movq	%rdx, -24(%rbp)
	movq	-16(%rbp), %rax
	movl	(%rax), %ecx
	movq	-24(%rbp), %rax
	cmpl	(%rax), %ecx
	sete	%r8b
	andb	$1, %r8b
	movzbl	%r8b, %eax
	popq	%rbp
	.cfi_def_cfa %rsp, 8
	retq
.Lfunc_end45:
	.size	_ZNKSt8equal_toIiEclERKiS2_, .Lfunc_end45-_ZNKSt8equal_toIiEclERKiS2_
	.cfi_endproc
                                        # -- End function
	.section	.text._ZNKSt8__detail10_Select1stclIRSt4pairIKiSt6vectorIiSaIiEEEEEDTclsr3stdE3getIXLi0EEEclsr3stdE7forwardIT_Efp_EEEOS9_,"axG",@progbits,_ZNKSt8__detail10_Select1stclIRSt4pairIKiSt6vectorIiSaIiEEEEEDTclsr3stdE3getIXLi0EEEclsr3stdE7forwardIT_Efp_EEEOS9_,comdat
	.weak	_ZNKSt8__detail10_Select1stclIRSt4pairIKiSt6vectorIiSaIiEEEEEDTclsr3stdE3getIXLi0EEEclsr3stdE7forwardIT_Efp_EEEOS9_ # -- Begin function _ZNKSt8__detail10_Select1stclIRSt4pairIKiSt6vectorIiSaIiEEEEEDTclsr3stdE3getIXLi0EEEclsr3stdE7forwardIT_Efp_EEEOS9_
	.p2align	4, 0x90
	.type	_ZNKSt8__detail10_Select1stclIRSt4pairIKiSt6vectorIiSaIiEEEEEDTclsr3stdE3getIXLi0EEEclsr3stdE7forwardIT_Efp_EEEOS9_,@function
_ZNKSt8__detail10_Select1stclIRSt4pairIKiSt6vectorIiSaIiEEEEEDTclsr3stdE3getIXLi0EEEclsr3stdE7forwardIT_Efp_EEEOS9_: # @_ZNKSt8__detail10_Select1stclIRSt4pairIKiSt6vectorIiSaIiEEEEEDTclsr3stdE3getIXLi0EEEclsr3stdE7forwardIT_Efp_EEEOS9_
	.cfi_startproc
# %bb.0:
	pushq	%rbp
	.cfi_def_cfa_offset 16
	.cfi_offset %rbp, -16
	movq	%rsp, %rbp
	.cfi_def_cfa_register %rbp
	subq	$16, %rsp
	movq	%rdi, -8(%rbp)
	movq	%rsi, -16(%rbp)
	movq	-16(%rbp), %rdi
	callq	_ZSt7forwardIRSt4pairIKiSt6vectorIiSaIiEEEEOT_RNSt16remove_referenceIS7_E4typeE
	movq	%rax, %rdi
	callq	_ZSt3getILm0EKiSt6vectorIiSaIiEEERNSt13tuple_elementIXT_ESt4pairIT0_T1_EE4typeERS8_
	addq	$16, %rsp
	popq	%rbp
	.cfi_def_cfa %rsp, 8
	retq
.Lfunc_end46:
	.size	_ZNKSt8__detail10_Select1stclIRSt4pairIKiSt6vectorIiSaIiEEEEEDTclsr3stdE3getIXLi0EEEclsr3stdE7forwardIT_Efp_EEEOS9_, .Lfunc_end46-_ZNKSt8__detail10_Select1stclIRSt4pairIKiSt6vectorIiSaIiEEEEEDTclsr3stdE3getIXLi0EEEclsr3stdE7forwardIT_Efp_EEEOS9_
	.cfi_endproc
                                        # -- End function
	.section	.text._ZSt3getILm0EKiSt6vectorIiSaIiEEERNSt13tuple_elementIXT_ESt4pairIT0_T1_EE4typeERS8_,"axG",@progbits,_ZSt3getILm0EKiSt6vectorIiSaIiEEERNSt13tuple_elementIXT_ESt4pairIT0_T1_EE4typeERS8_,comdat
	.weak	_ZSt3getILm0EKiSt6vectorIiSaIiEEERNSt13tuple_elementIXT_ESt4pairIT0_T1_EE4typeERS8_ # -- Begin function _ZSt3getILm0EKiSt6vectorIiSaIiEEERNSt13tuple_elementIXT_ESt4pairIT0_T1_EE4typeERS8_
	.p2align	4, 0x90
	.type	_ZSt3getILm0EKiSt6vectorIiSaIiEEERNSt13tuple_elementIXT_ESt4pairIT0_T1_EE4typeERS8_,@function
_ZSt3getILm0EKiSt6vectorIiSaIiEEERNSt13tuple_elementIXT_ESt4pairIT0_T1_EE4typeERS8_: # @_ZSt3getILm0EKiSt6vectorIiSaIiEEERNSt13tuple_elementIXT_ESt4pairIT0_T1_EE4typeERS8_
	.cfi_startproc
# %bb.0:
	pushq	%rbp
	.cfi_def_cfa_offset 16
	.cfi_offset %rbp, -16
	movq	%rsp, %rbp
	.cfi_def_cfa_register %rbp
	subq	$16, %rsp
	movq	%rdi, -8(%rbp)
	movq	-8(%rbp), %rdi
	callq	_ZNSt10__pair_getILm0EE5__getIKiSt6vectorIiSaIiEEEERT_RSt4pairIS6_T0_E
	addq	$16, %rsp
	popq	%rbp
	.cfi_def_cfa %rsp, 8
	retq
.Lfunc_end47:
	.size	_ZSt3getILm0EKiSt6vectorIiSaIiEEERNSt13tuple_elementIXT_ESt4pairIT0_T1_EE4typeERS8_, .Lfunc_end47-_ZSt3getILm0EKiSt6vectorIiSaIiEEERNSt13tuple_elementIXT_ESt4pairIT0_T1_EE4typeERS8_
	.cfi_endproc
                                        # -- End function
	.section	.text._ZSt7forwardIRSt4pairIKiSt6vectorIiSaIiEEEEOT_RNSt16remove_referenceIS7_E4typeE,"axG",@progbits,_ZSt7forwardIRSt4pairIKiSt6vectorIiSaIiEEEEOT_RNSt16remove_referenceIS7_E4typeE,comdat
	.weak	_ZSt7forwardIRSt4pairIKiSt6vectorIiSaIiEEEEOT_RNSt16remove_referenceIS7_E4typeE # -- Begin function _ZSt7forwardIRSt4pairIKiSt6vectorIiSaIiEEEEOT_RNSt16remove_referenceIS7_E4typeE
	.p2align	4, 0x90
	.type	_ZSt7forwardIRSt4pairIKiSt6vectorIiSaIiEEEEOT_RNSt16remove_referenceIS7_E4typeE,@function
_ZSt7forwardIRSt4pairIKiSt6vectorIiSaIiEEEEOT_RNSt16remove_referenceIS7_E4typeE: # @_ZSt7forwardIRSt4pairIKiSt6vectorIiSaIiEEEEOT_RNSt16remove_referenceIS7_E4typeE
	.cfi_startproc
# %bb.0:
	pushq	%rbp
	.cfi_def_cfa_offset 16
	.cfi_offset %rbp, -16
	movq	%rsp, %rbp
	.cfi_def_cfa_register %rbp
	movq	%rdi, -8(%rbp)
	movq	-8(%rbp), %rax
	popq	%rbp
	.cfi_def_cfa %rsp, 8
	retq
.Lfunc_end48:
	.size	_ZSt7forwardIRSt4pairIKiSt6vectorIiSaIiEEEEOT_RNSt16remove_referenceIS7_E4typeE, .Lfunc_end48-_ZSt7forwardIRSt4pairIKiSt6vectorIiSaIiEEEEOT_RNSt16remove_referenceIS7_E4typeE
	.cfi_endproc
                                        # -- End function
	.section	.text._ZNSt10__pair_getILm0EE5__getIKiSt6vectorIiSaIiEEEERT_RSt4pairIS6_T0_E,"axG",@progbits,_ZNSt10__pair_getILm0EE5__getIKiSt6vectorIiSaIiEEEERT_RSt4pairIS6_T0_E,comdat
	.weak	_ZNSt10__pair_getILm0EE5__getIKiSt6vectorIiSaIiEEEERT_RSt4pairIS6_T0_E # -- Begin function _ZNSt10__pair_getILm0EE5__getIKiSt6vectorIiSaIiEEEERT_RSt4pairIS6_T0_E
	.p2align	4, 0x90
	.type	_ZNSt10__pair_getILm0EE5__getIKiSt6vectorIiSaIiEEEERT_RSt4pairIS6_T0_E,@function
_ZNSt10__pair_getILm0EE5__getIKiSt6vectorIiSaIiEEEERT_RSt4pairIS6_T0_E: # @_ZNSt10__pair_getILm0EE5__getIKiSt6vectorIiSaIiEEEERT_RSt4pairIS6_T0_E
	.cfi_startproc
# %bb.0:
	pushq	%rbp
	.cfi_def_cfa_offset 16
	.cfi_offset %rbp, -16
	movq	%rsp, %rbp
	.cfi_def_cfa_register %rbp
	movq	%rdi, -8(%rbp)
	movq	-8(%rbp), %rax
	popq	%rbp
	.cfi_def_cfa %rsp, 8
	retq
.Lfunc_end49:
	.size	_ZNSt10__pair_getILm0EE5__getIKiSt6vectorIiSaIiEEEERT_RSt4pairIS6_T0_E, .Lfunc_end49-_ZNSt10__pair_getILm0EE5__getIKiSt6vectorIiSaIiEEEERT_RSt4pairIS6_T0_E
	.cfi_endproc
                                        # -- End function
	.section	.text._ZNSt8__detail21_Hashtable_ebo_helperILi0ESt8equal_toIiELb1EE7_S_cgetERKS3_,"axG",@progbits,_ZNSt8__detail21_Hashtable_ebo_helperILi0ESt8equal_toIiELb1EE7_S_cgetERKS3_,comdat
	.weak	_ZNSt8__detail21_Hashtable_ebo_helperILi0ESt8equal_toIiELb1EE7_S_cgetERKS3_ # -- Begin function _ZNSt8__detail21_Hashtable_ebo_helperILi0ESt8equal_toIiELb1EE7_S_cgetERKS3_
	.p2align	4, 0x90
	.type	_ZNSt8__detail21_Hashtable_ebo_helperILi0ESt8equal_toIiELb1EE7_S_cgetERKS3_,@function
_ZNSt8__detail21_Hashtable_ebo_helperILi0ESt8equal_toIiELb1EE7_S_cgetERKS3_: # @_ZNSt8__detail21_Hashtable_ebo_helperILi0ESt8equal_toIiELb1EE7_S_cgetERKS3_
	.cfi_startproc
# %bb.0:
	pushq	%rbp
	.cfi_def_cfa_offset 16
	.cfi_offset %rbp, -16
	movq	%rsp, %rbp
	.cfi_def_cfa_register %rbp
	movq	%rdi, -8(%rbp)
	movq	-8(%rbp), %rax
	popq	%rbp
	.cfi_def_cfa %rsp, 8
	retq
.Lfunc_end50:
	.size	_ZNSt8__detail21_Hashtable_ebo_helperILi0ESt8equal_toIiELb1EE7_S_cgetERKS3_, .Lfunc_end50-_ZNSt8__detail21_Hashtable_ebo_helperILi0ESt8equal_toIiELb1EE7_S_cgetERKS3_
	.cfi_endproc
                                        # -- End function
	.section	.text._ZNSt8__detail21_Hashtable_ebo_helperILi0ENS_10_Select1stELb1EE7_S_cgetERKS2_,"axG",@progbits,_ZNSt8__detail21_Hashtable_ebo_helperILi0ENS_10_Select1stELb1EE7_S_cgetERKS2_,comdat
	.weak	_ZNSt8__detail21_Hashtable_ebo_helperILi0ENS_10_Select1stELb1EE7_S_cgetERKS2_ # -- Begin function _ZNSt8__detail21_Hashtable_ebo_helperILi0ENS_10_Select1stELb1EE7_S_cgetERKS2_
	.p2align	4, 0x90
	.type	_ZNSt8__detail21_Hashtable_ebo_helperILi0ENS_10_Select1stELb1EE7_S_cgetERKS2_,@function
_ZNSt8__detail21_Hashtable_ebo_helperILi0ENS_10_Select1stELb1EE7_S_cgetERKS2_: # @_ZNSt8__detail21_Hashtable_ebo_helperILi0ENS_10_Select1stELb1EE7_S_cgetERKS2_
	.cfi_startproc
# %bb.0:
	pushq	%rbp
	.cfi_def_cfa_offset 16
	.cfi_offset %rbp, -16
	movq	%rsp, %rbp
	.cfi_def_cfa_register %rbp
	movq	%rdi, -8(%rbp)
	movq	-8(%rbp), %rax
	popq	%rbp
	.cfi_def_cfa %rsp, 8
	retq
.Lfunc_end51:
	.size	_ZNSt8__detail21_Hashtable_ebo_helperILi0ENS_10_Select1stELb1EE7_S_cgetERKS2_, .Lfunc_end51-_ZNSt8__detail21_Hashtable_ebo_helperILi0ENS_10_Select1stELb1EE7_S_cgetERKS2_
	.cfi_endproc
                                        # -- End function
	.section	.text._ZNKSt8__detail15_Hash_code_baseIiSt4pairIKiSt6vectorIiSaIiEEENS_10_Select1stESt4hashIiENS_18_Mod_range_hashingENS_20_Default_ranged_hashELb0EE15_M_bucket_indexEPKNS_10_Hash_nodeIS6_Lb0EEEm,"axG",@progbits,_ZNKSt8__detail15_Hash_code_baseIiSt4pairIKiSt6vectorIiSaIiEEENS_10_Select1stESt4hashIiENS_18_Mod_range_hashingENS_20_Default_ranged_hashELb0EE15_M_bucket_indexEPKNS_10_Hash_nodeIS6_Lb0EEEm,comdat
	.weak	_ZNKSt8__detail15_Hash_code_baseIiSt4pairIKiSt6vectorIiSaIiEEENS_10_Select1stESt4hashIiENS_18_Mod_range_hashingENS_20_Default_ranged_hashELb0EE15_M_bucket_indexEPKNS_10_Hash_nodeIS6_Lb0EEEm # -- Begin function _ZNKSt8__detail15_Hash_code_baseIiSt4pairIKiSt6vectorIiSaIiEEENS_10_Select1stESt4hashIiENS_18_Mod_range_hashingENS_20_Default_ranged_hashELb0EE15_M_bucket_indexEPKNS_10_Hash_nodeIS6_Lb0EEEm
	.p2align	4, 0x90
	.type	_ZNKSt8__detail15_Hash_code_baseIiSt4pairIKiSt6vectorIiSaIiEEENS_10_Select1stESt4hashIiENS_18_Mod_range_hashingENS_20_Default_ranged_hashELb0EE15_M_bucket_indexEPKNS_10_Hash_nodeIS6_Lb0EEEm,@function
_ZNKSt8__detail15_Hash_code_baseIiSt4pairIKiSt6vectorIiSaIiEEENS_10_Select1stESt4hashIiENS_18_Mod_range_hashingENS_20_Default_ranged_hashELb0EE15_M_bucket_indexEPKNS_10_Hash_nodeIS6_Lb0EEEm: # @_ZNKSt8__detail15_Hash_code_baseIiSt4pairIKiSt6vectorIiSaIiEEENS_10_Select1stESt4hashIiENS_18_Mod_range_hashingENS_20_Default_ranged_hashELb0EE15_M_bucket_indexEPKNS_10_Hash_nodeIS6_Lb0EEEm
.Lfunc_begin5:
	.cfi_startproc
	.cfi_personality 3, __gxx_personality_v0
	.cfi_lsda 3, .Lexception5
# %bb.0:
	pushq	%rbp
	.cfi_def_cfa_offset 16
	.cfi_offset %rbp, -16
	movq	%rsp, %rbp
	.cfi_def_cfa_register %rbp
	subq	$80, %rsp
	movq	%rdi, -8(%rbp)
	movq	%rsi, -16(%rbp)
	movq	%rdx, -24(%rbp)
	movq	-8(%rbp), %rax
.Ltmp62:
	movq	%rax, %rdi
	movq	%rax, -32(%rbp)         # 8-byte Spill
	callq	_ZNKSt8__detail15_Hash_code_baseIiSt4pairIKiSt6vectorIiSaIiEEENS_10_Select1stESt4hashIiENS_18_Mod_range_hashingENS_20_Default_ranged_hashELb0EE5_M_h2Ev
.Ltmp63:
	movq	%rax, -40(%rbp)         # 8-byte Spill
	jmp	.LBB52_1
.LBB52_1:
.Ltmp64:
	movq	-32(%rbp), %rdi         # 8-byte Reload
	callq	_ZNKSt8__detail15_Hash_code_baseIiSt4pairIKiSt6vectorIiSaIiEEENS_10_Select1stESt4hashIiENS_18_Mod_range_hashingENS_20_Default_ranged_hashELb0EE5_M_h1Ev
.Ltmp65:
	movq	%rax, -48(%rbp)         # 8-byte Spill
	jmp	.LBB52_2
.LBB52_2:
.Ltmp66:
	movq	-32(%rbp), %rdi         # 8-byte Reload
	callq	_ZNKSt8__detail15_Hash_code_baseIiSt4pairIKiSt6vectorIiSaIiEEENS_10_Select1stESt4hashIiENS_18_Mod_range_hashingENS_20_Default_ranged_hashELb0EE10_M_extractEv
.Ltmp67:
	movq	%rax, -56(%rbp)         # 8-byte Spill
	jmp	.LBB52_3
.LBB52_3:
	movq	-16(%rbp), %rdi
	callq	_ZNKSt8__detail21_Hash_node_value_baseISt4pairIKiSt6vectorIiSaIiEEEE4_M_vEv
.Ltmp68:
	movq	-56(%rbp), %rdi         # 8-byte Reload
	movq	%rax, %rsi
	callq	_ZNKSt8__detail10_Select1stclIRKSt4pairIKiSt6vectorIiSaIiEEEEEDTclsr3stdE3getIXLi0EEEclsr3stdE7forwardIT_Efp_EEEOSA_
.Ltmp69:
	movq	%rax, -64(%rbp)         # 8-byte Spill
	jmp	.LBB52_4
.LBB52_4:
	movq	-64(%rbp), %rax         # 8-byte Reload
	movl	(%rax), %esi
	movq	-48(%rbp), %rdi         # 8-byte Reload
	callq	_ZNKSt4hashIiEclEi
	movq	-24(%rbp), %rdx
	movq	-40(%rbp), %rdi         # 8-byte Reload
	movq	%rax, %rsi
	callq	_ZNKSt8__detail18_Mod_range_hashingclEmm
	addq	$80, %rsp
	popq	%rbp
	.cfi_def_cfa %rsp, 8
	retq
.LBB52_5:
	.cfi_def_cfa %rbp, 16
.Ltmp70:
                                        # kill: def $edx killed $edx killed $rdx
	movq	%rax, %rdi
	movl	%edx, -68(%rbp)         # 4-byte Spill
	callq	__clang_call_terminate
.Lfunc_end52:
	.size	_ZNKSt8__detail15_Hash_code_baseIiSt4pairIKiSt6vectorIiSaIiEEENS_10_Select1stESt4hashIiENS_18_Mod_range_hashingENS_20_Default_ranged_hashELb0EE15_M_bucket_indexEPKNS_10_Hash_nodeIS6_Lb0EEEm, .Lfunc_end52-_ZNKSt8__detail15_Hash_code_baseIiSt4pairIKiSt6vectorIiSaIiEEENS_10_Select1stESt4hashIiENS_18_Mod_range_hashingENS_20_Default_ranged_hashELb0EE15_M_bucket_indexEPKNS_10_Hash_nodeIS6_Lb0EEEm
	.cfi_endproc
	.section	.gcc_except_table,"a",@progbits
	.p2align	2
GCC_except_table52:
.Lexception5:
	.byte	255                     # @LPStart Encoding = omit
	.byte	3                       # @TType Encoding = udata4
	.uleb128 .Lttbase3-.Lttbaseref3
.Lttbaseref3:
	.byte	1                       # Call site Encoding = uleb128
	.uleb128 .Lcst_end5-.Lcst_begin5
.Lcst_begin5:
	.uleb128 .Ltmp62-.Lfunc_begin5  # >> Call Site 1 <<
	.uleb128 .Ltmp69-.Ltmp62        #   Call between .Ltmp62 and .Ltmp69
	.uleb128 .Ltmp70-.Lfunc_begin5  #     jumps to .Ltmp70
	.byte	1                       #   On action: 1
.Lcst_end5:
	.byte	1                       # >> Action Record 1 <<
                                        #   Catch TypeInfo 1
	.byte	0                       #   No further actions
	.p2align	2
                                        # >> Catch TypeInfos <<
	.long	0                       # TypeInfo 1
.Lttbase3:
	.p2align	2
                                        # -- End function
	.section	.text.__clang_call_terminate,"axG",@progbits,__clang_call_terminate,comdat
	.hidden	__clang_call_terminate  # -- Begin function __clang_call_terminate
	.weak	__clang_call_terminate
	.p2align	4, 0x90
	.type	__clang_call_terminate,@function
__clang_call_terminate:                 # @__clang_call_terminate
# %bb.0:
	pushq	%rax
	callq	__cxa_begin_catch
	movq	%rax, (%rsp)            # 8-byte Spill
	callq	_ZSt9terminatev
.Lfunc_end53:
	.size	__clang_call_terminate, .Lfunc_end53-__clang_call_terminate
                                        # -- End function
	.section	.text._ZNKSt8__detail10_Select1stclIRKSt4pairIKiSt6vectorIiSaIiEEEEEDTclsr3stdE3getIXLi0EEEclsr3stdE7forwardIT_Efp_EEEOSA_,"axG",@progbits,_ZNKSt8__detail10_Select1stclIRKSt4pairIKiSt6vectorIiSaIiEEEEEDTclsr3stdE3getIXLi0EEEclsr3stdE7forwardIT_Efp_EEEOSA_,comdat
	.weak	_ZNKSt8__detail10_Select1stclIRKSt4pairIKiSt6vectorIiSaIiEEEEEDTclsr3stdE3getIXLi0EEEclsr3stdE7forwardIT_Efp_EEEOSA_ # -- Begin function _ZNKSt8__detail10_Select1stclIRKSt4pairIKiSt6vectorIiSaIiEEEEEDTclsr3stdE3getIXLi0EEEclsr3stdE7forwardIT_Efp_EEEOSA_
	.p2align	4, 0x90
	.type	_ZNKSt8__detail10_Select1stclIRKSt4pairIKiSt6vectorIiSaIiEEEEEDTclsr3stdE3getIXLi0EEEclsr3stdE7forwardIT_Efp_EEEOSA_,@function
_ZNKSt8__detail10_Select1stclIRKSt4pairIKiSt6vectorIiSaIiEEEEEDTclsr3stdE3getIXLi0EEEclsr3stdE7forwardIT_Efp_EEEOSA_: # @_ZNKSt8__detail10_Select1stclIRKSt4pairIKiSt6vectorIiSaIiEEEEEDTclsr3stdE3getIXLi0EEEclsr3stdE7forwardIT_Efp_EEEOSA_
	.cfi_startproc
# %bb.0:
	pushq	%rbp
	.cfi_def_cfa_offset 16
	.cfi_offset %rbp, -16
	movq	%rsp, %rbp
	.cfi_def_cfa_register %rbp
	subq	$16, %rsp
	movq	%rdi, -8(%rbp)
	movq	%rsi, -16(%rbp)
	movq	-16(%rbp), %rdi
	callq	_ZSt7forwardIRKSt4pairIKiSt6vectorIiSaIiEEEEOT_RNSt16remove_referenceIS8_E4typeE
	movq	%rax, %rdi
	callq	_ZSt3getILm0EKiSt6vectorIiSaIiEEERKNSt13tuple_elementIXT_ESt4pairIT0_T1_EE4typeERKS8_
	addq	$16, %rsp
	popq	%rbp
	.cfi_def_cfa %rsp, 8
	retq
.Lfunc_end54:
	.size	_ZNKSt8__detail10_Select1stclIRKSt4pairIKiSt6vectorIiSaIiEEEEEDTclsr3stdE3getIXLi0EEEclsr3stdE7forwardIT_Efp_EEEOSA_, .Lfunc_end54-_ZNKSt8__detail10_Select1stclIRKSt4pairIKiSt6vectorIiSaIiEEEEEDTclsr3stdE3getIXLi0EEEclsr3stdE7forwardIT_Efp_EEEOSA_
	.cfi_endproc
                                        # -- End function
	.section	.text._ZNKSt8__detail21_Hash_node_value_baseISt4pairIKiSt6vectorIiSaIiEEEE4_M_vEv,"axG",@progbits,_ZNKSt8__detail21_Hash_node_value_baseISt4pairIKiSt6vectorIiSaIiEEEE4_M_vEv,comdat
	.weak	_ZNKSt8__detail21_Hash_node_value_baseISt4pairIKiSt6vectorIiSaIiEEEE4_M_vEv # -- Begin function _ZNKSt8__detail21_Hash_node_value_baseISt4pairIKiSt6vectorIiSaIiEEEE4_M_vEv
	.p2align	4, 0x90
	.type	_ZNKSt8__detail21_Hash_node_value_baseISt4pairIKiSt6vectorIiSaIiEEEE4_M_vEv,@function
_ZNKSt8__detail21_Hash_node_value_baseISt4pairIKiSt6vectorIiSaIiEEEE4_M_vEv: # @_ZNKSt8__detail21_Hash_node_value_baseISt4pairIKiSt6vectorIiSaIiEEEE4_M_vEv
	.cfi_startproc
# %bb.0:
	pushq	%rbp
	.cfi_def_cfa_offset 16
	.cfi_offset %rbp, -16
	movq	%rsp, %rbp
	.cfi_def_cfa_register %rbp
	subq	$16, %rsp
	movq	%rdi, -8(%rbp)
	movq	-8(%rbp), %rdi
	callq	_ZNKSt8__detail21_Hash_node_value_baseISt4pairIKiSt6vectorIiSaIiEEEE9_M_valptrEv
	addq	$16, %rsp
	popq	%rbp
	.cfi_def_cfa %rsp, 8
	retq
.Lfunc_end55:
	.size	_ZNKSt8__detail21_Hash_node_value_baseISt4pairIKiSt6vectorIiSaIiEEEE4_M_vEv, .Lfunc_end55-_ZNKSt8__detail21_Hash_node_value_baseISt4pairIKiSt6vectorIiSaIiEEEE4_M_vEv
	.cfi_endproc
                                        # -- End function
	.section	.text._ZSt3getILm0EKiSt6vectorIiSaIiEEERKNSt13tuple_elementIXT_ESt4pairIT0_T1_EE4typeERKS8_,"axG",@progbits,_ZSt3getILm0EKiSt6vectorIiSaIiEEERKNSt13tuple_elementIXT_ESt4pairIT0_T1_EE4typeERKS8_,comdat
	.weak	_ZSt3getILm0EKiSt6vectorIiSaIiEEERKNSt13tuple_elementIXT_ESt4pairIT0_T1_EE4typeERKS8_ # -- Begin function _ZSt3getILm0EKiSt6vectorIiSaIiEEERKNSt13tuple_elementIXT_ESt4pairIT0_T1_EE4typeERKS8_
	.p2align	4, 0x90
	.type	_ZSt3getILm0EKiSt6vectorIiSaIiEEERKNSt13tuple_elementIXT_ESt4pairIT0_T1_EE4typeERKS8_,@function
_ZSt3getILm0EKiSt6vectorIiSaIiEEERKNSt13tuple_elementIXT_ESt4pairIT0_T1_EE4typeERKS8_: # @_ZSt3getILm0EKiSt6vectorIiSaIiEEERKNSt13tuple_elementIXT_ESt4pairIT0_T1_EE4typeERKS8_
	.cfi_startproc
# %bb.0:
	pushq	%rbp
	.cfi_def_cfa_offset 16
	.cfi_offset %rbp, -16
	movq	%rsp, %rbp
	.cfi_def_cfa_register %rbp
	subq	$16, %rsp
	movq	%rdi, -8(%rbp)
	movq	-8(%rbp), %rdi
	callq	_ZNSt10__pair_getILm0EE11__const_getIKiSt6vectorIiSaIiEEEERKT_RKSt4pairIS6_T0_E
	addq	$16, %rsp
	popq	%rbp
	.cfi_def_cfa %rsp, 8
	retq
.Lfunc_end56:
	.size	_ZSt3getILm0EKiSt6vectorIiSaIiEEERKNSt13tuple_elementIXT_ESt4pairIT0_T1_EE4typeERKS8_, .Lfunc_end56-_ZSt3getILm0EKiSt6vectorIiSaIiEEERKNSt13tuple_elementIXT_ESt4pairIT0_T1_EE4typeERKS8_
	.cfi_endproc
                                        # -- End function
	.section	.text._ZSt7forwardIRKSt4pairIKiSt6vectorIiSaIiEEEEOT_RNSt16remove_referenceIS8_E4typeE,"axG",@progbits,_ZSt7forwardIRKSt4pairIKiSt6vectorIiSaIiEEEEOT_RNSt16remove_referenceIS8_E4typeE,comdat
	.weak	_ZSt7forwardIRKSt4pairIKiSt6vectorIiSaIiEEEEOT_RNSt16remove_referenceIS8_E4typeE # -- Begin function _ZSt7forwardIRKSt4pairIKiSt6vectorIiSaIiEEEEOT_RNSt16remove_referenceIS8_E4typeE
	.p2align	4, 0x90
	.type	_ZSt7forwardIRKSt4pairIKiSt6vectorIiSaIiEEEEOT_RNSt16remove_referenceIS8_E4typeE,@function
_ZSt7forwardIRKSt4pairIKiSt6vectorIiSaIiEEEEOT_RNSt16remove_referenceIS8_E4typeE: # @_ZSt7forwardIRKSt4pairIKiSt6vectorIiSaIiEEEEOT_RNSt16remove_referenceIS8_E4typeE
	.cfi_startproc
# %bb.0:
	pushq	%rbp
	.cfi_def_cfa_offset 16
	.cfi_offset %rbp, -16
	movq	%rsp, %rbp
	.cfi_def_cfa_register %rbp
	movq	%rdi, -8(%rbp)
	movq	-8(%rbp), %rax
	popq	%rbp
	.cfi_def_cfa %rsp, 8
	retq
.Lfunc_end57:
	.size	_ZSt7forwardIRKSt4pairIKiSt6vectorIiSaIiEEEEOT_RNSt16remove_referenceIS8_E4typeE, .Lfunc_end57-_ZSt7forwardIRKSt4pairIKiSt6vectorIiSaIiEEEEOT_RNSt16remove_referenceIS8_E4typeE
	.cfi_endproc
                                        # -- End function
	.section	.text._ZNSt10__pair_getILm0EE11__const_getIKiSt6vectorIiSaIiEEEERKT_RKSt4pairIS6_T0_E,"axG",@progbits,_ZNSt10__pair_getILm0EE11__const_getIKiSt6vectorIiSaIiEEEERKT_RKSt4pairIS6_T0_E,comdat
	.weak	_ZNSt10__pair_getILm0EE11__const_getIKiSt6vectorIiSaIiEEEERKT_RKSt4pairIS6_T0_E # -- Begin function _ZNSt10__pair_getILm0EE11__const_getIKiSt6vectorIiSaIiEEEERKT_RKSt4pairIS6_T0_E
	.p2align	4, 0x90
	.type	_ZNSt10__pair_getILm0EE11__const_getIKiSt6vectorIiSaIiEEEERKT_RKSt4pairIS6_T0_E,@function
_ZNSt10__pair_getILm0EE11__const_getIKiSt6vectorIiSaIiEEEERKT_RKSt4pairIS6_T0_E: # @_ZNSt10__pair_getILm0EE11__const_getIKiSt6vectorIiSaIiEEEERKT_RKSt4pairIS6_T0_E
	.cfi_startproc
# %bb.0:
	pushq	%rbp
	.cfi_def_cfa_offset 16
	.cfi_offset %rbp, -16
	movq	%rsp, %rbp
	.cfi_def_cfa_register %rbp
	movq	%rdi, -8(%rbp)
	movq	-8(%rbp), %rax
	popq	%rbp
	.cfi_def_cfa %rsp, 8
	retq
.Lfunc_end58:
	.size	_ZNSt10__pair_getILm0EE11__const_getIKiSt6vectorIiSaIiEEEERKT_RKSt4pairIS6_T0_E, .Lfunc_end58-_ZNSt10__pair_getILm0EE11__const_getIKiSt6vectorIiSaIiEEEERKT_RKSt4pairIS6_T0_E
	.cfi_endproc
                                        # -- End function
	.section	.text._ZNKSt8__detail21_Hash_node_value_baseISt4pairIKiSt6vectorIiSaIiEEEE9_M_valptrEv,"axG",@progbits,_ZNKSt8__detail21_Hash_node_value_baseISt4pairIKiSt6vectorIiSaIiEEEE9_M_valptrEv,comdat
	.weak	_ZNKSt8__detail21_Hash_node_value_baseISt4pairIKiSt6vectorIiSaIiEEEE9_M_valptrEv # -- Begin function _ZNKSt8__detail21_Hash_node_value_baseISt4pairIKiSt6vectorIiSaIiEEEE9_M_valptrEv
	.p2align	4, 0x90
	.type	_ZNKSt8__detail21_Hash_node_value_baseISt4pairIKiSt6vectorIiSaIiEEEE9_M_valptrEv,@function
_ZNKSt8__detail21_Hash_node_value_baseISt4pairIKiSt6vectorIiSaIiEEEE9_M_valptrEv: # @_ZNKSt8__detail21_Hash_node_value_baseISt4pairIKiSt6vectorIiSaIiEEEE9_M_valptrEv
	.cfi_startproc
# %bb.0:
	pushq	%rbp
	.cfi_def_cfa_offset 16
	.cfi_offset %rbp, -16
	movq	%rsp, %rbp
	.cfi_def_cfa_register %rbp
	subq	$16, %rsp
	movq	%rdi, -8(%rbp)
	movq	-8(%rbp), %rax
	addq	$8, %rax
	movq	%rax, %rdi
	callq	_ZNK9__gnu_cxx16__aligned_bufferISt4pairIKiSt6vectorIiSaIiEEEE6_M_ptrEv
	addq	$16, %rsp
	popq	%rbp
	.cfi_def_cfa %rsp, 8
	retq
.Lfunc_end59:
	.size	_ZNKSt8__detail21_Hash_node_value_baseISt4pairIKiSt6vectorIiSaIiEEEE9_M_valptrEv, .Lfunc_end59-_ZNKSt8__detail21_Hash_node_value_baseISt4pairIKiSt6vectorIiSaIiEEEE9_M_valptrEv
	.cfi_endproc
                                        # -- End function
	.section	.text._ZNK9__gnu_cxx16__aligned_bufferISt4pairIKiSt6vectorIiSaIiEEEE6_M_ptrEv,"axG",@progbits,_ZNK9__gnu_cxx16__aligned_bufferISt4pairIKiSt6vectorIiSaIiEEEE6_M_ptrEv,comdat
	.weak	_ZNK9__gnu_cxx16__aligned_bufferISt4pairIKiSt6vectorIiSaIiEEEE6_M_ptrEv # -- Begin function _ZNK9__gnu_cxx16__aligned_bufferISt4pairIKiSt6vectorIiSaIiEEEE6_M_ptrEv
	.p2align	4, 0x90
	.type	_ZNK9__gnu_cxx16__aligned_bufferISt4pairIKiSt6vectorIiSaIiEEEE6_M_ptrEv,@function
_ZNK9__gnu_cxx16__aligned_bufferISt4pairIKiSt6vectorIiSaIiEEEE6_M_ptrEv: # @_ZNK9__gnu_cxx16__aligned_bufferISt4pairIKiSt6vectorIiSaIiEEEE6_M_ptrEv
	.cfi_startproc
# %bb.0:
	pushq	%rbp
	.cfi_def_cfa_offset 16
	.cfi_offset %rbp, -16
	movq	%rsp, %rbp
	.cfi_def_cfa_register %rbp
	subq	$16, %rsp
	movq	%rdi, -8(%rbp)
	movq	-8(%rbp), %rdi
	callq	_ZNK9__gnu_cxx16__aligned_bufferISt4pairIKiSt6vectorIiSaIiEEEE7_M_addrEv
	addq	$16, %rsp
	popq	%rbp
	.cfi_def_cfa %rsp, 8
	retq
.Lfunc_end60:
	.size	_ZNK9__gnu_cxx16__aligned_bufferISt4pairIKiSt6vectorIiSaIiEEEE6_M_ptrEv, .Lfunc_end60-_ZNK9__gnu_cxx16__aligned_bufferISt4pairIKiSt6vectorIiSaIiEEEE6_M_ptrEv
	.cfi_endproc
                                        # -- End function
	.section	.text._ZNK9__gnu_cxx16__aligned_bufferISt4pairIKiSt6vectorIiSaIiEEEE7_M_addrEv,"axG",@progbits,_ZNK9__gnu_cxx16__aligned_bufferISt4pairIKiSt6vectorIiSaIiEEEE7_M_addrEv,comdat
	.weak	_ZNK9__gnu_cxx16__aligned_bufferISt4pairIKiSt6vectorIiSaIiEEEE7_M_addrEv # -- Begin function _ZNK9__gnu_cxx16__aligned_bufferISt4pairIKiSt6vectorIiSaIiEEEE7_M_addrEv
	.p2align	4, 0x90
	.type	_ZNK9__gnu_cxx16__aligned_bufferISt4pairIKiSt6vectorIiSaIiEEEE7_M_addrEv,@function
_ZNK9__gnu_cxx16__aligned_bufferISt4pairIKiSt6vectorIiSaIiEEEE7_M_addrEv: # @_ZNK9__gnu_cxx16__aligned_bufferISt4pairIKiSt6vectorIiSaIiEEEE7_M_addrEv
	.cfi_startproc
# %bb.0:
	pushq	%rbp
	.cfi_def_cfa_offset 16
	.cfi_offset %rbp, -16
	movq	%rsp, %rbp
	.cfi_def_cfa_register %rbp
	movq	%rdi, -8(%rbp)
	movq	-8(%rbp), %rax
	popq	%rbp
	.cfi_def_cfa %rsp, 8
	retq
.Lfunc_end61:
	.size	_ZNK9__gnu_cxx16__aligned_bufferISt4pairIKiSt6vectorIiSaIiEEEE7_M_addrEv, .Lfunc_end61-_ZNK9__gnu_cxx16__aligned_bufferISt4pairIKiSt6vectorIiSaIiEEEE7_M_addrEv
	.cfi_endproc
                                        # -- End function
	.section	.text._ZNSt16allocator_traitsISaINSt8__detail10_Hash_nodeISt4pairIKiSt6vectorIiSaIiEEELb0EEEEE8allocateERS9_m,"axG",@progbits,_ZNSt16allocator_traitsISaINSt8__detail10_Hash_nodeISt4pairIKiSt6vectorIiSaIiEEELb0EEEEE8allocateERS9_m,comdat
	.weak	_ZNSt16allocator_traitsISaINSt8__detail10_Hash_nodeISt4pairIKiSt6vectorIiSaIiEEELb0EEEEE8allocateERS9_m # -- Begin function _ZNSt16allocator_traitsISaINSt8__detail10_Hash_nodeISt4pairIKiSt6vectorIiSaIiEEELb0EEEEE8allocateERS9_m
	.p2align	4, 0x90
	.type	_ZNSt16allocator_traitsISaINSt8__detail10_Hash_nodeISt4pairIKiSt6vectorIiSaIiEEELb0EEEEE8allocateERS9_m,@function
_ZNSt16allocator_traitsISaINSt8__detail10_Hash_nodeISt4pairIKiSt6vectorIiSaIiEEELb0EEEEE8allocateERS9_m: # @_ZNSt16allocator_traitsISaINSt8__detail10_Hash_nodeISt4pairIKiSt6vectorIiSaIiEEELb0EEEEE8allocateERS9_m
	.cfi_startproc
# %bb.0:
	pushq	%rbp
	.cfi_def_cfa_offset 16
	.cfi_offset %rbp, -16
	movq	%rsp, %rbp
	.cfi_def_cfa_register %rbp
	subq	$16, %rsp
	xorl	%eax, %eax
	movl	%eax, %edx
	movq	%rdi, -8(%rbp)
	movq	%rsi, -16(%rbp)
	movq	-8(%rbp), %rcx
	movq	-16(%rbp), %rsi
	movq	%rcx, %rdi
	callq	_ZN9__gnu_cxx13new_allocatorINSt8__detail10_Hash_nodeISt4pairIKiSt6vectorIiSaIiEEELb0EEEE8allocateEmPKv
	addq	$16, %rsp
	popq	%rbp
	.cfi_def_cfa %rsp, 8
	retq
.Lfunc_end62:
	.size	_ZNSt16allocator_traitsISaINSt8__detail10_Hash_nodeISt4pairIKiSt6vectorIiSaIiEEELb0EEEEE8allocateERS9_m, .Lfunc_end62-_ZNSt16allocator_traitsISaINSt8__detail10_Hash_nodeISt4pairIKiSt6vectorIiSaIiEEELb0EEEEE8allocateERS9_m
	.cfi_endproc
                                        # -- End function
	.section	.text._ZNSt8__detail16_Hashtable_allocISaINS_10_Hash_nodeISt4pairIKiSt6vectorIiSaIiEEELb0EEEEE17_M_node_allocatorEv,"axG",@progbits,_ZNSt8__detail16_Hashtable_allocISaINS_10_Hash_nodeISt4pairIKiSt6vectorIiSaIiEEELb0EEEEE17_M_node_allocatorEv,comdat
	.weak	_ZNSt8__detail16_Hashtable_allocISaINS_10_Hash_nodeISt4pairIKiSt6vectorIiSaIiEEELb0EEEEE17_M_node_allocatorEv # -- Begin function _ZNSt8__detail16_Hashtable_allocISaINS_10_Hash_nodeISt4pairIKiSt6vectorIiSaIiEEELb0EEEEE17_M_node_allocatorEv
	.p2align	4, 0x90
	.type	_ZNSt8__detail16_Hashtable_allocISaINS_10_Hash_nodeISt4pairIKiSt6vectorIiSaIiEEELb0EEEEE17_M_node_allocatorEv,@function
_ZNSt8__detail16_Hashtable_allocISaINS_10_Hash_nodeISt4pairIKiSt6vectorIiSaIiEEELb0EEEEE17_M_node_allocatorEv: # @_ZNSt8__detail16_Hashtable_allocISaINS_10_Hash_nodeISt4pairIKiSt6vectorIiSaIiEEELb0EEEEE17_M_node_allocatorEv
	.cfi_startproc
# %bb.0:
	pushq	%rbp
	.cfi_def_cfa_offset 16
	.cfi_offset %rbp, -16
	movq	%rsp, %rbp
	.cfi_def_cfa_register %rbp
	subq	$16, %rsp
	movq	%rdi, -8(%rbp)
	movq	-8(%rbp), %rax
	movq	%rax, %rdi
	callq	_ZNSt8__detail21_Hashtable_ebo_helperILi0ESaINS_10_Hash_nodeISt4pairIKiSt6vectorIiSaIiEEELb0EEEELb1EE6_S_getERSA_
	addq	$16, %rsp
	popq	%rbp
	.cfi_def_cfa %rsp, 8
	retq
.Lfunc_end63:
	.size	_ZNSt8__detail16_Hashtable_allocISaINS_10_Hash_nodeISt4pairIKiSt6vectorIiSaIiEEELb0EEEEE17_M_node_allocatorEv, .Lfunc_end63-_ZNSt8__detail16_Hashtable_allocISaINS_10_Hash_nodeISt4pairIKiSt6vectorIiSaIiEEELb0EEEEE17_M_node_allocatorEv
	.cfi_endproc
                                        # -- End function
	.section	.text._ZSt12__to_addressINSt8__detail10_Hash_nodeISt4pairIKiSt6vectorIiSaIiEEELb0EEEEPT_SA_,"axG",@progbits,_ZSt12__to_addressINSt8__detail10_Hash_nodeISt4pairIKiSt6vectorIiSaIiEEELb0EEEEPT_SA_,comdat
	.weak	_ZSt12__to_addressINSt8__detail10_Hash_nodeISt4pairIKiSt6vectorIiSaIiEEELb0EEEEPT_SA_ # -- Begin function _ZSt12__to_addressINSt8__detail10_Hash_nodeISt4pairIKiSt6vectorIiSaIiEEELb0EEEEPT_SA_
	.p2align	4, 0x90
	.type	_ZSt12__to_addressINSt8__detail10_Hash_nodeISt4pairIKiSt6vectorIiSaIiEEELb0EEEEPT_SA_,@function
_ZSt12__to_addressINSt8__detail10_Hash_nodeISt4pairIKiSt6vectorIiSaIiEEELb0EEEEPT_SA_: # @_ZSt12__to_addressINSt8__detail10_Hash_nodeISt4pairIKiSt6vectorIiSaIiEEELb0EEEEPT_SA_
	.cfi_startproc
# %bb.0:
	pushq	%rbp
	.cfi_def_cfa_offset 16
	.cfi_offset %rbp, -16
	movq	%rsp, %rbp
	.cfi_def_cfa_register %rbp
	movq	%rdi, -8(%rbp)
	movq	-8(%rbp), %rax
	popq	%rbp
	.cfi_def_cfa %rsp, 8
	retq
.Lfunc_end64:
	.size	_ZSt12__to_addressINSt8__detail10_Hash_nodeISt4pairIKiSt6vectorIiSaIiEEELb0EEEEPT_SA_, .Lfunc_end64-_ZSt12__to_addressINSt8__detail10_Hash_nodeISt4pairIKiSt6vectorIiSaIiEEELb0EEEEPT_SA_
	.cfi_endproc
                                        # -- End function
	.section	.text._ZNSt8__detail10_Hash_nodeISt4pairIKiSt6vectorIiSaIiEEELb0EEC2Ev,"axG",@progbits,_ZNSt8__detail10_Hash_nodeISt4pairIKiSt6vectorIiSaIiEEELb0EEC2Ev,comdat
	.weak	_ZNSt8__detail10_Hash_nodeISt4pairIKiSt6vectorIiSaIiEEELb0EEC2Ev # -- Begin function _ZNSt8__detail10_Hash_nodeISt4pairIKiSt6vectorIiSaIiEEELb0EEC2Ev
	.p2align	4, 0x90
	.type	_ZNSt8__detail10_Hash_nodeISt4pairIKiSt6vectorIiSaIiEEELb0EEC2Ev,@function
_ZNSt8__detail10_Hash_nodeISt4pairIKiSt6vectorIiSaIiEEELb0EEC2Ev: # @_ZNSt8__detail10_Hash_nodeISt4pairIKiSt6vectorIiSaIiEEELb0EEC2Ev
	.cfi_startproc
# %bb.0:
	pushq	%rbp
	.cfi_def_cfa_offset 16
	.cfi_offset %rbp, -16
	movq	%rsp, %rbp
	.cfi_def_cfa_register %rbp
	subq	$16, %rsp
	movq	%rdi, -8(%rbp)
	movq	-8(%rbp), %rax
	movq	%rax, %rdi
	callq	_ZNSt8__detail21_Hash_node_value_baseISt4pairIKiSt6vectorIiSaIiEEEEC2Ev
	addq	$16, %rsp
	popq	%rbp
	.cfi_def_cfa %rsp, 8
	retq
.Lfunc_end65:
	.size	_ZNSt8__detail10_Hash_nodeISt4pairIKiSt6vectorIiSaIiEEELb0EEC2Ev, .Lfunc_end65-_ZNSt8__detail10_Hash_nodeISt4pairIKiSt6vectorIiSaIiEEELb0EEC2Ev
	.cfi_endproc
                                        # -- End function
	.section	.text._ZNSt16allocator_traitsISaINSt8__detail10_Hash_nodeISt4pairIKiSt6vectorIiSaIiEEELb0EEEEE9constructIS7_JRKSt21piecewise_construct_tSt5tupleIJRS3_EESF_IJEEEEEvRS9_PT_DpOT0_,"axG",@progbits,_ZNSt16allocator_traitsISaINSt8__detail10_Hash_nodeISt4pairIKiSt6vectorIiSaIiEEELb0EEEEE9constructIS7_JRKSt21piecewise_construct_tSt5tupleIJRS3_EESF_IJEEEEEvRS9_PT_DpOT0_,comdat
	.weak	_ZNSt16allocator_traitsISaINSt8__detail10_Hash_nodeISt4pairIKiSt6vectorIiSaIiEEELb0EEEEE9constructIS7_JRKSt21piecewise_construct_tSt5tupleIJRS3_EESF_IJEEEEEvRS9_PT_DpOT0_ # -- Begin function _ZNSt16allocator_traitsISaINSt8__detail10_Hash_nodeISt4pairIKiSt6vectorIiSaIiEEELb0EEEEE9constructIS7_JRKSt21piecewise_construct_tSt5tupleIJRS3_EESF_IJEEEEEvRS9_PT_DpOT0_
	.p2align	4, 0x90
	.type	_ZNSt16allocator_traitsISaINSt8__detail10_Hash_nodeISt4pairIKiSt6vectorIiSaIiEEELb0EEEEE9constructIS7_JRKSt21piecewise_construct_tSt5tupleIJRS3_EESF_IJEEEEEvRS9_PT_DpOT0_,@function
_ZNSt16allocator_traitsISaINSt8__detail10_Hash_nodeISt4pairIKiSt6vectorIiSaIiEEELb0EEEEE9constructIS7_JRKSt21piecewise_construct_tSt5tupleIJRS3_EESF_IJEEEEEvRS9_PT_DpOT0_: # @_ZNSt16allocator_traitsISaINSt8__detail10_Hash_nodeISt4pairIKiSt6vectorIiSaIiEEELb0EEEEE9constructIS7_JRKSt21piecewise_construct_tSt5tupleIJRS3_EESF_IJEEEEEvRS9_PT_DpOT0_
	.cfi_startproc
# %bb.0:
	pushq	%rbp
	.cfi_def_cfa_offset 16
	.cfi_offset %rbp, -16
	movq	%rsp, %rbp
	.cfi_def_cfa_register %rbp
	subq	$80, %rsp
	movq	%rdi, -8(%rbp)
	movq	%rsi, -16(%rbp)
	movq	%rdx, -24(%rbp)
	movq	%rcx, -32(%rbp)
	movq	%r8, -40(%rbp)
	movq	-8(%rbp), %rax
	movq	-16(%rbp), %rsi
	movq	-24(%rbp), %rdi
	movq	%rax, -48(%rbp)         # 8-byte Spill
	movq	%rsi, -56(%rbp)         # 8-byte Spill
	callq	_ZSt7forwardIRKSt21piecewise_construct_tEOT_RNSt16remove_referenceIS3_E4typeE
	movq	-32(%rbp), %rdi
	movq	%rax, -64(%rbp)         # 8-byte Spill
	callq	_ZSt7forwardISt5tupleIJRKiEEEOT_RNSt16remove_referenceIS4_E4typeE
	movq	-40(%rbp), %rdi
	movq	%rax, -72(%rbp)         # 8-byte Spill
	callq	_ZSt7forwardISt5tupleIJEEEOT_RNSt16remove_referenceIS2_E4typeE
	movq	-48(%rbp), %rdi         # 8-byte Reload
	movq	-56(%rbp), %rsi         # 8-byte Reload
	movq	-64(%rbp), %rdx         # 8-byte Reload
	movq	-72(%rbp), %rcx         # 8-byte Reload
	movq	%rax, %r8
	callq	_ZN9__gnu_cxx13new_allocatorINSt8__detail10_Hash_nodeISt4pairIKiSt6vectorIiSaIiEEELb0EEEE9constructIS8_JRKSt21piecewise_construct_tSt5tupleIJRS4_EESF_IJEEEEEvPT_DpOT0_
	addq	$80, %rsp
	popq	%rbp
	.cfi_def_cfa %rsp, 8
	retq
.Lfunc_end66:
	.size	_ZNSt16allocator_traitsISaINSt8__detail10_Hash_nodeISt4pairIKiSt6vectorIiSaIiEEELb0EEEEE9constructIS7_JRKSt21piecewise_construct_tSt5tupleIJRS3_EESF_IJEEEEEvRS9_PT_DpOT0_, .Lfunc_end66-_ZNSt16allocator_traitsISaINSt8__detail10_Hash_nodeISt4pairIKiSt6vectorIiSaIiEEELb0EEEEE9constructIS7_JRKSt21piecewise_construct_tSt5tupleIJRS3_EESF_IJEEEEEvRS9_PT_DpOT0_
	.cfi_endproc
                                        # -- End function
	.section	.text._ZNSt8__detail21_Hash_node_value_baseISt4pairIKiSt6vectorIiSaIiEEEE9_M_valptrEv,"axG",@progbits,_ZNSt8__detail21_Hash_node_value_baseISt4pairIKiSt6vectorIiSaIiEEEE9_M_valptrEv,comdat
	.weak	_ZNSt8__detail21_Hash_node_value_baseISt4pairIKiSt6vectorIiSaIiEEEE9_M_valptrEv # -- Begin function _ZNSt8__detail21_Hash_node_value_baseISt4pairIKiSt6vectorIiSaIiEEEE9_M_valptrEv
	.p2align	4, 0x90
	.type	_ZNSt8__detail21_Hash_node_value_baseISt4pairIKiSt6vectorIiSaIiEEEE9_M_valptrEv,@function
_ZNSt8__detail21_Hash_node_value_baseISt4pairIKiSt6vectorIiSaIiEEEE9_M_valptrEv: # @_ZNSt8__detail21_Hash_node_value_baseISt4pairIKiSt6vectorIiSaIiEEEE9_M_valptrEv
	.cfi_startproc
# %bb.0:
	pushq	%rbp
	.cfi_def_cfa_offset 16
	.cfi_offset %rbp, -16
	movq	%rsp, %rbp
	.cfi_def_cfa_register %rbp
	subq	$16, %rsp
	movq	%rdi, -8(%rbp)
	movq	-8(%rbp), %rax
	addq	$8, %rax
	movq	%rax, %rdi
	callq	_ZN9__gnu_cxx16__aligned_bufferISt4pairIKiSt6vectorIiSaIiEEEE6_M_ptrEv
	addq	$16, %rsp
	popq	%rbp
	.cfi_def_cfa %rsp, 8
	retq
.Lfunc_end67:
	.size	_ZNSt8__detail21_Hash_node_value_baseISt4pairIKiSt6vectorIiSaIiEEEE9_M_valptrEv, .Lfunc_end67-_ZNSt8__detail21_Hash_node_value_baseISt4pairIKiSt6vectorIiSaIiEEEE9_M_valptrEv
	.cfi_endproc
                                        # -- End function
	.section	.text._ZSt7forwardIRKSt21piecewise_construct_tEOT_RNSt16remove_referenceIS3_E4typeE,"axG",@progbits,_ZSt7forwardIRKSt21piecewise_construct_tEOT_RNSt16remove_referenceIS3_E4typeE,comdat
	.weak	_ZSt7forwardIRKSt21piecewise_construct_tEOT_RNSt16remove_referenceIS3_E4typeE # -- Begin function _ZSt7forwardIRKSt21piecewise_construct_tEOT_RNSt16remove_referenceIS3_E4typeE
	.p2align	4, 0x90
	.type	_ZSt7forwardIRKSt21piecewise_construct_tEOT_RNSt16remove_referenceIS3_E4typeE,@function
_ZSt7forwardIRKSt21piecewise_construct_tEOT_RNSt16remove_referenceIS3_E4typeE: # @_ZSt7forwardIRKSt21piecewise_construct_tEOT_RNSt16remove_referenceIS3_E4typeE
	.cfi_startproc
# %bb.0:
	pushq	%rbp
	.cfi_def_cfa_offset 16
	.cfi_offset %rbp, -16
	movq	%rsp, %rbp
	.cfi_def_cfa_register %rbp
	movq	%rdi, -8(%rbp)
	movq	-8(%rbp), %rax
	popq	%rbp
	.cfi_def_cfa %rsp, 8
	retq
.Lfunc_end68:
	.size	_ZSt7forwardIRKSt21piecewise_construct_tEOT_RNSt16remove_referenceIS3_E4typeE, .Lfunc_end68-_ZSt7forwardIRKSt21piecewise_construct_tEOT_RNSt16remove_referenceIS3_E4typeE
	.cfi_endproc
                                        # -- End function
	.section	.text._ZSt7forwardISt5tupleIJRKiEEEOT_RNSt16remove_referenceIS4_E4typeE,"axG",@progbits,_ZSt7forwardISt5tupleIJRKiEEEOT_RNSt16remove_referenceIS4_E4typeE,comdat
	.weak	_ZSt7forwardISt5tupleIJRKiEEEOT_RNSt16remove_referenceIS4_E4typeE # -- Begin function _ZSt7forwardISt5tupleIJRKiEEEOT_RNSt16remove_referenceIS4_E4typeE
	.p2align	4, 0x90
	.type	_ZSt7forwardISt5tupleIJRKiEEEOT_RNSt16remove_referenceIS4_E4typeE,@function
_ZSt7forwardISt5tupleIJRKiEEEOT_RNSt16remove_referenceIS4_E4typeE: # @_ZSt7forwardISt5tupleIJRKiEEEOT_RNSt16remove_referenceIS4_E4typeE
	.cfi_startproc
# %bb.0:
	pushq	%rbp
	.cfi_def_cfa_offset 16
	.cfi_offset %rbp, -16
	movq	%rsp, %rbp
	.cfi_def_cfa_register %rbp
	movq	%rdi, -8(%rbp)
	movq	-8(%rbp), %rax
	popq	%rbp
	.cfi_def_cfa %rsp, 8
	retq
.Lfunc_end69:
	.size	_ZSt7forwardISt5tupleIJRKiEEEOT_RNSt16remove_referenceIS4_E4typeE, .Lfunc_end69-_ZSt7forwardISt5tupleIJRKiEEEOT_RNSt16remove_referenceIS4_E4typeE
	.cfi_endproc
                                        # -- End function
	.section	.text._ZSt7forwardISt5tupleIJEEEOT_RNSt16remove_referenceIS2_E4typeE,"axG",@progbits,_ZSt7forwardISt5tupleIJEEEOT_RNSt16remove_referenceIS2_E4typeE,comdat
	.weak	_ZSt7forwardISt5tupleIJEEEOT_RNSt16remove_referenceIS2_E4typeE # -- Begin function _ZSt7forwardISt5tupleIJEEEOT_RNSt16remove_referenceIS2_E4typeE
	.p2align	4, 0x90
	.type	_ZSt7forwardISt5tupleIJEEEOT_RNSt16remove_referenceIS2_E4typeE,@function
_ZSt7forwardISt5tupleIJEEEOT_RNSt16remove_referenceIS2_E4typeE: # @_ZSt7forwardISt5tupleIJEEEOT_RNSt16remove_referenceIS2_E4typeE
	.cfi_startproc
# %bb.0:
	pushq	%rbp
	.cfi_def_cfa_offset 16
	.cfi_offset %rbp, -16
	movq	%rsp, %rbp
	.cfi_def_cfa_register %rbp
	movq	%rdi, -8(%rbp)
	movq	-8(%rbp), %rax
	popq	%rbp
	.cfi_def_cfa %rsp, 8
	retq
.Lfunc_end70:
	.size	_ZSt7forwardISt5tupleIJEEEOT_RNSt16remove_referenceIS2_E4typeE, .Lfunc_end70-_ZSt7forwardISt5tupleIJEEEOT_RNSt16remove_referenceIS2_E4typeE
	.cfi_endproc
                                        # -- End function
	.section	.text._ZNSt16allocator_traitsISaINSt8__detail10_Hash_nodeISt4pairIKiSt6vectorIiSaIiEEELb0EEEEE10deallocateERS9_PS8_m,"axG",@progbits,_ZNSt16allocator_traitsISaINSt8__detail10_Hash_nodeISt4pairIKiSt6vectorIiSaIiEEELb0EEEEE10deallocateERS9_PS8_m,comdat
	.weak	_ZNSt16allocator_traitsISaINSt8__detail10_Hash_nodeISt4pairIKiSt6vectorIiSaIiEEELb0EEEEE10deallocateERS9_PS8_m # -- Begin function _ZNSt16allocator_traitsISaINSt8__detail10_Hash_nodeISt4pairIKiSt6vectorIiSaIiEEELb0EEEEE10deallocateERS9_PS8_m
	.p2align	4, 0x90
	.type	_ZNSt16allocator_traitsISaINSt8__detail10_Hash_nodeISt4pairIKiSt6vectorIiSaIiEEELb0EEEEE10deallocateERS9_PS8_m,@function
_ZNSt16allocator_traitsISaINSt8__detail10_Hash_nodeISt4pairIKiSt6vectorIiSaIiEEELb0EEEEE10deallocateERS9_PS8_m: # @_ZNSt16allocator_traitsISaINSt8__detail10_Hash_nodeISt4pairIKiSt6vectorIiSaIiEEELb0EEEEE10deallocateERS9_PS8_m
	.cfi_startproc
# %bb.0:
	pushq	%rbp
	.cfi_def_cfa_offset 16
	.cfi_offset %rbp, -16
	movq	%rsp, %rbp
	.cfi_def_cfa_register %rbp
	subq	$32, %rsp
	movq	%rdi, -8(%rbp)
	movq	%rsi, -16(%rbp)
	movq	%rdx, -24(%rbp)
	movq	-8(%rbp), %rax
	movq	-16(%rbp), %rsi
	movq	-24(%rbp), %rdx
	movq	%rax, %rdi
	callq	_ZN9__gnu_cxx13new_allocatorINSt8__detail10_Hash_nodeISt4pairIKiSt6vectorIiSaIiEEELb0EEEE10deallocateEPS9_m
	addq	$32, %rsp
	popq	%rbp
	.cfi_def_cfa %rsp, 8
	retq
.Lfunc_end71:
	.size	_ZNSt16allocator_traitsISaINSt8__detail10_Hash_nodeISt4pairIKiSt6vectorIiSaIiEEELb0EEEEE10deallocateERS9_PS8_m, .Lfunc_end71-_ZNSt16allocator_traitsISaINSt8__detail10_Hash_nodeISt4pairIKiSt6vectorIiSaIiEEELb0EEEEE10deallocateERS9_PS8_m
	.cfi_endproc
                                        # -- End function
	.section	.text._ZN9__gnu_cxx13new_allocatorINSt8__detail10_Hash_nodeISt4pairIKiSt6vectorIiSaIiEEELb0EEEE8allocateEmPKv,"axG",@progbits,_ZN9__gnu_cxx13new_allocatorINSt8__detail10_Hash_nodeISt4pairIKiSt6vectorIiSaIiEEELb0EEEE8allocateEmPKv,comdat
	.weak	_ZN9__gnu_cxx13new_allocatorINSt8__detail10_Hash_nodeISt4pairIKiSt6vectorIiSaIiEEELb0EEEE8allocateEmPKv # -- Begin function _ZN9__gnu_cxx13new_allocatorINSt8__detail10_Hash_nodeISt4pairIKiSt6vectorIiSaIiEEELb0EEEE8allocateEmPKv
	.p2align	4, 0x90
	.type	_ZN9__gnu_cxx13new_allocatorINSt8__detail10_Hash_nodeISt4pairIKiSt6vectorIiSaIiEEELb0EEEE8allocateEmPKv,@function
_ZN9__gnu_cxx13new_allocatorINSt8__detail10_Hash_nodeISt4pairIKiSt6vectorIiSaIiEEELb0EEEE8allocateEmPKv: # @_ZN9__gnu_cxx13new_allocatorINSt8__detail10_Hash_nodeISt4pairIKiSt6vectorIiSaIiEEELb0EEEE8allocateEmPKv
	.cfi_startproc
# %bb.0:
	pushq	%rbp
	.cfi_def_cfa_offset 16
	.cfi_offset %rbp, -16
	movq	%rsp, %rbp
	.cfi_def_cfa_register %rbp
	subq	$32, %rsp
	movq	%rdi, -8(%rbp)
	movq	%rsi, -16(%rbp)
	movq	%rdx, -24(%rbp)
	movq	-8(%rbp), %rdi
	movq	-16(%rbp), %rax
	movq	%rax, -32(%rbp)         # 8-byte Spill
	callq	_ZNK9__gnu_cxx13new_allocatorINSt8__detail10_Hash_nodeISt4pairIKiSt6vectorIiSaIiEEELb0EEEE8max_sizeEv
	movq	-32(%rbp), %rcx         # 8-byte Reload
	cmpq	%rax, %rcx
	jbe	.LBB72_2
# %bb.1:
	callq	_ZSt17__throw_bad_allocv
.LBB72_2:
	imulq	$40, -16(%rbp), %rdi
	callq	_Znwm
	addq	$32, %rsp
	popq	%rbp
	.cfi_def_cfa %rsp, 8
	retq
.Lfunc_end72:
	.size	_ZN9__gnu_cxx13new_allocatorINSt8__detail10_Hash_nodeISt4pairIKiSt6vectorIiSaIiEEELb0EEEE8allocateEmPKv, .Lfunc_end72-_ZN9__gnu_cxx13new_allocatorINSt8__detail10_Hash_nodeISt4pairIKiSt6vectorIiSaIiEEELb0EEEE8allocateEmPKv
	.cfi_endproc
                                        # -- End function
	.section	.text._ZNK9__gnu_cxx13new_allocatorINSt8__detail10_Hash_nodeISt4pairIKiSt6vectorIiSaIiEEELb0EEEE8max_sizeEv,"axG",@progbits,_ZNK9__gnu_cxx13new_allocatorINSt8__detail10_Hash_nodeISt4pairIKiSt6vectorIiSaIiEEELb0EEEE8max_sizeEv,comdat
	.weak	_ZNK9__gnu_cxx13new_allocatorINSt8__detail10_Hash_nodeISt4pairIKiSt6vectorIiSaIiEEELb0EEEE8max_sizeEv # -- Begin function _ZNK9__gnu_cxx13new_allocatorINSt8__detail10_Hash_nodeISt4pairIKiSt6vectorIiSaIiEEELb0EEEE8max_sizeEv
	.p2align	4, 0x90
	.type	_ZNK9__gnu_cxx13new_allocatorINSt8__detail10_Hash_nodeISt4pairIKiSt6vectorIiSaIiEEELb0EEEE8max_sizeEv,@function
_ZNK9__gnu_cxx13new_allocatorINSt8__detail10_Hash_nodeISt4pairIKiSt6vectorIiSaIiEEELb0EEEE8max_sizeEv: # @_ZNK9__gnu_cxx13new_allocatorINSt8__detail10_Hash_nodeISt4pairIKiSt6vectorIiSaIiEEELb0EEEE8max_sizeEv
	.cfi_startproc
# %bb.0:
	pushq	%rbp
	.cfi_def_cfa_offset 16
	.cfi_offset %rbp, -16
	movq	%rsp, %rbp
	.cfi_def_cfa_register %rbp
	movq	%rdi, -8(%rbp)
	movabsq	$230584300921369395, %rax # imm = 0x333333333333333
	popq	%rbp
	.cfi_def_cfa %rsp, 8
	retq
.Lfunc_end73:
	.size	_ZNK9__gnu_cxx13new_allocatorINSt8__detail10_Hash_nodeISt4pairIKiSt6vectorIiSaIiEEELb0EEEE8max_sizeEv, .Lfunc_end73-_ZNK9__gnu_cxx13new_allocatorINSt8__detail10_Hash_nodeISt4pairIKiSt6vectorIiSaIiEEELb0EEEE8max_sizeEv
	.cfi_endproc
                                        # -- End function
	.section	.text._ZNSt8__detail21_Hashtable_ebo_helperILi0ESaINS_10_Hash_nodeISt4pairIKiSt6vectorIiSaIiEEELb0EEEELb1EE6_S_getERSA_,"axG",@progbits,_ZNSt8__detail21_Hashtable_ebo_helperILi0ESaINS_10_Hash_nodeISt4pairIKiSt6vectorIiSaIiEEELb0EEEELb1EE6_S_getERSA_,comdat
	.weak	_ZNSt8__detail21_Hashtable_ebo_helperILi0ESaINS_10_Hash_nodeISt4pairIKiSt6vectorIiSaIiEEELb0EEEELb1EE6_S_getERSA_ # -- Begin function _ZNSt8__detail21_Hashtable_ebo_helperILi0ESaINS_10_Hash_nodeISt4pairIKiSt6vectorIiSaIiEEELb0EEEELb1EE6_S_getERSA_
	.p2align	4, 0x90
	.type	_ZNSt8__detail21_Hashtable_ebo_helperILi0ESaINS_10_Hash_nodeISt4pairIKiSt6vectorIiSaIiEEELb0EEEELb1EE6_S_getERSA_,@function
_ZNSt8__detail21_Hashtable_ebo_helperILi0ESaINS_10_Hash_nodeISt4pairIKiSt6vectorIiSaIiEEELb0EEEELb1EE6_S_getERSA_: # @_ZNSt8__detail21_Hashtable_ebo_helperILi0ESaINS_10_Hash_nodeISt4pairIKiSt6vectorIiSaIiEEELb0EEEELb1EE6_S_getERSA_
	.cfi_startproc
# %bb.0:
	pushq	%rbp
	.cfi_def_cfa_offset 16
	.cfi_offset %rbp, -16
	movq	%rsp, %rbp
	.cfi_def_cfa_register %rbp
	movq	%rdi, -8(%rbp)
	movq	-8(%rbp), %rax
	popq	%rbp
	.cfi_def_cfa %rsp, 8
	retq
.Lfunc_end74:
	.size	_ZNSt8__detail21_Hashtable_ebo_helperILi0ESaINS_10_Hash_nodeISt4pairIKiSt6vectorIiSaIiEEELb0EEEELb1EE6_S_getERSA_, .Lfunc_end74-_ZNSt8__detail21_Hashtable_ebo_helperILi0ESaINS_10_Hash_nodeISt4pairIKiSt6vectorIiSaIiEEELb0EEEELb1EE6_S_getERSA_
	.cfi_endproc
                                        # -- End function
	.section	.text._ZNSt8__detail21_Hash_node_value_baseISt4pairIKiSt6vectorIiSaIiEEEEC2Ev,"axG",@progbits,_ZNSt8__detail21_Hash_node_value_baseISt4pairIKiSt6vectorIiSaIiEEEEC2Ev,comdat
	.weak	_ZNSt8__detail21_Hash_node_value_baseISt4pairIKiSt6vectorIiSaIiEEEEC2Ev # -- Begin function _ZNSt8__detail21_Hash_node_value_baseISt4pairIKiSt6vectorIiSaIiEEEEC2Ev
	.p2align	4, 0x90
	.type	_ZNSt8__detail21_Hash_node_value_baseISt4pairIKiSt6vectorIiSaIiEEEEC2Ev,@function
_ZNSt8__detail21_Hash_node_value_baseISt4pairIKiSt6vectorIiSaIiEEEEC2Ev: # @_ZNSt8__detail21_Hash_node_value_baseISt4pairIKiSt6vectorIiSaIiEEEEC2Ev
	.cfi_startproc
# %bb.0:
	pushq	%rbp
	.cfi_def_cfa_offset 16
	.cfi_offset %rbp, -16
	movq	%rsp, %rbp
	.cfi_def_cfa_register %rbp
	subq	$16, %rsp
	movq	%rdi, -8(%rbp)
	movq	-8(%rbp), %rax
	movq	%rax, %rdi
	callq	_ZNSt8__detail15_Hash_node_baseC2Ev
	addq	$16, %rsp
	popq	%rbp
	.cfi_def_cfa %rsp, 8
	retq
.Lfunc_end75:
	.size	_ZNSt8__detail21_Hash_node_value_baseISt4pairIKiSt6vectorIiSaIiEEEEC2Ev, .Lfunc_end75-_ZNSt8__detail21_Hash_node_value_baseISt4pairIKiSt6vectorIiSaIiEEEEC2Ev
	.cfi_endproc
                                        # -- End function
	.section	.text._ZN9__gnu_cxx13new_allocatorINSt8__detail10_Hash_nodeISt4pairIKiSt6vectorIiSaIiEEELb0EEEE9constructIS8_JRKSt21piecewise_construct_tSt5tupleIJRS4_EESF_IJEEEEEvPT_DpOT0_,"axG",@progbits,_ZN9__gnu_cxx13new_allocatorINSt8__detail10_Hash_nodeISt4pairIKiSt6vectorIiSaIiEEELb0EEEE9constructIS8_JRKSt21piecewise_construct_tSt5tupleIJRS4_EESF_IJEEEEEvPT_DpOT0_,comdat
	.weak	_ZN9__gnu_cxx13new_allocatorINSt8__detail10_Hash_nodeISt4pairIKiSt6vectorIiSaIiEEELb0EEEE9constructIS8_JRKSt21piecewise_construct_tSt5tupleIJRS4_EESF_IJEEEEEvPT_DpOT0_ # -- Begin function _ZN9__gnu_cxx13new_allocatorINSt8__detail10_Hash_nodeISt4pairIKiSt6vectorIiSaIiEEELb0EEEE9constructIS8_JRKSt21piecewise_construct_tSt5tupleIJRS4_EESF_IJEEEEEvPT_DpOT0_
	.p2align	4, 0x90
	.type	_ZN9__gnu_cxx13new_allocatorINSt8__detail10_Hash_nodeISt4pairIKiSt6vectorIiSaIiEEELb0EEEE9constructIS8_JRKSt21piecewise_construct_tSt5tupleIJRS4_EESF_IJEEEEEvPT_DpOT0_,@function
_ZN9__gnu_cxx13new_allocatorINSt8__detail10_Hash_nodeISt4pairIKiSt6vectorIiSaIiEEELb0EEEE9constructIS8_JRKSt21piecewise_construct_tSt5tupleIJRS4_EESF_IJEEEEEvPT_DpOT0_: # @_ZN9__gnu_cxx13new_allocatorINSt8__detail10_Hash_nodeISt4pairIKiSt6vectorIiSaIiEEELb0EEEE9constructIS8_JRKSt21piecewise_construct_tSt5tupleIJRS4_EESF_IJEEEEEvPT_DpOT0_
	.cfi_startproc
# %bb.0:
	pushq	%rbp
	.cfi_def_cfa_offset 16
	.cfi_offset %rbp, -16
	movq	%rsp, %rbp
	.cfi_def_cfa_register %rbp
	subq	$96, %rsp
	movq	%rdi, -8(%rbp)
	movq	%rsi, -16(%rbp)
	movq	%rdx, -24(%rbp)
	movq	%rcx, -32(%rbp)
	movq	%r8, -40(%rbp)
	movq	-16(%rbp), %rax
	movq	-24(%rbp), %rdi
	movq	%rax, -72(%rbp)         # 8-byte Spill
	callq	_ZSt7forwardIRKSt21piecewise_construct_tEOT_RNSt16remove_referenceIS3_E4typeE
	movq	-32(%rbp), %rdi
	movq	%rax, -80(%rbp)         # 8-byte Spill
	callq	_ZSt7forwardISt5tupleIJRKiEEEOT_RNSt16remove_referenceIS4_E4typeE
	leaq	-56(%rbp), %rdi
	movq	%rax, %rsi
	callq	_ZNSt5tupleIJRKiEEC2EOS2_
	movq	-40(%rbp), %rdi
	callq	_ZSt7forwardISt5tupleIJEEEOT_RNSt16remove_referenceIS2_E4typeE
	movq	-72(%rbp), %rdi         # 8-byte Reload
	leaq	-56(%rbp), %rsi
	movq	%rax, -88(%rbp)         # 8-byte Spill
	callq	_ZNSt4pairIKiSt6vectorIiSaIiEEEC2IJRS0_EJEEESt21piecewise_construct_tSt5tupleIJDpT_EES8_IJDpT0_EE
	addq	$96, %rsp
	popq	%rbp
	.cfi_def_cfa %rsp, 8
	retq
.Lfunc_end76:
	.size	_ZN9__gnu_cxx13new_allocatorINSt8__detail10_Hash_nodeISt4pairIKiSt6vectorIiSaIiEEELb0EEEE9constructIS8_JRKSt21piecewise_construct_tSt5tupleIJRS4_EESF_IJEEEEEvPT_DpOT0_, .Lfunc_end76-_ZN9__gnu_cxx13new_allocatorINSt8__detail10_Hash_nodeISt4pairIKiSt6vectorIiSaIiEEELb0EEEE9constructIS8_JRKSt21piecewise_construct_tSt5tupleIJRS4_EESF_IJEEEEEvPT_DpOT0_
	.cfi_endproc
                                        # -- End function
	.section	.text._ZNSt5tupleIJRKiEEC2EOS2_,"axG",@progbits,_ZNSt5tupleIJRKiEEC2EOS2_,comdat
	.weak	_ZNSt5tupleIJRKiEEC2EOS2_ # -- Begin function _ZNSt5tupleIJRKiEEC2EOS2_
	.p2align	4, 0x90
	.type	_ZNSt5tupleIJRKiEEC2EOS2_,@function
_ZNSt5tupleIJRKiEEC2EOS2_:              # @_ZNSt5tupleIJRKiEEC2EOS2_
	.cfi_startproc
# %bb.0:
	pushq	%rbp
	.cfi_def_cfa_offset 16
	.cfi_offset %rbp, -16
	movq	%rsp, %rbp
	.cfi_def_cfa_register %rbp
	subq	$16, %rsp
	movq	%rdi, -8(%rbp)
	movq	%rsi, -16(%rbp)
	movq	-8(%rbp), %rax
	movq	-16(%rbp), %rcx
	movq	%rax, %rdi
	movq	%rcx, %rsi
	callq	_ZNSt11_Tuple_implILm0EJRKiEEC2EOS2_
	addq	$16, %rsp
	popq	%rbp
	.cfi_def_cfa %rsp, 8
	retq
.Lfunc_end77:
	.size	_ZNSt5tupleIJRKiEEC2EOS2_, .Lfunc_end77-_ZNSt5tupleIJRKiEEC2EOS2_
	.cfi_endproc
                                        # -- End function
	.section	.text._ZNSt4pairIKiSt6vectorIiSaIiEEEC2IJRS0_EJEEESt21piecewise_construct_tSt5tupleIJDpT_EES8_IJDpT0_EE,"axG",@progbits,_ZNSt4pairIKiSt6vectorIiSaIiEEEC2IJRS0_EJEEESt21piecewise_construct_tSt5tupleIJDpT_EES8_IJDpT0_EE,comdat
	.weak	_ZNSt4pairIKiSt6vectorIiSaIiEEEC2IJRS0_EJEEESt21piecewise_construct_tSt5tupleIJDpT_EES8_IJDpT0_EE # -- Begin function _ZNSt4pairIKiSt6vectorIiSaIiEEEC2IJRS0_EJEEESt21piecewise_construct_tSt5tupleIJDpT_EES8_IJDpT0_EE
	.p2align	4, 0x90
	.type	_ZNSt4pairIKiSt6vectorIiSaIiEEEC2IJRS0_EJEEESt21piecewise_construct_tSt5tupleIJDpT_EES8_IJDpT0_EE,@function
_ZNSt4pairIKiSt6vectorIiSaIiEEEC2IJRS0_EJEEESt21piecewise_construct_tSt5tupleIJDpT_EES8_IJDpT0_EE: # @_ZNSt4pairIKiSt6vectorIiSaIiEEEC2IJRS0_EJEEESt21piecewise_construct_tSt5tupleIJDpT_EES8_IJDpT0_EE
	.cfi_startproc
# %bb.0:
	pushq	%rbp
	.cfi_def_cfa_offset 16
	.cfi_offset %rbp, -16
	movq	%rsp, %rbp
	.cfi_def_cfa_register %rbp
	subq	$48, %rsp
	movq	%rdi, -24(%rbp)
	movq	-24(%rbp), %rdi
	leaq	-16(%rbp), %rdx
	callq	_ZNSt4pairIKiSt6vectorIiSaIiEEEC2IJRS0_EJLm0EEJEJEEERSt5tupleIJDpT_EERS7_IJDpT1_EESt12_Index_tupleIJXspT0_EEESG_IJXspT2_EEE
	addq	$48, %rsp
	popq	%rbp
	.cfi_def_cfa %rsp, 8
	retq
.Lfunc_end78:
	.size	_ZNSt4pairIKiSt6vectorIiSaIiEEEC2IJRS0_EJEEESt21piecewise_construct_tSt5tupleIJDpT_EES8_IJDpT0_EE, .Lfunc_end78-_ZNSt4pairIKiSt6vectorIiSaIiEEEC2IJRS0_EJEEESt21piecewise_construct_tSt5tupleIJDpT_EES8_IJDpT0_EE
	.cfi_endproc
                                        # -- End function
	.section	.text._ZNSt11_Tuple_implILm0EJRKiEEC2EOS2_,"axG",@progbits,_ZNSt11_Tuple_implILm0EJRKiEEC2EOS2_,comdat
	.weak	_ZNSt11_Tuple_implILm0EJRKiEEC2EOS2_ # -- Begin function _ZNSt11_Tuple_implILm0EJRKiEEC2EOS2_
	.p2align	4, 0x90
	.type	_ZNSt11_Tuple_implILm0EJRKiEEC2EOS2_,@function
_ZNSt11_Tuple_implILm0EJRKiEEC2EOS2_:   # @_ZNSt11_Tuple_implILm0EJRKiEEC2EOS2_
.Lfunc_begin6:
	.cfi_startproc
	.cfi_personality 3, __gxx_personality_v0
	.cfi_lsda 3, .Lexception6
# %bb.0:
	pushq	%rbp
	.cfi_def_cfa_offset 16
	.cfi_offset %rbp, -16
	movq	%rsp, %rbp
	.cfi_def_cfa_register %rbp
	subq	$32, %rsp
	movq	%rdi, -8(%rbp)
	movq	%rsi, -16(%rbp)
	movq	-8(%rbp), %rdi
	movq	-16(%rbp), %rax
	movq	%rdi, -24(%rbp)         # 8-byte Spill
	movq	%rax, %rdi
	callq	_ZNSt11_Tuple_implILm0EJRKiEE7_M_headERS2_
	movq	%rax, %rdi
	callq	_ZSt7forwardIRKiEOT_RNSt16remove_referenceIS2_E4typeE
.Ltmp71:
	movq	-24(%rbp), %rdi         # 8-byte Reload
	movq	%rax, %rsi
	callq	_ZNSt10_Head_baseILm0ERKiLb0EEC2ES1_
.Ltmp72:
	jmp	.LBB79_1
.LBB79_1:
	addq	$32, %rsp
	popq	%rbp
	.cfi_def_cfa %rsp, 8
	retq
.LBB79_2:
	.cfi_def_cfa %rbp, 16
.Ltmp73:
                                        # kill: def $edx killed $edx killed $rdx
	movq	%rax, %rdi
	movl	%edx, -28(%rbp)         # 4-byte Spill
	callq	__clang_call_terminate
.Lfunc_end79:
	.size	_ZNSt11_Tuple_implILm0EJRKiEEC2EOS2_, .Lfunc_end79-_ZNSt11_Tuple_implILm0EJRKiEEC2EOS2_
	.cfi_endproc
	.section	.gcc_except_table,"a",@progbits
	.p2align	2
GCC_except_table79:
.Lexception6:
	.byte	255                     # @LPStart Encoding = omit
	.byte	3                       # @TType Encoding = udata4
	.uleb128 .Lttbase4-.Lttbaseref4
.Lttbaseref4:
	.byte	1                       # Call site Encoding = uleb128
	.uleb128 .Lcst_end6-.Lcst_begin6
.Lcst_begin6:
	.uleb128 .Ltmp71-.Lfunc_begin6  # >> Call Site 1 <<
	.uleb128 .Ltmp72-.Ltmp71        #   Call between .Ltmp71 and .Ltmp72
	.uleb128 .Ltmp73-.Lfunc_begin6  #     jumps to .Ltmp73
	.byte	1                       #   On action: 1
.Lcst_end6:
	.byte	1                       # >> Action Record 1 <<
                                        #   Catch TypeInfo 1
	.byte	0                       #   No further actions
	.p2align	2
                                        # >> Catch TypeInfos <<
	.long	0                       # TypeInfo 1
.Lttbase4:
	.p2align	2
                                        # -- End function
	.section	.text._ZSt7forwardIRKiEOT_RNSt16remove_referenceIS2_E4typeE,"axG",@progbits,_ZSt7forwardIRKiEOT_RNSt16remove_referenceIS2_E4typeE,comdat
	.weak	_ZSt7forwardIRKiEOT_RNSt16remove_referenceIS2_E4typeE # -- Begin function _ZSt7forwardIRKiEOT_RNSt16remove_referenceIS2_E4typeE
	.p2align	4, 0x90
	.type	_ZSt7forwardIRKiEOT_RNSt16remove_referenceIS2_E4typeE,@function
_ZSt7forwardIRKiEOT_RNSt16remove_referenceIS2_E4typeE: # @_ZSt7forwardIRKiEOT_RNSt16remove_referenceIS2_E4typeE
	.cfi_startproc
# %bb.0:
	pushq	%rbp
	.cfi_def_cfa_offset 16
	.cfi_offset %rbp, -16
	movq	%rsp, %rbp
	.cfi_def_cfa_register %rbp
	movq	%rdi, -8(%rbp)
	movq	-8(%rbp), %rax
	popq	%rbp
	.cfi_def_cfa %rsp, 8
	retq
.Lfunc_end80:
	.size	_ZSt7forwardIRKiEOT_RNSt16remove_referenceIS2_E4typeE, .Lfunc_end80-_ZSt7forwardIRKiEOT_RNSt16remove_referenceIS2_E4typeE
	.cfi_endproc
                                        # -- End function
	.section	.text._ZNSt11_Tuple_implILm0EJRKiEE7_M_headERS2_,"axG",@progbits,_ZNSt11_Tuple_implILm0EJRKiEE7_M_headERS2_,comdat
	.weak	_ZNSt11_Tuple_implILm0EJRKiEE7_M_headERS2_ # -- Begin function _ZNSt11_Tuple_implILm0EJRKiEE7_M_headERS2_
	.p2align	4, 0x90
	.type	_ZNSt11_Tuple_implILm0EJRKiEE7_M_headERS2_,@function
_ZNSt11_Tuple_implILm0EJRKiEE7_M_headERS2_: # @_ZNSt11_Tuple_implILm0EJRKiEE7_M_headERS2_
	.cfi_startproc
# %bb.0:
	pushq	%rbp
	.cfi_def_cfa_offset 16
	.cfi_offset %rbp, -16
	movq	%rsp, %rbp
	.cfi_def_cfa_register %rbp
	subq	$16, %rsp
	movq	%rdi, -8(%rbp)
	movq	-8(%rbp), %rax
	movq	%rax, %rdi
	callq	_ZNSt10_Head_baseILm0ERKiLb0EE7_M_headERS2_
	addq	$16, %rsp
	popq	%rbp
	.cfi_def_cfa %rsp, 8
	retq
.Lfunc_end81:
	.size	_ZNSt11_Tuple_implILm0EJRKiEE7_M_headERS2_, .Lfunc_end81-_ZNSt11_Tuple_implILm0EJRKiEE7_M_headERS2_
	.cfi_endproc
                                        # -- End function
	.section	.text._ZNSt10_Head_baseILm0ERKiLb0EEC2ES1_,"axG",@progbits,_ZNSt10_Head_baseILm0ERKiLb0EEC2ES1_,comdat
	.weak	_ZNSt10_Head_baseILm0ERKiLb0EEC2ES1_ # -- Begin function _ZNSt10_Head_baseILm0ERKiLb0EEC2ES1_
	.p2align	4, 0x90
	.type	_ZNSt10_Head_baseILm0ERKiLb0EEC2ES1_,@function
_ZNSt10_Head_baseILm0ERKiLb0EEC2ES1_:   # @_ZNSt10_Head_baseILm0ERKiLb0EEC2ES1_
	.cfi_startproc
# %bb.0:
	pushq	%rbp
	.cfi_def_cfa_offset 16
	.cfi_offset %rbp, -16
	movq	%rsp, %rbp
	.cfi_def_cfa_register %rbp
	movq	%rdi, -8(%rbp)
	movq	%rsi, -16(%rbp)
	movq	-8(%rbp), %rax
	movq	-16(%rbp), %rcx
	movq	%rcx, (%rax)
	popq	%rbp
	.cfi_def_cfa %rsp, 8
	retq
.Lfunc_end82:
	.size	_ZNSt10_Head_baseILm0ERKiLb0EEC2ES1_, .Lfunc_end82-_ZNSt10_Head_baseILm0ERKiLb0EEC2ES1_
	.cfi_endproc
                                        # -- End function
	.section	.text._ZNSt10_Head_baseILm0ERKiLb0EE7_M_headERS2_,"axG",@progbits,_ZNSt10_Head_baseILm0ERKiLb0EE7_M_headERS2_,comdat
	.weak	_ZNSt10_Head_baseILm0ERKiLb0EE7_M_headERS2_ # -- Begin function _ZNSt10_Head_baseILm0ERKiLb0EE7_M_headERS2_
	.p2align	4, 0x90
	.type	_ZNSt10_Head_baseILm0ERKiLb0EE7_M_headERS2_,@function
_ZNSt10_Head_baseILm0ERKiLb0EE7_M_headERS2_: # @_ZNSt10_Head_baseILm0ERKiLb0EE7_M_headERS2_
	.cfi_startproc
# %bb.0:
	pushq	%rbp
	.cfi_def_cfa_offset 16
	.cfi_offset %rbp, -16
	movq	%rsp, %rbp
	.cfi_def_cfa_register %rbp
	movq	%rdi, -8(%rbp)
	movq	-8(%rbp), %rax
	movq	(%rax), %rax
	popq	%rbp
	.cfi_def_cfa %rsp, 8
	retq
.Lfunc_end83:
	.size	_ZNSt10_Head_baseILm0ERKiLb0EE7_M_headERS2_, .Lfunc_end83-_ZNSt10_Head_baseILm0ERKiLb0EE7_M_headERS2_
	.cfi_endproc
                                        # -- End function
	.section	.text._ZNSt4pairIKiSt6vectorIiSaIiEEEC2IJRS0_EJLm0EEJEJEEERSt5tupleIJDpT_EERS7_IJDpT1_EESt12_Index_tupleIJXspT0_EEESG_IJXspT2_EEE,"axG",@progbits,_ZNSt4pairIKiSt6vectorIiSaIiEEEC2IJRS0_EJLm0EEJEJEEERSt5tupleIJDpT_EERS7_IJDpT1_EESt12_Index_tupleIJXspT0_EEESG_IJXspT2_EEE,comdat
	.weak	_ZNSt4pairIKiSt6vectorIiSaIiEEEC2IJRS0_EJLm0EEJEJEEERSt5tupleIJDpT_EERS7_IJDpT1_EESt12_Index_tupleIJXspT0_EEESG_IJXspT2_EEE # -- Begin function _ZNSt4pairIKiSt6vectorIiSaIiEEEC2IJRS0_EJLm0EEJEJEEERSt5tupleIJDpT_EERS7_IJDpT1_EESt12_Index_tupleIJXspT0_EEESG_IJXspT2_EEE
	.p2align	4, 0x90
	.type	_ZNSt4pairIKiSt6vectorIiSaIiEEEC2IJRS0_EJLm0EEJEJEEERSt5tupleIJDpT_EERS7_IJDpT1_EESt12_Index_tupleIJXspT0_EEESG_IJXspT2_EEE,@function
_ZNSt4pairIKiSt6vectorIiSaIiEEEC2IJRS0_EJLm0EEJEJEEERSt5tupleIJDpT_EERS7_IJDpT1_EESt12_Index_tupleIJXspT0_EEESG_IJXspT2_EEE: # @_ZNSt4pairIKiSt6vectorIiSaIiEEEC2IJRS0_EJLm0EEJEJEEERSt5tupleIJDpT_EERS7_IJDpT1_EESt12_Index_tupleIJXspT0_EEESG_IJXspT2_EEE
	.cfi_startproc
# %bb.0:
	pushq	%rbp
	.cfi_def_cfa_offset 16
	.cfi_offset %rbp, -16
	movq	%rsp, %rbp
	.cfi_def_cfa_register %rbp
	subq	$64, %rsp
	movq	%rdi, -24(%rbp)
	movq	%rsi, -32(%rbp)
	movq	%rdx, -40(%rbp)
	movq	-24(%rbp), %rax
	movq	-32(%rbp), %rdi
	movq	%rax, -48(%rbp)         # 8-byte Spill
	callq	_ZSt3getILm0EJRKiEERNSt13tuple_elementIXT_ESt5tupleIJDpT0_EEE4typeERS6_
	movq	%rax, %rdi
	callq	_ZSt7forwardIRKiEOT_RNSt16remove_referenceIS2_E4typeE
	xorl	%esi, %esi
	movl	(%rax), %ecx
	movq	-48(%rbp), %rax         # 8-byte Reload
	movl	%ecx, (%rax)
	addq	$8, %rax
	movq	%rax, %rdx
	movq	%rdx, %rdi
	movl	$24, %edx
	movq	%rax, -56(%rbp)         # 8-byte Spill
	callq	memset
	movq	-56(%rbp), %rdi         # 8-byte Reload
	callq	_ZNSt6vectorIiSaIiEEC2Ev
	addq	$64, %rsp
	popq	%rbp
	.cfi_def_cfa %rsp, 8
	retq
.Lfunc_end84:
	.size	_ZNSt4pairIKiSt6vectorIiSaIiEEEC2IJRS0_EJLm0EEJEJEEERSt5tupleIJDpT_EERS7_IJDpT1_EESt12_Index_tupleIJXspT0_EEESG_IJXspT2_EEE, .Lfunc_end84-_ZNSt4pairIKiSt6vectorIiSaIiEEEC2IJRS0_EJLm0EEJEJEEERSt5tupleIJDpT_EERS7_IJDpT1_EESt12_Index_tupleIJXspT0_EEESG_IJXspT2_EEE
	.cfi_endproc
                                        # -- End function
	.section	.text._ZSt3getILm0EJRKiEERNSt13tuple_elementIXT_ESt5tupleIJDpT0_EEE4typeERS6_,"axG",@progbits,_ZSt3getILm0EJRKiEERNSt13tuple_elementIXT_ESt5tupleIJDpT0_EEE4typeERS6_,comdat
	.weak	_ZSt3getILm0EJRKiEERNSt13tuple_elementIXT_ESt5tupleIJDpT0_EEE4typeERS6_ # -- Begin function _ZSt3getILm0EJRKiEERNSt13tuple_elementIXT_ESt5tupleIJDpT0_EEE4typeERS6_
	.p2align	4, 0x90
	.type	_ZSt3getILm0EJRKiEERNSt13tuple_elementIXT_ESt5tupleIJDpT0_EEE4typeERS6_,@function
_ZSt3getILm0EJRKiEERNSt13tuple_elementIXT_ESt5tupleIJDpT0_EEE4typeERS6_: # @_ZSt3getILm0EJRKiEERNSt13tuple_elementIXT_ESt5tupleIJDpT0_EEE4typeERS6_
	.cfi_startproc
# %bb.0:
	pushq	%rbp
	.cfi_def_cfa_offset 16
	.cfi_offset %rbp, -16
	movq	%rsp, %rbp
	.cfi_def_cfa_register %rbp
	subq	$16, %rsp
	movq	%rdi, -8(%rbp)
	movq	-8(%rbp), %rax
	movq	%rax, %rdi
	callq	_ZSt12__get_helperILm0ERKiJEERT0_RSt11_Tuple_implIXT_EJS2_DpT1_EE
	addq	$16, %rsp
	popq	%rbp
	.cfi_def_cfa %rsp, 8
	retq
.Lfunc_end85:
	.size	_ZSt3getILm0EJRKiEERNSt13tuple_elementIXT_ESt5tupleIJDpT0_EEE4typeERS6_, .Lfunc_end85-_ZSt3getILm0EJRKiEERNSt13tuple_elementIXT_ESt5tupleIJDpT0_EEE4typeERS6_
	.cfi_endproc
                                        # -- End function
	.section	.text._ZNSt6vectorIiSaIiEEC2Ev,"axG",@progbits,_ZNSt6vectorIiSaIiEEC2Ev,comdat
	.weak	_ZNSt6vectorIiSaIiEEC2Ev # -- Begin function _ZNSt6vectorIiSaIiEEC2Ev
	.p2align	4, 0x90
	.type	_ZNSt6vectorIiSaIiEEC2Ev,@function
_ZNSt6vectorIiSaIiEEC2Ev:               # @_ZNSt6vectorIiSaIiEEC2Ev
	.cfi_startproc
# %bb.0:
	pushq	%rbp
	.cfi_def_cfa_offset 16
	.cfi_offset %rbp, -16
	movq	%rsp, %rbp
	.cfi_def_cfa_register %rbp
	subq	$16, %rsp
	movq	%rdi, -8(%rbp)
	movq	-8(%rbp), %rax
	movq	%rax, %rdi
	callq	_ZNSt12_Vector_baseIiSaIiEEC2Ev
	addq	$16, %rsp
	popq	%rbp
	.cfi_def_cfa %rsp, 8
	retq
.Lfunc_end86:
	.size	_ZNSt6vectorIiSaIiEEC2Ev, .Lfunc_end86-_ZNSt6vectorIiSaIiEEC2Ev
	.cfi_endproc
                                        # -- End function
	.section	.text._ZSt12__get_helperILm0ERKiJEERT0_RSt11_Tuple_implIXT_EJS2_DpT1_EE,"axG",@progbits,_ZSt12__get_helperILm0ERKiJEERT0_RSt11_Tuple_implIXT_EJS2_DpT1_EE,comdat
	.weak	_ZSt12__get_helperILm0ERKiJEERT0_RSt11_Tuple_implIXT_EJS2_DpT1_EE # -- Begin function _ZSt12__get_helperILm0ERKiJEERT0_RSt11_Tuple_implIXT_EJS2_DpT1_EE
	.p2align	4, 0x90
	.type	_ZSt12__get_helperILm0ERKiJEERT0_RSt11_Tuple_implIXT_EJS2_DpT1_EE,@function
_ZSt12__get_helperILm0ERKiJEERT0_RSt11_Tuple_implIXT_EJS2_DpT1_EE: # @_ZSt12__get_helperILm0ERKiJEERT0_RSt11_Tuple_implIXT_EJS2_DpT1_EE
	.cfi_startproc
# %bb.0:
	pushq	%rbp
	.cfi_def_cfa_offset 16
	.cfi_offset %rbp, -16
	movq	%rsp, %rbp
	.cfi_def_cfa_register %rbp
	subq	$16, %rsp
	movq	%rdi, -8(%rbp)
	movq	-8(%rbp), %rdi
	callq	_ZNSt11_Tuple_implILm0EJRKiEE7_M_headERS2_
	addq	$16, %rsp
	popq	%rbp
	.cfi_def_cfa %rsp, 8
	retq
.Lfunc_end87:
	.size	_ZSt12__get_helperILm0ERKiJEERT0_RSt11_Tuple_implIXT_EJS2_DpT1_EE, .Lfunc_end87-_ZSt12__get_helperILm0ERKiJEERT0_RSt11_Tuple_implIXT_EJS2_DpT1_EE
	.cfi_endproc
                                        # -- End function
	.section	.text._ZNSt12_Vector_baseIiSaIiEEC2Ev,"axG",@progbits,_ZNSt12_Vector_baseIiSaIiEEC2Ev,comdat
	.weak	_ZNSt12_Vector_baseIiSaIiEEC2Ev # -- Begin function _ZNSt12_Vector_baseIiSaIiEEC2Ev
	.p2align	4, 0x90
	.type	_ZNSt12_Vector_baseIiSaIiEEC2Ev,@function
_ZNSt12_Vector_baseIiSaIiEEC2Ev:        # @_ZNSt12_Vector_baseIiSaIiEEC2Ev
	.cfi_startproc
# %bb.0:
	pushq	%rbp
	.cfi_def_cfa_offset 16
	.cfi_offset %rbp, -16
	movq	%rsp, %rbp
	.cfi_def_cfa_register %rbp
	subq	$16, %rsp
	movq	%rdi, -8(%rbp)
	movq	-8(%rbp), %rdi
	callq	_ZNSt12_Vector_baseIiSaIiEE12_Vector_implC2Ev
	addq	$16, %rsp
	popq	%rbp
	.cfi_def_cfa %rsp, 8
	retq
.Lfunc_end88:
	.size	_ZNSt12_Vector_baseIiSaIiEEC2Ev, .Lfunc_end88-_ZNSt12_Vector_baseIiSaIiEEC2Ev
	.cfi_endproc
                                        # -- End function
	.section	.text._ZNSt12_Vector_baseIiSaIiEE12_Vector_implC2Ev,"axG",@progbits,_ZNSt12_Vector_baseIiSaIiEE12_Vector_implC2Ev,comdat
	.weak	_ZNSt12_Vector_baseIiSaIiEE12_Vector_implC2Ev # -- Begin function _ZNSt12_Vector_baseIiSaIiEE12_Vector_implC2Ev
	.p2align	4, 0x90
	.type	_ZNSt12_Vector_baseIiSaIiEE12_Vector_implC2Ev,@function
_ZNSt12_Vector_baseIiSaIiEE12_Vector_implC2Ev: # @_ZNSt12_Vector_baseIiSaIiEE12_Vector_implC2Ev
	.cfi_startproc
# %bb.0:
	pushq	%rbp
	.cfi_def_cfa_offset 16
	.cfi_offset %rbp, -16
	movq	%rsp, %rbp
	.cfi_def_cfa_register %rbp
	subq	$16, %rsp
	movq	%rdi, -8(%rbp)
	movq	-8(%rbp), %rax
	movq	%rax, %rcx
	movq	%rcx, %rdi
	movq	%rax, -16(%rbp)         # 8-byte Spill
	callq	_ZNSaIiEC2Ev
	movq	-16(%rbp), %rax         # 8-byte Reload
	movq	%rax, %rdi
	callq	_ZNSt12_Vector_baseIiSaIiEE17_Vector_impl_dataC2Ev
	addq	$16, %rsp
	popq	%rbp
	.cfi_def_cfa %rsp, 8
	retq
.Lfunc_end89:
	.size	_ZNSt12_Vector_baseIiSaIiEE12_Vector_implC2Ev, .Lfunc_end89-_ZNSt12_Vector_baseIiSaIiEE12_Vector_implC2Ev
	.cfi_endproc
                                        # -- End function
	.section	.text._ZNSaIiEC2Ev,"axG",@progbits,_ZNSaIiEC2Ev,comdat
	.weak	_ZNSaIiEC2Ev            # -- Begin function _ZNSaIiEC2Ev
	.p2align	4, 0x90
	.type	_ZNSaIiEC2Ev,@function
_ZNSaIiEC2Ev:                           # @_ZNSaIiEC2Ev
	.cfi_startproc
# %bb.0:
	pushq	%rbp
	.cfi_def_cfa_offset 16
	.cfi_offset %rbp, -16
	movq	%rsp, %rbp
	.cfi_def_cfa_register %rbp
	subq	$16, %rsp
	movq	%rdi, -8(%rbp)
	movq	-8(%rbp), %rax
	movq	%rax, %rdi
	callq	_ZN9__gnu_cxx13new_allocatorIiEC2Ev
	addq	$16, %rsp
	popq	%rbp
	.cfi_def_cfa %rsp, 8
	retq
.Lfunc_end90:
	.size	_ZNSaIiEC2Ev, .Lfunc_end90-_ZNSaIiEC2Ev
	.cfi_endproc
                                        # -- End function
	.section	.text._ZNSt12_Vector_baseIiSaIiEE17_Vector_impl_dataC2Ev,"axG",@progbits,_ZNSt12_Vector_baseIiSaIiEE17_Vector_impl_dataC2Ev,comdat
	.weak	_ZNSt12_Vector_baseIiSaIiEE17_Vector_impl_dataC2Ev # -- Begin function _ZNSt12_Vector_baseIiSaIiEE17_Vector_impl_dataC2Ev
	.p2align	4, 0x90
	.type	_ZNSt12_Vector_baseIiSaIiEE17_Vector_impl_dataC2Ev,@function
_ZNSt12_Vector_baseIiSaIiEE17_Vector_impl_dataC2Ev: # @_ZNSt12_Vector_baseIiSaIiEE17_Vector_impl_dataC2Ev
	.cfi_startproc
# %bb.0:
	pushq	%rbp
	.cfi_def_cfa_offset 16
	.cfi_offset %rbp, -16
	movq	%rsp, %rbp
	.cfi_def_cfa_register %rbp
	movq	%rdi, -8(%rbp)
	movq	-8(%rbp), %rax
	movq	$0, (%rax)
	movq	$0, 8(%rax)
	movq	$0, 16(%rax)
	popq	%rbp
	.cfi_def_cfa %rsp, 8
	retq
.Lfunc_end91:
	.size	_ZNSt12_Vector_baseIiSaIiEE17_Vector_impl_dataC2Ev, .Lfunc_end91-_ZNSt12_Vector_baseIiSaIiEE17_Vector_impl_dataC2Ev
	.cfi_endproc
                                        # -- End function
	.section	.text._ZN9__gnu_cxx13new_allocatorIiEC2Ev,"axG",@progbits,_ZN9__gnu_cxx13new_allocatorIiEC2Ev,comdat
	.weak	_ZN9__gnu_cxx13new_allocatorIiEC2Ev # -- Begin function _ZN9__gnu_cxx13new_allocatorIiEC2Ev
	.p2align	4, 0x90
	.type	_ZN9__gnu_cxx13new_allocatorIiEC2Ev,@function
_ZN9__gnu_cxx13new_allocatorIiEC2Ev:    # @_ZN9__gnu_cxx13new_allocatorIiEC2Ev
	.cfi_startproc
# %bb.0:
	pushq	%rbp
	.cfi_def_cfa_offset 16
	.cfi_offset %rbp, -16
	movq	%rsp, %rbp
	.cfi_def_cfa_register %rbp
	movq	%rdi, -8(%rbp)
	popq	%rbp
	.cfi_def_cfa %rsp, 8
	retq
.Lfunc_end92:
	.size	_ZN9__gnu_cxx13new_allocatorIiEC2Ev, .Lfunc_end92-_ZN9__gnu_cxx13new_allocatorIiEC2Ev
	.cfi_endproc
                                        # -- End function
	.section	.text._ZN9__gnu_cxx16__aligned_bufferISt4pairIKiSt6vectorIiSaIiEEEE6_M_ptrEv,"axG",@progbits,_ZN9__gnu_cxx16__aligned_bufferISt4pairIKiSt6vectorIiSaIiEEEE6_M_ptrEv,comdat
	.weak	_ZN9__gnu_cxx16__aligned_bufferISt4pairIKiSt6vectorIiSaIiEEEE6_M_ptrEv # -- Begin function _ZN9__gnu_cxx16__aligned_bufferISt4pairIKiSt6vectorIiSaIiEEEE6_M_ptrEv
	.p2align	4, 0x90
	.type	_ZN9__gnu_cxx16__aligned_bufferISt4pairIKiSt6vectorIiSaIiEEEE6_M_ptrEv,@function
_ZN9__gnu_cxx16__aligned_bufferISt4pairIKiSt6vectorIiSaIiEEEE6_M_ptrEv: # @_ZN9__gnu_cxx16__aligned_bufferISt4pairIKiSt6vectorIiSaIiEEEE6_M_ptrEv
	.cfi_startproc
# %bb.0:
	pushq	%rbp
	.cfi_def_cfa_offset 16
	.cfi_offset %rbp, -16
	movq	%rsp, %rbp
	.cfi_def_cfa_register %rbp
	subq	$16, %rsp
	movq	%rdi, -8(%rbp)
	movq	-8(%rbp), %rdi
	callq	_ZN9__gnu_cxx16__aligned_bufferISt4pairIKiSt6vectorIiSaIiEEEE7_M_addrEv
	addq	$16, %rsp
	popq	%rbp
	.cfi_def_cfa %rsp, 8
	retq
.Lfunc_end93:
	.size	_ZN9__gnu_cxx16__aligned_bufferISt4pairIKiSt6vectorIiSaIiEEEE6_M_ptrEv, .Lfunc_end93-_ZN9__gnu_cxx16__aligned_bufferISt4pairIKiSt6vectorIiSaIiEEEE6_M_ptrEv
	.cfi_endproc
                                        # -- End function
	.section	.text._ZN9__gnu_cxx16__aligned_bufferISt4pairIKiSt6vectorIiSaIiEEEE7_M_addrEv,"axG",@progbits,_ZN9__gnu_cxx16__aligned_bufferISt4pairIKiSt6vectorIiSaIiEEEE7_M_addrEv,comdat
	.weak	_ZN9__gnu_cxx16__aligned_bufferISt4pairIKiSt6vectorIiSaIiEEEE7_M_addrEv # -- Begin function _ZN9__gnu_cxx16__aligned_bufferISt4pairIKiSt6vectorIiSaIiEEEE7_M_addrEv
	.p2align	4, 0x90
	.type	_ZN9__gnu_cxx16__aligned_bufferISt4pairIKiSt6vectorIiSaIiEEEE7_M_addrEv,@function
_ZN9__gnu_cxx16__aligned_bufferISt4pairIKiSt6vectorIiSaIiEEEE7_M_addrEv: # @_ZN9__gnu_cxx16__aligned_bufferISt4pairIKiSt6vectorIiSaIiEEEE7_M_addrEv
	.cfi_startproc
# %bb.0:
	pushq	%rbp
	.cfi_def_cfa_offset 16
	.cfi_offset %rbp, -16
	movq	%rsp, %rbp
	.cfi_def_cfa_register %rbp
	movq	%rdi, -8(%rbp)
	movq	-8(%rbp), %rax
	popq	%rbp
	.cfi_def_cfa %rsp, 8
	retq
.Lfunc_end94:
	.size	_ZN9__gnu_cxx16__aligned_bufferISt4pairIKiSt6vectorIiSaIiEEEE7_M_addrEv, .Lfunc_end94-_ZN9__gnu_cxx16__aligned_bufferISt4pairIKiSt6vectorIiSaIiEEEE7_M_addrEv
	.cfi_endproc
                                        # -- End function
	.section	.text._ZN9__gnu_cxx13new_allocatorINSt8__detail10_Hash_nodeISt4pairIKiSt6vectorIiSaIiEEELb0EEEE10deallocateEPS9_m,"axG",@progbits,_ZN9__gnu_cxx13new_allocatorINSt8__detail10_Hash_nodeISt4pairIKiSt6vectorIiSaIiEEELb0EEEE10deallocateEPS9_m,comdat
	.weak	_ZN9__gnu_cxx13new_allocatorINSt8__detail10_Hash_nodeISt4pairIKiSt6vectorIiSaIiEEELb0EEEE10deallocateEPS9_m # -- Begin function _ZN9__gnu_cxx13new_allocatorINSt8__detail10_Hash_nodeISt4pairIKiSt6vectorIiSaIiEEELb0EEEE10deallocateEPS9_m
	.p2align	4, 0x90
	.type	_ZN9__gnu_cxx13new_allocatorINSt8__detail10_Hash_nodeISt4pairIKiSt6vectorIiSaIiEEELb0EEEE10deallocateEPS9_m,@function
_ZN9__gnu_cxx13new_allocatorINSt8__detail10_Hash_nodeISt4pairIKiSt6vectorIiSaIiEEELb0EEEE10deallocateEPS9_m: # @_ZN9__gnu_cxx13new_allocatorINSt8__detail10_Hash_nodeISt4pairIKiSt6vectorIiSaIiEEELb0EEEE10deallocateEPS9_m
	.cfi_startproc
# %bb.0:
	pushq	%rbp
	.cfi_def_cfa_offset 16
	.cfi_offset %rbp, -16
	movq	%rsp, %rbp
	.cfi_def_cfa_register %rbp
	subq	$32, %rsp
	movq	%rdi, -8(%rbp)
	movq	%rsi, -16(%rbp)
	movq	%rdx, -24(%rbp)
	movq	-16(%rbp), %rax
	movq	%rax, %rdi
	callq	_ZdlPv
	addq	$32, %rsp
	popq	%rbp
	.cfi_def_cfa %rsp, 8
	retq
.Lfunc_end95:
	.size	_ZN9__gnu_cxx13new_allocatorINSt8__detail10_Hash_nodeISt4pairIKiSt6vectorIiSaIiEEELb0EEEE10deallocateEPS9_m, .Lfunc_end95-_ZN9__gnu_cxx13new_allocatorINSt8__detail10_Hash_nodeISt4pairIKiSt6vectorIiSaIiEEELb0EEEE10deallocateEPS9_m
	.cfi_endproc
                                        # -- End function
	.section	.text._ZNSt11_Tuple_implILm0EJRKiEEC2ES1_,"axG",@progbits,_ZNSt11_Tuple_implILm0EJRKiEEC2ES1_,comdat
	.weak	_ZNSt11_Tuple_implILm0EJRKiEEC2ES1_ # -- Begin function _ZNSt11_Tuple_implILm0EJRKiEEC2ES1_
	.p2align	4, 0x90
	.type	_ZNSt11_Tuple_implILm0EJRKiEEC2ES1_,@function
_ZNSt11_Tuple_implILm0EJRKiEEC2ES1_:    # @_ZNSt11_Tuple_implILm0EJRKiEEC2ES1_
	.cfi_startproc
# %bb.0:
	pushq	%rbp
	.cfi_def_cfa_offset 16
	.cfi_offset %rbp, -16
	movq	%rsp, %rbp
	.cfi_def_cfa_register %rbp
	subq	$16, %rsp
	movq	%rdi, -8(%rbp)
	movq	%rsi, -16(%rbp)
	movq	-8(%rbp), %rax
	movq	-16(%rbp), %rsi
	movq	%rax, %rdi
	callq	_ZNSt10_Head_baseILm0ERKiLb0EEC2ES1_
	addq	$16, %rsp
	popq	%rbp
	.cfi_def_cfa %rsp, 8
	retq
.Lfunc_end96:
	.size	_ZNSt11_Tuple_implILm0EJRKiEEC2ES1_, .Lfunc_end96-_ZNSt11_Tuple_implILm0EJRKiEEC2ES1_
	.cfi_endproc
                                        # -- End function
	.section	.text._ZNKSt8__detail20_Prime_rehash_policy8_M_stateEv,"axG",@progbits,_ZNKSt8__detail20_Prime_rehash_policy8_M_stateEv,comdat
	.weak	_ZNKSt8__detail20_Prime_rehash_policy8_M_stateEv # -- Begin function _ZNKSt8__detail20_Prime_rehash_policy8_M_stateEv
	.p2align	4, 0x90
	.type	_ZNKSt8__detail20_Prime_rehash_policy8_M_stateEv,@function
_ZNKSt8__detail20_Prime_rehash_policy8_M_stateEv: # @_ZNKSt8__detail20_Prime_rehash_policy8_M_stateEv
	.cfi_startproc
# %bb.0:
	pushq	%rbp
	.cfi_def_cfa_offset 16
	.cfi_offset %rbp, -16
	movq	%rsp, %rbp
	.cfi_def_cfa_register %rbp
	movq	%rdi, -8(%rbp)
	movq	-8(%rbp), %rax
	movq	8(%rax), %rax
	popq	%rbp
	.cfi_def_cfa %rsp, 8
	retq
.Lfunc_end97:
	.size	_ZNKSt8__detail20_Prime_rehash_policy8_M_stateEv, .Lfunc_end97-_ZNKSt8__detail20_Prime_rehash_policy8_M_stateEv
	.cfi_endproc
                                        # -- End function
	.section	.text._ZNSt10_HashtableIiSt4pairIKiSt6vectorIiSaIiEEESaIS5_ENSt8__detail10_Select1stESt8equal_toIiESt4hashIiENS7_18_Mod_range_hashingENS7_20_Default_ranged_hashENS7_20_Prime_rehash_policyENS7_17_Hashtable_traitsILb0ELb0ELb1EEEE9_M_rehashEmRKm,"axG",@progbits,_ZNSt10_HashtableIiSt4pairIKiSt6vectorIiSaIiEEESaIS5_ENSt8__detail10_Select1stESt8equal_toIiESt4hashIiENS7_18_Mod_range_hashingENS7_20_Default_ranged_hashENS7_20_Prime_rehash_policyENS7_17_Hashtable_traitsILb0ELb0ELb1EEEE9_M_rehashEmRKm,comdat
	.weak	_ZNSt10_HashtableIiSt4pairIKiSt6vectorIiSaIiEEESaIS5_ENSt8__detail10_Select1stESt8equal_toIiESt4hashIiENS7_18_Mod_range_hashingENS7_20_Default_ranged_hashENS7_20_Prime_rehash_policyENS7_17_Hashtable_traitsILb0ELb0ELb1EEEE9_M_rehashEmRKm # -- Begin function _ZNSt10_HashtableIiSt4pairIKiSt6vectorIiSaIiEEESaIS5_ENSt8__detail10_Select1stESt8equal_toIiESt4hashIiENS7_18_Mod_range_hashingENS7_20_Default_ranged_hashENS7_20_Prime_rehash_policyENS7_17_Hashtable_traitsILb0ELb0ELb1EEEE9_M_rehashEmRKm
	.p2align	4, 0x90
	.type	_ZNSt10_HashtableIiSt4pairIKiSt6vectorIiSaIiEEESaIS5_ENSt8__detail10_Select1stESt8equal_toIiESt4hashIiENS7_18_Mod_range_hashingENS7_20_Default_ranged_hashENS7_20_Prime_rehash_policyENS7_17_Hashtable_traitsILb0ELb0ELb1EEEE9_M_rehashEmRKm,@function
_ZNSt10_HashtableIiSt4pairIKiSt6vectorIiSaIiEEESaIS5_ENSt8__detail10_Select1stESt8equal_toIiESt4hashIiENS7_18_Mod_range_hashingENS7_20_Default_ranged_hashENS7_20_Prime_rehash_policyENS7_17_Hashtable_traitsILb0ELb0ELb1EEEE9_M_rehashEmRKm: # @_ZNSt10_HashtableIiSt4pairIKiSt6vectorIiSaIiEEESaIS5_ENSt8__detail10_Select1stESt8equal_toIiESt4hashIiENS7_18_Mod_range_hashingENS7_20_Default_ranged_hashENS7_20_Prime_rehash_policyENS7_17_Hashtable_traitsILb0ELb0ELb1EEEE9_M_rehashEmRKm
.Lfunc_begin7:
	.cfi_startproc
	.cfi_personality 3, __gxx_personality_v0
	.cfi_lsda 3, .Lexception7
# %bb.0:
	pushq	%rbp
	.cfi_def_cfa_offset 16
	.cfi_offset %rbp, -16
	movq	%rsp, %rbp
	.cfi_def_cfa_register %rbp
	subq	$80, %rsp
	movq	%rdi, -8(%rbp)
	movq	%rsi, -16(%rbp)
	movq	%rdx, -24(%rbp)
	movq	-8(%rbp), %rax
	movq	-16(%rbp), %rsi
.Ltmp74:
	movq	%rax, %rdi
	movq	%rax, -56(%rbp)         # 8-byte Spill
	callq	_ZNSt10_HashtableIiSt4pairIKiSt6vectorIiSaIiEEESaIS5_ENSt8__detail10_Select1stESt8equal_toIiESt4hashIiENS7_18_Mod_range_hashingENS7_20_Default_ranged_hashENS7_20_Prime_rehash_policyENS7_17_Hashtable_traitsILb0ELb0ELb1EEEE13_M_rehash_auxEmSt17integral_constantIbLb1EE
.Ltmp75:
	jmp	.LBB98_1
.LBB98_1:
	jmp	.LBB98_7
.LBB98_2:
.Ltmp76:
                                        # kill: def $edx killed $edx killed $rdx
	movq	%rax, -40(%rbp)
	movl	%edx, -44(%rbp)
# %bb.3:
	movq	-40(%rbp), %rdi
	callq	__cxa_begin_catch
	movq	-56(%rbp), %rcx         # 8-byte Reload
	addq	$32, %rcx
	movq	-24(%rbp), %rdx
	movq	(%rdx), %rsi
.Ltmp77:
	movq	%rcx, %rdi
	movq	%rax, -64(%rbp)         # 8-byte Spill
	callq	_ZNSt8__detail20_Prime_rehash_policy8_M_resetEm
.Ltmp78:
	jmp	.LBB98_4
.LBB98_4:
.Ltmp79:
	callq	__cxa_rethrow
.Ltmp80:
	jmp	.LBB98_10
.LBB98_5:
.Ltmp81:
                                        # kill: def $edx killed $edx killed $rdx
	movq	%rax, -40(%rbp)
	movl	%edx, -44(%rbp)
.Ltmp82:
	callq	__cxa_end_catch
.Ltmp83:
	jmp	.LBB98_6
.LBB98_6:
	jmp	.LBB98_8
.LBB98_7:
	addq	$80, %rsp
	popq	%rbp
	.cfi_def_cfa %rsp, 8
	retq
.LBB98_8:
	.cfi_def_cfa %rbp, 16
	movq	-40(%rbp), %rdi
	callq	_Unwind_Resume
.LBB98_9:
.Ltmp84:
                                        # kill: def $edx killed $edx killed $rdx
	movq	%rax, %rdi
	movl	%edx, -68(%rbp)         # 4-byte Spill
	callq	__clang_call_terminate
.LBB98_10:
.Lfunc_end98:
	.size	_ZNSt10_HashtableIiSt4pairIKiSt6vectorIiSaIiEEESaIS5_ENSt8__detail10_Select1stESt8equal_toIiESt4hashIiENS7_18_Mod_range_hashingENS7_20_Default_ranged_hashENS7_20_Prime_rehash_policyENS7_17_Hashtable_traitsILb0ELb0ELb1EEEE9_M_rehashEmRKm, .Lfunc_end98-_ZNSt10_HashtableIiSt4pairIKiSt6vectorIiSaIiEEESaIS5_ENSt8__detail10_Select1stESt8equal_toIiESt4hashIiENS7_18_Mod_range_hashingENS7_20_Default_ranged_hashENS7_20_Prime_rehash_policyENS7_17_Hashtable_traitsILb0ELb0ELb1EEEE9_M_rehashEmRKm
	.cfi_endproc
	.section	.gcc_except_table,"a",@progbits
	.p2align	2
GCC_except_table98:
.Lexception7:
	.byte	255                     # @LPStart Encoding = omit
	.byte	3                       # @TType Encoding = udata4
	.uleb128 .Lttbase5-.Lttbaseref5
.Lttbaseref5:
	.byte	1                       # Call site Encoding = uleb128
	.uleb128 .Lcst_end7-.Lcst_begin7
.Lcst_begin7:
	.uleb128 .Ltmp74-.Lfunc_begin7  # >> Call Site 1 <<
	.uleb128 .Ltmp75-.Ltmp74        #   Call between .Ltmp74 and .Ltmp75
	.uleb128 .Ltmp76-.Lfunc_begin7  #     jumps to .Ltmp76
	.byte	1                       #   On action: 1
	.uleb128 .Ltmp75-.Lfunc_begin7  # >> Call Site 2 <<
	.uleb128 .Ltmp77-.Ltmp75        #   Call between .Ltmp75 and .Ltmp77
	.byte	0                       #     has no landing pad
	.byte	0                       #   On action: cleanup
	.uleb128 .Ltmp77-.Lfunc_begin7  # >> Call Site 3 <<
	.uleb128 .Ltmp80-.Ltmp77        #   Call between .Ltmp77 and .Ltmp80
	.uleb128 .Ltmp81-.Lfunc_begin7  #     jumps to .Ltmp81
	.byte	0                       #   On action: cleanup
	.uleb128 .Ltmp82-.Lfunc_begin7  # >> Call Site 4 <<
	.uleb128 .Ltmp83-.Ltmp82        #   Call between .Ltmp82 and .Ltmp83
	.uleb128 .Ltmp84-.Lfunc_begin7  #     jumps to .Ltmp84
	.byte	1                       #   On action: 1
	.uleb128 .Ltmp83-.Lfunc_begin7  # >> Call Site 5 <<
	.uleb128 .Lfunc_end98-.Ltmp83   #   Call between .Ltmp83 and .Lfunc_end98
	.byte	0                       #     has no landing pad
	.byte	0                       #   On action: cleanup
.Lcst_end7:
	.byte	1                       # >> Action Record 1 <<
                                        #   Catch TypeInfo 1
	.byte	0                       #   No further actions
	.p2align	2
                                        # >> Catch TypeInfos <<
	.long	0                       # TypeInfo 1
.Lttbase5:
	.p2align	2
                                        # -- End function
	.section	.text._ZNSt8__detail15_Hash_code_baseIiSt4pairIKiSt6vectorIiSaIiEEENS_10_Select1stESt4hashIiENS_18_Mod_range_hashingENS_20_Default_ranged_hashELb0EE10_M_extractEv,"axG",@progbits,_ZNSt8__detail15_Hash_code_baseIiSt4pairIKiSt6vectorIiSaIiEEENS_10_Select1stESt4hashIiENS_18_Mod_range_hashingENS_20_Default_ranged_hashELb0EE10_M_extractEv,comdat
	.weak	_ZNSt8__detail15_Hash_code_baseIiSt4pairIKiSt6vectorIiSaIiEEENS_10_Select1stESt4hashIiENS_18_Mod_range_hashingENS_20_Default_ranged_hashELb0EE10_M_extractEv # -- Begin function _ZNSt8__detail15_Hash_code_baseIiSt4pairIKiSt6vectorIiSaIiEEENS_10_Select1stESt4hashIiENS_18_Mod_range_hashingENS_20_Default_ranged_hashELb0EE10_M_extractEv
	.p2align	4, 0x90
	.type	_ZNSt8__detail15_Hash_code_baseIiSt4pairIKiSt6vectorIiSaIiEEENS_10_Select1stESt4hashIiENS_18_Mod_range_hashingENS_20_Default_ranged_hashELb0EE10_M_extractEv,@function
_ZNSt8__detail15_Hash_code_baseIiSt4pairIKiSt6vectorIiSaIiEEENS_10_Select1stESt4hashIiENS_18_Mod_range_hashingENS_20_Default_ranged_hashELb0EE10_M_extractEv: # @_ZNSt8__detail15_Hash_code_baseIiSt4pairIKiSt6vectorIiSaIiEEENS_10_Select1stESt4hashIiENS_18_Mod_range_hashingENS_20_Default_ranged_hashELb0EE10_M_extractEv
	.cfi_startproc
# %bb.0:
	pushq	%rbp
	.cfi_def_cfa_offset 16
	.cfi_offset %rbp, -16
	movq	%rsp, %rbp
	.cfi_def_cfa_register %rbp
	subq	$16, %rsp
	movq	%rdi, -8(%rbp)
	movq	-8(%rbp), %rax
	movq	%rax, %rdi
	callq	_ZNSt8__detail21_Hashtable_ebo_helperILi0ENS_10_Select1stELb1EE6_S_getERS2_
	addq	$16, %rsp
	popq	%rbp
	.cfi_def_cfa %rsp, 8
	retq
.Lfunc_end99:
	.size	_ZNSt8__detail15_Hash_code_baseIiSt4pairIKiSt6vectorIiSaIiEEENS_10_Select1stESt4hashIiENS_18_Mod_range_hashingENS_20_Default_ranged_hashELb0EE10_M_extractEv, .Lfunc_end99-_ZNSt8__detail15_Hash_code_baseIiSt4pairIKiSt6vectorIiSaIiEEENS_10_Select1stESt4hashIiENS_18_Mod_range_hashingENS_20_Default_ranged_hashELb0EE10_M_extractEv
	.cfi_endproc
                                        # -- End function
	.section	.text._ZNKSt8__detail15_Hash_code_baseIiSt4pairIKiSt6vectorIiSaIiEEENS_10_Select1stESt4hashIiENS_18_Mod_range_hashingENS_20_Default_ranged_hashELb0EE13_M_store_codeEPNS_10_Hash_nodeIS6_Lb0EEEm,"axG",@progbits,_ZNKSt8__detail15_Hash_code_baseIiSt4pairIKiSt6vectorIiSaIiEEENS_10_Select1stESt4hashIiENS_18_Mod_range_hashingENS_20_Default_ranged_hashELb0EE13_M_store_codeEPNS_10_Hash_nodeIS6_Lb0EEEm,comdat
	.weak	_ZNKSt8__detail15_Hash_code_baseIiSt4pairIKiSt6vectorIiSaIiEEENS_10_Select1stESt4hashIiENS_18_Mod_range_hashingENS_20_Default_ranged_hashELb0EE13_M_store_codeEPNS_10_Hash_nodeIS6_Lb0EEEm # -- Begin function _ZNKSt8__detail15_Hash_code_baseIiSt4pairIKiSt6vectorIiSaIiEEENS_10_Select1stESt4hashIiENS_18_Mod_range_hashingENS_20_Default_ranged_hashELb0EE13_M_store_codeEPNS_10_Hash_nodeIS6_Lb0EEEm
	.p2align	4, 0x90
	.type	_ZNKSt8__detail15_Hash_code_baseIiSt4pairIKiSt6vectorIiSaIiEEENS_10_Select1stESt4hashIiENS_18_Mod_range_hashingENS_20_Default_ranged_hashELb0EE13_M_store_codeEPNS_10_Hash_nodeIS6_Lb0EEEm,@function
_ZNKSt8__detail15_Hash_code_baseIiSt4pairIKiSt6vectorIiSaIiEEENS_10_Select1stESt4hashIiENS_18_Mod_range_hashingENS_20_Default_ranged_hashELb0EE13_M_store_codeEPNS_10_Hash_nodeIS6_Lb0EEEm: # @_ZNKSt8__detail15_Hash_code_baseIiSt4pairIKiSt6vectorIiSaIiEEENS_10_Select1stESt4hashIiENS_18_Mod_range_hashingENS_20_Default_ranged_hashELb0EE13_M_store_codeEPNS_10_Hash_nodeIS6_Lb0EEEm
	.cfi_startproc
# %bb.0:
	pushq	%rbp
	.cfi_def_cfa_offset 16
	.cfi_offset %rbp, -16
	movq	%rsp, %rbp
	.cfi_def_cfa_register %rbp
	movq	%rdi, -8(%rbp)
	movq	%rsi, -16(%rbp)
	movq	%rdx, -24(%rbp)
	popq	%rbp
	.cfi_def_cfa %rsp, 8
	retq
.Lfunc_end100:
	.size	_ZNKSt8__detail15_Hash_code_baseIiSt4pairIKiSt6vectorIiSaIiEEENS_10_Select1stESt4hashIiENS_18_Mod_range_hashingENS_20_Default_ranged_hashELb0EE13_M_store_codeEPNS_10_Hash_nodeIS6_Lb0EEEm, .Lfunc_end100-_ZNKSt8__detail15_Hash_code_baseIiSt4pairIKiSt6vectorIiSaIiEEENS_10_Select1stESt4hashIiENS_18_Mod_range_hashingENS_20_Default_ranged_hashELb0EE13_M_store_codeEPNS_10_Hash_nodeIS6_Lb0EEEm
	.cfi_endproc
                                        # -- End function
	.section	.text._ZNSt10_HashtableIiSt4pairIKiSt6vectorIiSaIiEEESaIS5_ENSt8__detail10_Select1stESt8equal_toIiESt4hashIiENS7_18_Mod_range_hashingENS7_20_Default_ranged_hashENS7_20_Prime_rehash_policyENS7_17_Hashtable_traitsILb0ELb0ELb1EEEE22_M_insert_bucket_beginEmPNS7_10_Hash_nodeIS5_Lb0EEE,"axG",@progbits,_ZNSt10_HashtableIiSt4pairIKiSt6vectorIiSaIiEEESaIS5_ENSt8__detail10_Select1stESt8equal_toIiESt4hashIiENS7_18_Mod_range_hashingENS7_20_Default_ranged_hashENS7_20_Prime_rehash_policyENS7_17_Hashtable_traitsILb0ELb0ELb1EEEE22_M_insert_bucket_beginEmPNS7_10_Hash_nodeIS5_Lb0EEE,comdat
	.weak	_ZNSt10_HashtableIiSt4pairIKiSt6vectorIiSaIiEEESaIS5_ENSt8__detail10_Select1stESt8equal_toIiESt4hashIiENS7_18_Mod_range_hashingENS7_20_Default_ranged_hashENS7_20_Prime_rehash_policyENS7_17_Hashtable_traitsILb0ELb0ELb1EEEE22_M_insert_bucket_beginEmPNS7_10_Hash_nodeIS5_Lb0EEE # -- Begin function _ZNSt10_HashtableIiSt4pairIKiSt6vectorIiSaIiEEESaIS5_ENSt8__detail10_Select1stESt8equal_toIiESt4hashIiENS7_18_Mod_range_hashingENS7_20_Default_ranged_hashENS7_20_Prime_rehash_policyENS7_17_Hashtable_traitsILb0ELb0ELb1EEEE22_M_insert_bucket_beginEmPNS7_10_Hash_nodeIS5_Lb0EEE
	.p2align	4, 0x90
	.type	_ZNSt10_HashtableIiSt4pairIKiSt6vectorIiSaIiEEESaIS5_ENSt8__detail10_Select1stESt8equal_toIiESt4hashIiENS7_18_Mod_range_hashingENS7_20_Default_ranged_hashENS7_20_Prime_rehash_policyENS7_17_Hashtable_traitsILb0ELb0ELb1EEEE22_M_insert_bucket_beginEmPNS7_10_Hash_nodeIS5_Lb0EEE,@function
_ZNSt10_HashtableIiSt4pairIKiSt6vectorIiSaIiEEESaIS5_ENSt8__detail10_Select1stESt8equal_toIiESt4hashIiENS7_18_Mod_range_hashingENS7_20_Default_ranged_hashENS7_20_Prime_rehash_policyENS7_17_Hashtable_traitsILb0ELb0ELb1EEEE22_M_insert_bucket_beginEmPNS7_10_Hash_nodeIS5_Lb0EEE: # @_ZNSt10_HashtableIiSt4pairIKiSt6vectorIiSaIiEEESaIS5_ENSt8__detail10_Select1stESt8equal_toIiESt4hashIiENS7_18_Mod_range_hashingENS7_20_Default_ranged_hashENS7_20_Prime_rehash_policyENS7_17_Hashtable_traitsILb0ELb0ELb1EEEE22_M_insert_bucket_beginEmPNS7_10_Hash_nodeIS5_Lb0EEE
	.cfi_startproc
# %bb.0:
	pushq	%rbp
	.cfi_def_cfa_offset 16
	.cfi_offset %rbp, -16
	movq	%rsp, %rbp
	.cfi_def_cfa_register %rbp
	subq	$48, %rsp
	movq	%rdi, -8(%rbp)
	movq	%rsi, -16(%rbp)
	movq	%rdx, -24(%rbp)
	movq	-8(%rbp), %rax
	movq	(%rax), %rcx
	movq	-16(%rbp), %rdx
	cmpq	$0, (%rcx,%rdx,8)
	movq	%rax, -32(%rbp)         # 8-byte Spill
	je	.LBB101_2
# %bb.1:
	movq	-32(%rbp), %rax         # 8-byte Reload
	movq	(%rax), %rcx
	movq	-16(%rbp), %rdx
	movq	(%rcx,%rdx,8), %rcx
	movq	(%rcx), %rcx
	movq	-24(%rbp), %rdx
	movq	%rcx, (%rdx)
	movq	-24(%rbp), %rcx
	movq	(%rax), %rdx
	movq	-16(%rbp), %rsi
	movq	(%rdx,%rsi,8), %rdx
	movq	%rcx, (%rdx)
	jmp	.LBB101_5
.LBB101_2:
	movq	-32(%rbp), %rax         # 8-byte Reload
	movq	16(%rax), %rcx
	movq	-24(%rbp), %rdx
	movq	%rcx, (%rdx)
	movq	-24(%rbp), %rcx
	movq	%rcx, 16(%rax)
	movq	-24(%rbp), %rcx
	cmpq	$0, (%rcx)
	je	.LBB101_4
# %bb.3:
	movq	-24(%rbp), %rax
	movq	-32(%rbp), %rcx         # 8-byte Reload
	movq	(%rcx), %rdx
	movq	-24(%rbp), %rdi
	movq	%rax, -40(%rbp)         # 8-byte Spill
	movq	%rdx, -48(%rbp)         # 8-byte Spill
	callq	_ZNKSt8__detail10_Hash_nodeISt4pairIKiSt6vectorIiSaIiEEELb0EE7_M_nextEv
	movq	-32(%rbp), %rdi         # 8-byte Reload
	movq	%rax, %rsi
	callq	_ZNKSt10_HashtableIiSt4pairIKiSt6vectorIiSaIiEEESaIS5_ENSt8__detail10_Select1stESt8equal_toIiESt4hashIiENS7_18_Mod_range_hashingENS7_20_Default_ranged_hashENS7_20_Prime_rehash_policyENS7_17_Hashtable_traitsILb0ELb0ELb1EEEE15_M_bucket_indexEPNS7_10_Hash_nodeIS5_Lb0EEE
	movq	-48(%rbp), %rcx         # 8-byte Reload
	movq	-40(%rbp), %rdx         # 8-byte Reload
	movq	%rdx, (%rcx,%rax,8)
.LBB101_4:
	movq	-32(%rbp), %rax         # 8-byte Reload
	addq	$16, %rax
	movq	-32(%rbp), %rcx         # 8-byte Reload
	movq	(%rcx), %rdx
	movq	-16(%rbp), %rsi
	movq	%rax, (%rdx,%rsi,8)
.LBB101_5:
	addq	$48, %rsp
	popq	%rbp
	.cfi_def_cfa %rsp, 8
	retq
.Lfunc_end101:
	.size	_ZNSt10_HashtableIiSt4pairIKiSt6vectorIiSaIiEEESaIS5_ENSt8__detail10_Select1stESt8equal_toIiESt4hashIiENS7_18_Mod_range_hashingENS7_20_Default_ranged_hashENS7_20_Prime_rehash_policyENS7_17_Hashtable_traitsILb0ELb0ELb1EEEE22_M_insert_bucket_beginEmPNS7_10_Hash_nodeIS5_Lb0EEE, .Lfunc_end101-_ZNSt10_HashtableIiSt4pairIKiSt6vectorIiSaIiEEESaIS5_ENSt8__detail10_Select1stESt8equal_toIiESt4hashIiENS7_18_Mod_range_hashingENS7_20_Default_ranged_hashENS7_20_Prime_rehash_policyENS7_17_Hashtable_traitsILb0ELb0ELb1EEEE22_M_insert_bucket_beginEmPNS7_10_Hash_nodeIS5_Lb0EEE
	.cfi_endproc
                                        # -- End function
	.section	.text._ZNSt8__detail14_Node_iteratorISt4pairIKiSt6vectorIiSaIiEEELb0ELb0EEC2EPNS_10_Hash_nodeIS6_Lb0EEE,"axG",@progbits,_ZNSt8__detail14_Node_iteratorISt4pairIKiSt6vectorIiSaIiEEELb0ELb0EEC2EPNS_10_Hash_nodeIS6_Lb0EEE,comdat
	.weak	_ZNSt8__detail14_Node_iteratorISt4pairIKiSt6vectorIiSaIiEEELb0ELb0EEC2EPNS_10_Hash_nodeIS6_Lb0EEE # -- Begin function _ZNSt8__detail14_Node_iteratorISt4pairIKiSt6vectorIiSaIiEEELb0ELb0EEC2EPNS_10_Hash_nodeIS6_Lb0EEE
	.p2align	4, 0x90
	.type	_ZNSt8__detail14_Node_iteratorISt4pairIKiSt6vectorIiSaIiEEELb0ELb0EEC2EPNS_10_Hash_nodeIS6_Lb0EEE,@function
_ZNSt8__detail14_Node_iteratorISt4pairIKiSt6vectorIiSaIiEEELb0ELb0EEC2EPNS_10_Hash_nodeIS6_Lb0EEE: # @_ZNSt8__detail14_Node_iteratorISt4pairIKiSt6vectorIiSaIiEEELb0ELb0EEC2EPNS_10_Hash_nodeIS6_Lb0EEE
	.cfi_startproc
# %bb.0:
	pushq	%rbp
	.cfi_def_cfa_offset 16
	.cfi_offset %rbp, -16
	movq	%rsp, %rbp
	.cfi_def_cfa_register %rbp
	subq	$16, %rsp
	movq	%rdi, -8(%rbp)
	movq	%rsi, -16(%rbp)
	movq	-8(%rbp), %rax
	movq	-16(%rbp), %rsi
	movq	%rax, %rdi
	callq	_ZNSt8__detail19_Node_iterator_baseISt4pairIKiSt6vectorIiSaIiEEELb0EEC2EPNS_10_Hash_nodeIS6_Lb0EEE
	addq	$16, %rsp
	popq	%rbp
	.cfi_def_cfa %rsp, 8
	retq
.Lfunc_end102:
	.size	_ZNSt8__detail14_Node_iteratorISt4pairIKiSt6vectorIiSaIiEEELb0ELb0EEC2EPNS_10_Hash_nodeIS6_Lb0EEE, .Lfunc_end102-_ZNSt8__detail14_Node_iteratorISt4pairIKiSt6vectorIiSaIiEEELb0ELb0EEC2EPNS_10_Hash_nodeIS6_Lb0EEE
	.cfi_endproc
                                        # -- End function
	.section	.text._ZNSt8__detail16_Hashtable_allocISaINS_10_Hash_nodeISt4pairIKiSt6vectorIiSaIiEEELb0EEEEE18_M_deallocate_nodeEPS8_,"axG",@progbits,_ZNSt8__detail16_Hashtable_allocISaINS_10_Hash_nodeISt4pairIKiSt6vectorIiSaIiEEELb0EEEEE18_M_deallocate_nodeEPS8_,comdat
	.weak	_ZNSt8__detail16_Hashtable_allocISaINS_10_Hash_nodeISt4pairIKiSt6vectorIiSaIiEEELb0EEEEE18_M_deallocate_nodeEPS8_ # -- Begin function _ZNSt8__detail16_Hashtable_allocISaINS_10_Hash_nodeISt4pairIKiSt6vectorIiSaIiEEELb0EEEEE18_M_deallocate_nodeEPS8_
	.p2align	4, 0x90
	.type	_ZNSt8__detail16_Hashtable_allocISaINS_10_Hash_nodeISt4pairIKiSt6vectorIiSaIiEEELb0EEEEE18_M_deallocate_nodeEPS8_,@function
_ZNSt8__detail16_Hashtable_allocISaINS_10_Hash_nodeISt4pairIKiSt6vectorIiSaIiEEELb0EEEEE18_M_deallocate_nodeEPS8_: # @_ZNSt8__detail16_Hashtable_allocISaINS_10_Hash_nodeISt4pairIKiSt6vectorIiSaIiEEELb0EEEEE18_M_deallocate_nodeEPS8_
	.cfi_startproc
# %bb.0:
	pushq	%rbp
	.cfi_def_cfa_offset 16
	.cfi_offset %rbp, -16
	movq	%rsp, %rbp
	.cfi_def_cfa_register %rbp
	subq	$32, %rsp
	movq	%rdi, -8(%rbp)
	movq	%rsi, -16(%rbp)
	movq	-8(%rbp), %rax
	movq	%rax, %rdi
	movq	%rax, -24(%rbp)         # 8-byte Spill
	callq	_ZNSt8__detail16_Hashtable_allocISaINS_10_Hash_nodeISt4pairIKiSt6vectorIiSaIiEEELb0EEEEE17_M_node_allocatorEv
	movq	-16(%rbp), %rcx
	movq	%rcx, %rdi
	movq	%rax, -32(%rbp)         # 8-byte Spill
	callq	_ZNSt8__detail21_Hash_node_value_baseISt4pairIKiSt6vectorIiSaIiEEEE9_M_valptrEv
	movq	-32(%rbp), %rdi         # 8-byte Reload
	movq	%rax, %rsi
	callq	_ZNSt16allocator_traitsISaINSt8__detail10_Hash_nodeISt4pairIKiSt6vectorIiSaIiEEELb0EEEEE7destroyIS7_EEvRS9_PT_
	movq	-16(%rbp), %rsi
	movq	-24(%rbp), %rdi         # 8-byte Reload
	callq	_ZNSt8__detail16_Hashtable_allocISaINS_10_Hash_nodeISt4pairIKiSt6vectorIiSaIiEEELb0EEEEE22_M_deallocate_node_ptrEPS8_
	addq	$32, %rsp
	popq	%rbp
	.cfi_def_cfa %rsp, 8
	retq
.Lfunc_end103:
	.size	_ZNSt8__detail16_Hashtable_allocISaINS_10_Hash_nodeISt4pairIKiSt6vectorIiSaIiEEELb0EEEEE18_M_deallocate_nodeEPS8_, .Lfunc_end103-_ZNSt8__detail16_Hashtable_allocISaINS_10_Hash_nodeISt4pairIKiSt6vectorIiSaIiEEELb0EEEEE18_M_deallocate_nodeEPS8_
	.cfi_endproc
                                        # -- End function
	.section	.text._ZNSt10_HashtableIiSt4pairIKiSt6vectorIiSaIiEEESaIS5_ENSt8__detail10_Select1stESt8equal_toIiESt4hashIiENS7_18_Mod_range_hashingENS7_20_Default_ranged_hashENS7_20_Prime_rehash_policyENS7_17_Hashtable_traitsILb0ELb0ELb1EEEE13_M_rehash_auxEmSt17integral_constantIbLb1EE,"axG",@progbits,_ZNSt10_HashtableIiSt4pairIKiSt6vectorIiSaIiEEESaIS5_ENSt8__detail10_Select1stESt8equal_toIiESt4hashIiENS7_18_Mod_range_hashingENS7_20_Default_ranged_hashENS7_20_Prime_rehash_policyENS7_17_Hashtable_traitsILb0ELb0ELb1EEEE13_M_rehash_auxEmSt17integral_constantIbLb1EE,comdat
	.weak	_ZNSt10_HashtableIiSt4pairIKiSt6vectorIiSaIiEEESaIS5_ENSt8__detail10_Select1stESt8equal_toIiESt4hashIiENS7_18_Mod_range_hashingENS7_20_Default_ranged_hashENS7_20_Prime_rehash_policyENS7_17_Hashtable_traitsILb0ELb0ELb1EEEE13_M_rehash_auxEmSt17integral_constantIbLb1EE # -- Begin function _ZNSt10_HashtableIiSt4pairIKiSt6vectorIiSaIiEEESaIS5_ENSt8__detail10_Select1stESt8equal_toIiESt4hashIiENS7_18_Mod_range_hashingENS7_20_Default_ranged_hashENS7_20_Prime_rehash_policyENS7_17_Hashtable_traitsILb0ELb0ELb1EEEE13_M_rehash_auxEmSt17integral_constantIbLb1EE
	.p2align	4, 0x90
	.type	_ZNSt10_HashtableIiSt4pairIKiSt6vectorIiSaIiEEESaIS5_ENSt8__detail10_Select1stESt8equal_toIiESt4hashIiENS7_18_Mod_range_hashingENS7_20_Default_ranged_hashENS7_20_Prime_rehash_policyENS7_17_Hashtable_traitsILb0ELb0ELb1EEEE13_M_rehash_auxEmSt17integral_constantIbLb1EE,@function
_ZNSt10_HashtableIiSt4pairIKiSt6vectorIiSaIiEEESaIS5_ENSt8__detail10_Select1stESt8equal_toIiESt4hashIiENS7_18_Mod_range_hashingENS7_20_Default_ranged_hashENS7_20_Prime_rehash_policyENS7_17_Hashtable_traitsILb0ELb0ELb1EEEE13_M_rehash_auxEmSt17integral_constantIbLb1EE: # @_ZNSt10_HashtableIiSt4pairIKiSt6vectorIiSaIiEEESaIS5_ENSt8__detail10_Select1stESt8equal_toIiESt4hashIiENS7_18_Mod_range_hashingENS7_20_Default_ranged_hashENS7_20_Prime_rehash_policyENS7_17_Hashtable_traitsILb0ELb0ELb1EEEE13_M_rehash_auxEmSt17integral_constantIbLb1EE
	.cfi_startproc
# %bb.0:
	pushq	%rbp
	.cfi_def_cfa_offset 16
	.cfi_offset %rbp, -16
	movq	%rsp, %rbp
	.cfi_def_cfa_register %rbp
	subq	$80, %rsp
	movq	%rdi, -16(%rbp)
	movq	%rsi, -24(%rbp)
	movq	-16(%rbp), %rax
	movq	-24(%rbp), %rsi
	movq	%rax, %rdi
	movq	%rax, -72(%rbp)         # 8-byte Spill
	callq	_ZNSt10_HashtableIiSt4pairIKiSt6vectorIiSaIiEEESaIS5_ENSt8__detail10_Select1stESt8equal_toIiESt4hashIiENS7_18_Mod_range_hashingENS7_20_Default_ranged_hashENS7_20_Prime_rehash_policyENS7_17_Hashtable_traitsILb0ELb0ELb1EEEE19_M_allocate_bucketsEm
	movq	%rax, -32(%rbp)
	movq	-72(%rbp), %rdi         # 8-byte Reload
	callq	_ZNKSt10_HashtableIiSt4pairIKiSt6vectorIiSaIiEEESaIS5_ENSt8__detail10_Select1stESt8equal_toIiESt4hashIiENS7_18_Mod_range_hashingENS7_20_Default_ranged_hashENS7_20_Prime_rehash_policyENS7_17_Hashtable_traitsILb0ELb0ELb1EEEE8_M_beginEv
	movq	%rax, -40(%rbp)
	movq	-72(%rbp), %rax         # 8-byte Reload
	movq	$0, 16(%rax)
	movq	$0, -48(%rbp)
.LBB104_1:                              # =>This Inner Loop Header: Depth=1
	cmpq	$0, -40(%rbp)
	je	.LBB104_8
# %bb.2:                                #   in Loop: Header=BB104_1 Depth=1
	movq	-40(%rbp), %rdi
	callq	_ZNKSt8__detail10_Hash_nodeISt4pairIKiSt6vectorIiSaIiEEELb0EE7_M_nextEv
	movq	%rax, -56(%rbp)
	movq	-72(%rbp), %rax         # 8-byte Reload
	movq	-40(%rbp), %rsi
	movq	-24(%rbp), %rdx
	movq	%rax, %rdi
	callq	_ZNKSt8__detail15_Hash_code_baseIiSt4pairIKiSt6vectorIiSaIiEEENS_10_Select1stESt4hashIiENS_18_Mod_range_hashingENS_20_Default_ranged_hashELb0EE15_M_bucket_indexEPKNS_10_Hash_nodeIS6_Lb0EEEm
	movq	%rax, -64(%rbp)
	movq	-32(%rbp), %rax
	movq	-64(%rbp), %rcx
	cmpq	$0, (%rax,%rcx,8)
	jne	.LBB104_6
# %bb.3:                                #   in Loop: Header=BB104_1 Depth=1
	movq	-72(%rbp), %rax         # 8-byte Reload
	movq	16(%rax), %rcx
	movq	-40(%rbp), %rdx
	movq	%rcx, (%rdx)
	movq	-40(%rbp), %rcx
	movq	%rcx, 16(%rax)
	addq	$16, %rax
	movq	-32(%rbp), %rcx
	movq	-64(%rbp), %rdx
	movq	%rax, (%rcx,%rdx,8)
	movq	-40(%rbp), %rax
	cmpq	$0, (%rax)
	je	.LBB104_5
# %bb.4:                                #   in Loop: Header=BB104_1 Depth=1
	movq	-40(%rbp), %rax
	movq	-32(%rbp), %rcx
	movq	-48(%rbp), %rdx
	movq	%rax, (%rcx,%rdx,8)
.LBB104_5:                              #   in Loop: Header=BB104_1 Depth=1
	movq	-64(%rbp), %rax
	movq	%rax, -48(%rbp)
	jmp	.LBB104_7
.LBB104_6:                              #   in Loop: Header=BB104_1 Depth=1
	movq	-32(%rbp), %rax
	movq	-64(%rbp), %rcx
	movq	(%rax,%rcx,8), %rax
	movq	(%rax), %rax
	movq	-40(%rbp), %rcx
	movq	%rax, (%rcx)
	movq	-40(%rbp), %rax
	movq	-32(%rbp), %rcx
	movq	-64(%rbp), %rdx
	movq	(%rcx,%rdx,8), %rcx
	movq	%rax, (%rcx)
.LBB104_7:                              #   in Loop: Header=BB104_1 Depth=1
	movq	-56(%rbp), %rax
	movq	%rax, -40(%rbp)
	jmp	.LBB104_1
.LBB104_8:
	movq	-72(%rbp), %rdi         # 8-byte Reload
	callq	_ZNSt10_HashtableIiSt4pairIKiSt6vectorIiSaIiEEESaIS5_ENSt8__detail10_Select1stESt8equal_toIiESt4hashIiENS7_18_Mod_range_hashingENS7_20_Default_ranged_hashENS7_20_Prime_rehash_policyENS7_17_Hashtable_traitsILb0ELb0ELb1EEEE21_M_deallocate_bucketsEv
	movq	-24(%rbp), %rax
	movq	-72(%rbp), %rcx         # 8-byte Reload
	movq	%rax, 8(%rcx)
	movq	-32(%rbp), %rax
	movq	%rax, (%rcx)
	addq	$80, %rsp
	popq	%rbp
	.cfi_def_cfa %rsp, 8
	retq
.Lfunc_end104:
	.size	_ZNSt10_HashtableIiSt4pairIKiSt6vectorIiSaIiEEESaIS5_ENSt8__detail10_Select1stESt8equal_toIiESt4hashIiENS7_18_Mod_range_hashingENS7_20_Default_ranged_hashENS7_20_Prime_rehash_policyENS7_17_Hashtable_traitsILb0ELb0ELb1EEEE13_M_rehash_auxEmSt17integral_constantIbLb1EE, .Lfunc_end104-_ZNSt10_HashtableIiSt4pairIKiSt6vectorIiSaIiEEESaIS5_ENSt8__detail10_Select1stESt8equal_toIiESt4hashIiENS7_18_Mod_range_hashingENS7_20_Default_ranged_hashENS7_20_Prime_rehash_policyENS7_17_Hashtable_traitsILb0ELb0ELb1EEEE13_M_rehash_auxEmSt17integral_constantIbLb1EE
	.cfi_endproc
                                        # -- End function
	.section	.text._ZNSt8__detail20_Prime_rehash_policy8_M_resetEm,"axG",@progbits,_ZNSt8__detail20_Prime_rehash_policy8_M_resetEm,comdat
	.weak	_ZNSt8__detail20_Prime_rehash_policy8_M_resetEm # -- Begin function _ZNSt8__detail20_Prime_rehash_policy8_M_resetEm
	.p2align	4, 0x90
	.type	_ZNSt8__detail20_Prime_rehash_policy8_M_resetEm,@function
_ZNSt8__detail20_Prime_rehash_policy8_M_resetEm: # @_ZNSt8__detail20_Prime_rehash_policy8_M_resetEm
	.cfi_startproc
# %bb.0:
	pushq	%rbp
	.cfi_def_cfa_offset 16
	.cfi_offset %rbp, -16
	movq	%rsp, %rbp
	.cfi_def_cfa_register %rbp
	movq	%rdi, -8(%rbp)
	movq	%rsi, -16(%rbp)
	movq	-8(%rbp), %rax
	movq	-16(%rbp), %rcx
	movq	%rcx, 8(%rax)
	popq	%rbp
	.cfi_def_cfa %rsp, 8
	retq
.Lfunc_end105:
	.size	_ZNSt8__detail20_Prime_rehash_policy8_M_resetEm, .Lfunc_end105-_ZNSt8__detail20_Prime_rehash_policy8_M_resetEm
	.cfi_endproc
                                        # -- End function
	.section	.text._ZNSt10_HashtableIiSt4pairIKiSt6vectorIiSaIiEEESaIS5_ENSt8__detail10_Select1stESt8equal_toIiESt4hashIiENS7_18_Mod_range_hashingENS7_20_Default_ranged_hashENS7_20_Prime_rehash_policyENS7_17_Hashtable_traitsILb0ELb0ELb1EEEE19_M_allocate_bucketsEm,"axG",@progbits,_ZNSt10_HashtableIiSt4pairIKiSt6vectorIiSaIiEEESaIS5_ENSt8__detail10_Select1stESt8equal_toIiESt4hashIiENS7_18_Mod_range_hashingENS7_20_Default_ranged_hashENS7_20_Prime_rehash_policyENS7_17_Hashtable_traitsILb0ELb0ELb1EEEE19_M_allocate_bucketsEm,comdat
	.weak	_ZNSt10_HashtableIiSt4pairIKiSt6vectorIiSaIiEEESaIS5_ENSt8__detail10_Select1stESt8equal_toIiESt4hashIiENS7_18_Mod_range_hashingENS7_20_Default_ranged_hashENS7_20_Prime_rehash_policyENS7_17_Hashtable_traitsILb0ELb0ELb1EEEE19_M_allocate_bucketsEm # -- Begin function _ZNSt10_HashtableIiSt4pairIKiSt6vectorIiSaIiEEESaIS5_ENSt8__detail10_Select1stESt8equal_toIiESt4hashIiENS7_18_Mod_range_hashingENS7_20_Default_ranged_hashENS7_20_Prime_rehash_policyENS7_17_Hashtable_traitsILb0ELb0ELb1EEEE19_M_allocate_bucketsEm
	.p2align	4, 0x90
	.type	_ZNSt10_HashtableIiSt4pairIKiSt6vectorIiSaIiEEESaIS5_ENSt8__detail10_Select1stESt8equal_toIiESt4hashIiENS7_18_Mod_range_hashingENS7_20_Default_ranged_hashENS7_20_Prime_rehash_policyENS7_17_Hashtable_traitsILb0ELb0ELb1EEEE19_M_allocate_bucketsEm,@function
_ZNSt10_HashtableIiSt4pairIKiSt6vectorIiSaIiEEESaIS5_ENSt8__detail10_Select1stESt8equal_toIiESt4hashIiENS7_18_Mod_range_hashingENS7_20_Default_ranged_hashENS7_20_Prime_rehash_policyENS7_17_Hashtable_traitsILb0ELb0ELb1EEEE19_M_allocate_bucketsEm: # @_ZNSt10_HashtableIiSt4pairIKiSt6vectorIiSaIiEEESaIS5_ENSt8__detail10_Select1stESt8equal_toIiESt4hashIiENS7_18_Mod_range_hashingENS7_20_Default_ranged_hashENS7_20_Prime_rehash_policyENS7_17_Hashtable_traitsILb0ELb0ELb1EEEE19_M_allocate_bucketsEm
	.cfi_startproc
# %bb.0:
	pushq	%rbp
	.cfi_def_cfa_offset 16
	.cfi_offset %rbp, -16
	movq	%rsp, %rbp
	.cfi_def_cfa_register %rbp
	subq	$32, %rsp
	movq	%rdi, -16(%rbp)
	movq	%rsi, -24(%rbp)
	movq	-16(%rbp), %rax
	cmpq	$1, -24(%rbp)
	movq	%rax, -32(%rbp)         # 8-byte Spill
	jne	.LBB106_2
# %bb.1:
	movq	-32(%rbp), %rax         # 8-byte Reload
	movq	$0, 48(%rax)
	addq	$48, %rax
	movq	%rax, -8(%rbp)
	jmp	.LBB106_3
.LBB106_2:
	movq	-32(%rbp), %rax         # 8-byte Reload
	movq	-24(%rbp), %rsi
	movq	%rax, %rdi
	callq	_ZNSt8__detail16_Hashtable_allocISaINS_10_Hash_nodeISt4pairIKiSt6vectorIiSaIiEEELb0EEEEE19_M_allocate_bucketsEm
	movq	%rax, -8(%rbp)
.LBB106_3:
	movq	-8(%rbp), %rax
	addq	$32, %rsp
	popq	%rbp
	.cfi_def_cfa %rsp, 8
	retq
.Lfunc_end106:
	.size	_ZNSt10_HashtableIiSt4pairIKiSt6vectorIiSaIiEEESaIS5_ENSt8__detail10_Select1stESt8equal_toIiESt4hashIiENS7_18_Mod_range_hashingENS7_20_Default_ranged_hashENS7_20_Prime_rehash_policyENS7_17_Hashtable_traitsILb0ELb0ELb1EEEE19_M_allocate_bucketsEm, .Lfunc_end106-_ZNSt10_HashtableIiSt4pairIKiSt6vectorIiSaIiEEESaIS5_ENSt8__detail10_Select1stESt8equal_toIiESt4hashIiENS7_18_Mod_range_hashingENS7_20_Default_ranged_hashENS7_20_Prime_rehash_policyENS7_17_Hashtable_traitsILb0ELb0ELb1EEEE19_M_allocate_bucketsEm
	.cfi_endproc
                                        # -- End function
	.section	.text._ZNKSt10_HashtableIiSt4pairIKiSt6vectorIiSaIiEEESaIS5_ENSt8__detail10_Select1stESt8equal_toIiESt4hashIiENS7_18_Mod_range_hashingENS7_20_Default_ranged_hashENS7_20_Prime_rehash_policyENS7_17_Hashtable_traitsILb0ELb0ELb1EEEE8_M_beginEv,"axG",@progbits,_ZNKSt10_HashtableIiSt4pairIKiSt6vectorIiSaIiEEESaIS5_ENSt8__detail10_Select1stESt8equal_toIiESt4hashIiENS7_18_Mod_range_hashingENS7_20_Default_ranged_hashENS7_20_Prime_rehash_policyENS7_17_Hashtable_traitsILb0ELb0ELb1EEEE8_M_beginEv,comdat
	.weak	_ZNKSt10_HashtableIiSt4pairIKiSt6vectorIiSaIiEEESaIS5_ENSt8__detail10_Select1stESt8equal_toIiESt4hashIiENS7_18_Mod_range_hashingENS7_20_Default_ranged_hashENS7_20_Prime_rehash_policyENS7_17_Hashtable_traitsILb0ELb0ELb1EEEE8_M_beginEv # -- Begin function _ZNKSt10_HashtableIiSt4pairIKiSt6vectorIiSaIiEEESaIS5_ENSt8__detail10_Select1stESt8equal_toIiESt4hashIiENS7_18_Mod_range_hashingENS7_20_Default_ranged_hashENS7_20_Prime_rehash_policyENS7_17_Hashtable_traitsILb0ELb0ELb1EEEE8_M_beginEv
	.p2align	4, 0x90
	.type	_ZNKSt10_HashtableIiSt4pairIKiSt6vectorIiSaIiEEESaIS5_ENSt8__detail10_Select1stESt8equal_toIiESt4hashIiENS7_18_Mod_range_hashingENS7_20_Default_ranged_hashENS7_20_Prime_rehash_policyENS7_17_Hashtable_traitsILb0ELb0ELb1EEEE8_M_beginEv,@function
_ZNKSt10_HashtableIiSt4pairIKiSt6vectorIiSaIiEEESaIS5_ENSt8__detail10_Select1stESt8equal_toIiESt4hashIiENS7_18_Mod_range_hashingENS7_20_Default_ranged_hashENS7_20_Prime_rehash_policyENS7_17_Hashtable_traitsILb0ELb0ELb1EEEE8_M_beginEv: # @_ZNKSt10_HashtableIiSt4pairIKiSt6vectorIiSaIiEEESaIS5_ENSt8__detail10_Select1stESt8equal_toIiESt4hashIiENS7_18_Mod_range_hashingENS7_20_Default_ranged_hashENS7_20_Prime_rehash_policyENS7_17_Hashtable_traitsILb0ELb0ELb1EEEE8_M_beginEv
	.cfi_startproc
# %bb.0:
	pushq	%rbp
	.cfi_def_cfa_offset 16
	.cfi_offset %rbp, -16
	movq	%rsp, %rbp
	.cfi_def_cfa_register %rbp
	movq	%rdi, -8(%rbp)
	movq	-8(%rbp), %rax
	movq	16(%rax), %rax
	popq	%rbp
	.cfi_def_cfa %rsp, 8
	retq
.Lfunc_end107:
	.size	_ZNKSt10_HashtableIiSt4pairIKiSt6vectorIiSaIiEEESaIS5_ENSt8__detail10_Select1stESt8equal_toIiESt4hashIiENS7_18_Mod_range_hashingENS7_20_Default_ranged_hashENS7_20_Prime_rehash_policyENS7_17_Hashtable_traitsILb0ELb0ELb1EEEE8_M_beginEv, .Lfunc_end107-_ZNKSt10_HashtableIiSt4pairIKiSt6vectorIiSaIiEEESaIS5_ENSt8__detail10_Select1stESt8equal_toIiESt4hashIiENS7_18_Mod_range_hashingENS7_20_Default_ranged_hashENS7_20_Prime_rehash_policyENS7_17_Hashtable_traitsILb0ELb0ELb1EEEE8_M_beginEv
	.cfi_endproc
                                        # -- End function
	.section	.text._ZNSt10_HashtableIiSt4pairIKiSt6vectorIiSaIiEEESaIS5_ENSt8__detail10_Select1stESt8equal_toIiESt4hashIiENS7_18_Mod_range_hashingENS7_20_Default_ranged_hashENS7_20_Prime_rehash_policyENS7_17_Hashtable_traitsILb0ELb0ELb1EEEE21_M_deallocate_bucketsEv,"axG",@progbits,_ZNSt10_HashtableIiSt4pairIKiSt6vectorIiSaIiEEESaIS5_ENSt8__detail10_Select1stESt8equal_toIiESt4hashIiENS7_18_Mod_range_hashingENS7_20_Default_ranged_hashENS7_20_Prime_rehash_policyENS7_17_Hashtable_traitsILb0ELb0ELb1EEEE21_M_deallocate_bucketsEv,comdat
	.weak	_ZNSt10_HashtableIiSt4pairIKiSt6vectorIiSaIiEEESaIS5_ENSt8__detail10_Select1stESt8equal_toIiESt4hashIiENS7_18_Mod_range_hashingENS7_20_Default_ranged_hashENS7_20_Prime_rehash_policyENS7_17_Hashtable_traitsILb0ELb0ELb1EEEE21_M_deallocate_bucketsEv # -- Begin function _ZNSt10_HashtableIiSt4pairIKiSt6vectorIiSaIiEEESaIS5_ENSt8__detail10_Select1stESt8equal_toIiESt4hashIiENS7_18_Mod_range_hashingENS7_20_Default_ranged_hashENS7_20_Prime_rehash_policyENS7_17_Hashtable_traitsILb0ELb0ELb1EEEE21_M_deallocate_bucketsEv
	.p2align	4, 0x90
	.type	_ZNSt10_HashtableIiSt4pairIKiSt6vectorIiSaIiEEESaIS5_ENSt8__detail10_Select1stESt8equal_toIiESt4hashIiENS7_18_Mod_range_hashingENS7_20_Default_ranged_hashENS7_20_Prime_rehash_policyENS7_17_Hashtable_traitsILb0ELb0ELb1EEEE21_M_deallocate_bucketsEv,@function
_ZNSt10_HashtableIiSt4pairIKiSt6vectorIiSaIiEEESaIS5_ENSt8__detail10_Select1stESt8equal_toIiESt4hashIiENS7_18_Mod_range_hashingENS7_20_Default_ranged_hashENS7_20_Prime_rehash_policyENS7_17_Hashtable_traitsILb0ELb0ELb1EEEE21_M_deallocate_bucketsEv: # @_ZNSt10_HashtableIiSt4pairIKiSt6vectorIiSaIiEEESaIS5_ENSt8__detail10_Select1stESt8equal_toIiESt4hashIiENS7_18_Mod_range_hashingENS7_20_Default_ranged_hashENS7_20_Prime_rehash_policyENS7_17_Hashtable_traitsILb0ELb0ELb1EEEE21_M_deallocate_bucketsEv
	.cfi_startproc
# %bb.0:
	pushq	%rbp
	.cfi_def_cfa_offset 16
	.cfi_offset %rbp, -16
	movq	%rsp, %rbp
	.cfi_def_cfa_register %rbp
	subq	$16, %rsp
	movq	%rdi, -8(%rbp)
	movq	-8(%rbp), %rax
	movq	(%rax), %rsi
	movq	8(%rax), %rdx
	movq	%rax, %rdi
	callq	_ZNSt10_HashtableIiSt4pairIKiSt6vectorIiSaIiEEESaIS5_ENSt8__detail10_Select1stESt8equal_toIiESt4hashIiENS7_18_Mod_range_hashingENS7_20_Default_ranged_hashENS7_20_Prime_rehash_policyENS7_17_Hashtable_traitsILb0ELb0ELb1EEEE21_M_deallocate_bucketsEPPNS7_15_Hash_node_baseEm
	addq	$16, %rsp
	popq	%rbp
	.cfi_def_cfa %rsp, 8
	retq
.Lfunc_end108:
	.size	_ZNSt10_HashtableIiSt4pairIKiSt6vectorIiSaIiEEESaIS5_ENSt8__detail10_Select1stESt8equal_toIiESt4hashIiENS7_18_Mod_range_hashingENS7_20_Default_ranged_hashENS7_20_Prime_rehash_policyENS7_17_Hashtable_traitsILb0ELb0ELb1EEEE21_M_deallocate_bucketsEv, .Lfunc_end108-_ZNSt10_HashtableIiSt4pairIKiSt6vectorIiSaIiEEESaIS5_ENSt8__detail10_Select1stESt8equal_toIiESt4hashIiENS7_18_Mod_range_hashingENS7_20_Default_ranged_hashENS7_20_Prime_rehash_policyENS7_17_Hashtable_traitsILb0ELb0ELb1EEEE21_M_deallocate_bucketsEv
	.cfi_endproc
                                        # -- End function
	.section	.text._ZNSt8__detail16_Hashtable_allocISaINS_10_Hash_nodeISt4pairIKiSt6vectorIiSaIiEEELb0EEEEE19_M_allocate_bucketsEm,"axG",@progbits,_ZNSt8__detail16_Hashtable_allocISaINS_10_Hash_nodeISt4pairIKiSt6vectorIiSaIiEEELb0EEEEE19_M_allocate_bucketsEm,comdat
	.weak	_ZNSt8__detail16_Hashtable_allocISaINS_10_Hash_nodeISt4pairIKiSt6vectorIiSaIiEEELb0EEEEE19_M_allocate_bucketsEm # -- Begin function _ZNSt8__detail16_Hashtable_allocISaINS_10_Hash_nodeISt4pairIKiSt6vectorIiSaIiEEELb0EEEEE19_M_allocate_bucketsEm
	.p2align	4, 0x90
	.type	_ZNSt8__detail16_Hashtable_allocISaINS_10_Hash_nodeISt4pairIKiSt6vectorIiSaIiEEELb0EEEEE19_M_allocate_bucketsEm,@function
_ZNSt8__detail16_Hashtable_allocISaINS_10_Hash_nodeISt4pairIKiSt6vectorIiSaIiEEELb0EEEEE19_M_allocate_bucketsEm: # @_ZNSt8__detail16_Hashtable_allocISaINS_10_Hash_nodeISt4pairIKiSt6vectorIiSaIiEEELb0EEEEE19_M_allocate_bucketsEm
.Lfunc_begin8:
	.cfi_startproc
	.cfi_personality 3, __gxx_personality_v0
	.cfi_lsda 3, .Lexception8
# %bb.0:
	pushq	%rbp
	.cfi_def_cfa_offset 16
	.cfi_offset %rbp, -16
	movq	%rsp, %rbp
	.cfi_def_cfa_register %rbp
	subq	$80, %rsp
	movq	%rdi, -8(%rbp)
	movq	%rsi, -16(%rbp)
	movq	-8(%rbp), %rdi
	callq	_ZNSt8__detail16_Hashtable_allocISaINS_10_Hash_nodeISt4pairIKiSt6vectorIiSaIiEEELb0EEEEE17_M_node_allocatorEv
	leaq	-24(%rbp), %rcx
	movq	%rcx, %rdi
	movq	%rax, %rsi
	movq	%rcx, -64(%rbp)         # 8-byte Spill
	callq	_ZNSaIPNSt8__detail15_Hash_node_baseEEC2INS_10_Hash_nodeISt4pairIKiSt6vectorIiSaIiEEELb0EEEEERKSaIT_E
	movq	-16(%rbp), %rsi
.Ltmp85:
	movq	-64(%rbp), %rdi         # 8-byte Reload
	callq	_ZNSt16allocator_traitsISaIPNSt8__detail15_Hash_node_baseEEE8allocateERS3_m
.Ltmp86:
	movq	%rax, -72(%rbp)         # 8-byte Spill
	jmp	.LBB109_1
.LBB109_1:
	movq	-72(%rbp), %rax         # 8-byte Reload
	movq	%rax, -32(%rbp)
	movq	-32(%rbp), %rdi
	callq	_ZSt12__to_addressIPNSt8__detail15_Hash_node_baseEEPT_S4_
	xorl	%esi, %esi
	movq	%rax, -56(%rbp)
	movq	-56(%rbp), %rax
	movq	-16(%rbp), %rcx
	shlq	$3, %rcx
	movq	%rax, %rdi
	movq	%rcx, %rdx
	callq	memset
	movq	-56(%rbp), %rax
	leaq	-24(%rbp), %rdi
	movq	%rax, -80(%rbp)         # 8-byte Spill
	callq	_ZNSaIPNSt8__detail15_Hash_node_baseEED2Ev
	movq	-80(%rbp), %rax         # 8-byte Reload
	addq	$80, %rsp
	popq	%rbp
	.cfi_def_cfa %rsp, 8
	retq
.LBB109_2:
	.cfi_def_cfa %rbp, 16
.Ltmp87:
                                        # kill: def $edx killed $edx killed $rdx
	movq	%rax, -40(%rbp)
	movl	%edx, -44(%rbp)
	leaq	-24(%rbp), %rdi
	callq	_ZNSaIPNSt8__detail15_Hash_node_baseEED2Ev
# %bb.3:
	movq	-40(%rbp), %rdi
	callq	_Unwind_Resume
.Lfunc_end109:
	.size	_ZNSt8__detail16_Hashtable_allocISaINS_10_Hash_nodeISt4pairIKiSt6vectorIiSaIiEEELb0EEEEE19_M_allocate_bucketsEm, .Lfunc_end109-_ZNSt8__detail16_Hashtable_allocISaINS_10_Hash_nodeISt4pairIKiSt6vectorIiSaIiEEELb0EEEEE19_M_allocate_bucketsEm
	.cfi_endproc
	.section	.gcc_except_table,"a",@progbits
	.p2align	2
GCC_except_table109:
.Lexception8:
	.byte	255                     # @LPStart Encoding = omit
	.byte	255                     # @TType Encoding = omit
	.byte	1                       # Call site Encoding = uleb128
	.uleb128 .Lcst_end8-.Lcst_begin8
.Lcst_begin8:
	.uleb128 .Lfunc_begin8-.Lfunc_begin8 # >> Call Site 1 <<
	.uleb128 .Ltmp85-.Lfunc_begin8  #   Call between .Lfunc_begin8 and .Ltmp85
	.byte	0                       #     has no landing pad
	.byte	0                       #   On action: cleanup
	.uleb128 .Ltmp85-.Lfunc_begin8  # >> Call Site 2 <<
	.uleb128 .Ltmp86-.Ltmp85        #   Call between .Ltmp85 and .Ltmp86
	.uleb128 .Ltmp87-.Lfunc_begin8  #     jumps to .Ltmp87
	.byte	0                       #   On action: cleanup
	.uleb128 .Ltmp86-.Lfunc_begin8  # >> Call Site 3 <<
	.uleb128 .Lfunc_end109-.Ltmp86  #   Call between .Ltmp86 and .Lfunc_end109
	.byte	0                       #     has no landing pad
	.byte	0                       #   On action: cleanup
.Lcst_end8:
	.p2align	2
                                        # -- End function
	.section	.text._ZNSaIPNSt8__detail15_Hash_node_baseEEC2INS_10_Hash_nodeISt4pairIKiSt6vectorIiSaIiEEELb0EEEEERKSaIT_E,"axG",@progbits,_ZNSaIPNSt8__detail15_Hash_node_baseEEC2INS_10_Hash_nodeISt4pairIKiSt6vectorIiSaIiEEELb0EEEEERKSaIT_E,comdat
	.weak	_ZNSaIPNSt8__detail15_Hash_node_baseEEC2INS_10_Hash_nodeISt4pairIKiSt6vectorIiSaIiEEELb0EEEEERKSaIT_E # -- Begin function _ZNSaIPNSt8__detail15_Hash_node_baseEEC2INS_10_Hash_nodeISt4pairIKiSt6vectorIiSaIiEEELb0EEEEERKSaIT_E
	.p2align	4, 0x90
	.type	_ZNSaIPNSt8__detail15_Hash_node_baseEEC2INS_10_Hash_nodeISt4pairIKiSt6vectorIiSaIiEEELb0EEEEERKSaIT_E,@function
_ZNSaIPNSt8__detail15_Hash_node_baseEEC2INS_10_Hash_nodeISt4pairIKiSt6vectorIiSaIiEEELb0EEEEERKSaIT_E: # @_ZNSaIPNSt8__detail15_Hash_node_baseEEC2INS_10_Hash_nodeISt4pairIKiSt6vectorIiSaIiEEELb0EEEEERKSaIT_E
	.cfi_startproc
# %bb.0:
	pushq	%rbp
	.cfi_def_cfa_offset 16
	.cfi_offset %rbp, -16
	movq	%rsp, %rbp
	.cfi_def_cfa_register %rbp
	subq	$16, %rsp
	movq	%rdi, -8(%rbp)
	movq	%rsi, -16(%rbp)
	movq	-8(%rbp), %rax
	movq	%rax, %rdi
	callq	_ZN9__gnu_cxx13new_allocatorIPNSt8__detail15_Hash_node_baseEEC2Ev
	addq	$16, %rsp
	popq	%rbp
	.cfi_def_cfa %rsp, 8
	retq
.Lfunc_end110:
	.size	_ZNSaIPNSt8__detail15_Hash_node_baseEEC2INS_10_Hash_nodeISt4pairIKiSt6vectorIiSaIiEEELb0EEEEERKSaIT_E, .Lfunc_end110-_ZNSaIPNSt8__detail15_Hash_node_baseEEC2INS_10_Hash_nodeISt4pairIKiSt6vectorIiSaIiEEELb0EEEEERKSaIT_E
	.cfi_endproc
                                        # -- End function
	.section	.text._ZNSt16allocator_traitsISaIPNSt8__detail15_Hash_node_baseEEE8allocateERS3_m,"axG",@progbits,_ZNSt16allocator_traitsISaIPNSt8__detail15_Hash_node_baseEEE8allocateERS3_m,comdat
	.weak	_ZNSt16allocator_traitsISaIPNSt8__detail15_Hash_node_baseEEE8allocateERS3_m # -- Begin function _ZNSt16allocator_traitsISaIPNSt8__detail15_Hash_node_baseEEE8allocateERS3_m
	.p2align	4, 0x90
	.type	_ZNSt16allocator_traitsISaIPNSt8__detail15_Hash_node_baseEEE8allocateERS3_m,@function
_ZNSt16allocator_traitsISaIPNSt8__detail15_Hash_node_baseEEE8allocateERS3_m: # @_ZNSt16allocator_traitsISaIPNSt8__detail15_Hash_node_baseEEE8allocateERS3_m
	.cfi_startproc
# %bb.0:
	pushq	%rbp
	.cfi_def_cfa_offset 16
	.cfi_offset %rbp, -16
	movq	%rsp, %rbp
	.cfi_def_cfa_register %rbp
	subq	$16, %rsp
	xorl	%eax, %eax
	movl	%eax, %edx
	movq	%rdi, -8(%rbp)
	movq	%rsi, -16(%rbp)
	movq	-8(%rbp), %rcx
	movq	-16(%rbp), %rsi
	movq	%rcx, %rdi
	callq	_ZN9__gnu_cxx13new_allocatorIPNSt8__detail15_Hash_node_baseEE8allocateEmPKv
	addq	$16, %rsp
	popq	%rbp
	.cfi_def_cfa %rsp, 8
	retq
.Lfunc_end111:
	.size	_ZNSt16allocator_traitsISaIPNSt8__detail15_Hash_node_baseEEE8allocateERS3_m, .Lfunc_end111-_ZNSt16allocator_traitsISaIPNSt8__detail15_Hash_node_baseEEE8allocateERS3_m
	.cfi_endproc
                                        # -- End function
	.section	.text._ZSt12__to_addressIPNSt8__detail15_Hash_node_baseEEPT_S4_,"axG",@progbits,_ZSt12__to_addressIPNSt8__detail15_Hash_node_baseEEPT_S4_,comdat
	.weak	_ZSt12__to_addressIPNSt8__detail15_Hash_node_baseEEPT_S4_ # -- Begin function _ZSt12__to_addressIPNSt8__detail15_Hash_node_baseEEPT_S4_
	.p2align	4, 0x90
	.type	_ZSt12__to_addressIPNSt8__detail15_Hash_node_baseEEPT_S4_,@function
_ZSt12__to_addressIPNSt8__detail15_Hash_node_baseEEPT_S4_: # @_ZSt12__to_addressIPNSt8__detail15_Hash_node_baseEEPT_S4_
	.cfi_startproc
# %bb.0:
	pushq	%rbp
	.cfi_def_cfa_offset 16
	.cfi_offset %rbp, -16
	movq	%rsp, %rbp
	.cfi_def_cfa_register %rbp
	movq	%rdi, -8(%rbp)
	movq	-8(%rbp), %rax
	popq	%rbp
	.cfi_def_cfa %rsp, 8
	retq
.Lfunc_end112:
	.size	_ZSt12__to_addressIPNSt8__detail15_Hash_node_baseEEPT_S4_, .Lfunc_end112-_ZSt12__to_addressIPNSt8__detail15_Hash_node_baseEEPT_S4_
	.cfi_endproc
                                        # -- End function
	.section	.text._ZNSaIPNSt8__detail15_Hash_node_baseEED2Ev,"axG",@progbits,_ZNSaIPNSt8__detail15_Hash_node_baseEED2Ev,comdat
	.weak	_ZNSaIPNSt8__detail15_Hash_node_baseEED2Ev # -- Begin function _ZNSaIPNSt8__detail15_Hash_node_baseEED2Ev
	.p2align	4, 0x90
	.type	_ZNSaIPNSt8__detail15_Hash_node_baseEED2Ev,@function
_ZNSaIPNSt8__detail15_Hash_node_baseEED2Ev: # @_ZNSaIPNSt8__detail15_Hash_node_baseEED2Ev
	.cfi_startproc
# %bb.0:
	pushq	%rbp
	.cfi_def_cfa_offset 16
	.cfi_offset %rbp, -16
	movq	%rsp, %rbp
	.cfi_def_cfa_register %rbp
	subq	$16, %rsp
	movq	%rdi, -8(%rbp)
	movq	-8(%rbp), %rax
	movq	%rax, %rdi
	callq	_ZN9__gnu_cxx13new_allocatorIPNSt8__detail15_Hash_node_baseEED2Ev
	addq	$16, %rsp
	popq	%rbp
	.cfi_def_cfa %rsp, 8
	retq
.Lfunc_end113:
	.size	_ZNSaIPNSt8__detail15_Hash_node_baseEED2Ev, .Lfunc_end113-_ZNSaIPNSt8__detail15_Hash_node_baseEED2Ev
	.cfi_endproc
                                        # -- End function
	.section	.text._ZN9__gnu_cxx13new_allocatorIPNSt8__detail15_Hash_node_baseEEC2Ev,"axG",@progbits,_ZN9__gnu_cxx13new_allocatorIPNSt8__detail15_Hash_node_baseEEC2Ev,comdat
	.weak	_ZN9__gnu_cxx13new_allocatorIPNSt8__detail15_Hash_node_baseEEC2Ev # -- Begin function _ZN9__gnu_cxx13new_allocatorIPNSt8__detail15_Hash_node_baseEEC2Ev
	.p2align	4, 0x90
	.type	_ZN9__gnu_cxx13new_allocatorIPNSt8__detail15_Hash_node_baseEEC2Ev,@function
_ZN9__gnu_cxx13new_allocatorIPNSt8__detail15_Hash_node_baseEEC2Ev: # @_ZN9__gnu_cxx13new_allocatorIPNSt8__detail15_Hash_node_baseEEC2Ev
	.cfi_startproc
# %bb.0:
	pushq	%rbp
	.cfi_def_cfa_offset 16
	.cfi_offset %rbp, -16
	movq	%rsp, %rbp
	.cfi_def_cfa_register %rbp
	movq	%rdi, -8(%rbp)
	popq	%rbp
	.cfi_def_cfa %rsp, 8
	retq
.Lfunc_end114:
	.size	_ZN9__gnu_cxx13new_allocatorIPNSt8__detail15_Hash_node_baseEEC2Ev, .Lfunc_end114-_ZN9__gnu_cxx13new_allocatorIPNSt8__detail15_Hash_node_baseEEC2Ev
	.cfi_endproc
                                        # -- End function
	.section	.text._ZN9__gnu_cxx13new_allocatorIPNSt8__detail15_Hash_node_baseEE8allocateEmPKv,"axG",@progbits,_ZN9__gnu_cxx13new_allocatorIPNSt8__detail15_Hash_node_baseEE8allocateEmPKv,comdat
	.weak	_ZN9__gnu_cxx13new_allocatorIPNSt8__detail15_Hash_node_baseEE8allocateEmPKv # -- Begin function _ZN9__gnu_cxx13new_allocatorIPNSt8__detail15_Hash_node_baseEE8allocateEmPKv
	.p2align	4, 0x90
	.type	_ZN9__gnu_cxx13new_allocatorIPNSt8__detail15_Hash_node_baseEE8allocateEmPKv,@function
_ZN9__gnu_cxx13new_allocatorIPNSt8__detail15_Hash_node_baseEE8allocateEmPKv: # @_ZN9__gnu_cxx13new_allocatorIPNSt8__detail15_Hash_node_baseEE8allocateEmPKv
	.cfi_startproc
# %bb.0:
	pushq	%rbp
	.cfi_def_cfa_offset 16
	.cfi_offset %rbp, -16
	movq	%rsp, %rbp
	.cfi_def_cfa_register %rbp
	subq	$32, %rsp
	movq	%rdi, -8(%rbp)
	movq	%rsi, -16(%rbp)
	movq	%rdx, -24(%rbp)
	movq	-8(%rbp), %rdi
	movq	-16(%rbp), %rax
	movq	%rax, -32(%rbp)         # 8-byte Spill
	callq	_ZNK9__gnu_cxx13new_allocatorIPNSt8__detail15_Hash_node_baseEE8max_sizeEv
	movq	-32(%rbp), %rcx         # 8-byte Reload
	cmpq	%rax, %rcx
	jbe	.LBB115_2
# %bb.1:
	callq	_ZSt17__throw_bad_allocv
.LBB115_2:
	movq	-16(%rbp), %rax
	shlq	$3, %rax
	movq	%rax, %rdi
	callq	_Znwm
	addq	$32, %rsp
	popq	%rbp
	.cfi_def_cfa %rsp, 8
	retq
.Lfunc_end115:
	.size	_ZN9__gnu_cxx13new_allocatorIPNSt8__detail15_Hash_node_baseEE8allocateEmPKv, .Lfunc_end115-_ZN9__gnu_cxx13new_allocatorIPNSt8__detail15_Hash_node_baseEE8allocateEmPKv
	.cfi_endproc
                                        # -- End function
	.section	.text._ZNK9__gnu_cxx13new_allocatorIPNSt8__detail15_Hash_node_baseEE8max_sizeEv,"axG",@progbits,_ZNK9__gnu_cxx13new_allocatorIPNSt8__detail15_Hash_node_baseEE8max_sizeEv,comdat
	.weak	_ZNK9__gnu_cxx13new_allocatorIPNSt8__detail15_Hash_node_baseEE8max_sizeEv # -- Begin function _ZNK9__gnu_cxx13new_allocatorIPNSt8__detail15_Hash_node_baseEE8max_sizeEv
	.p2align	4, 0x90
	.type	_ZNK9__gnu_cxx13new_allocatorIPNSt8__detail15_Hash_node_baseEE8max_sizeEv,@function
_ZNK9__gnu_cxx13new_allocatorIPNSt8__detail15_Hash_node_baseEE8max_sizeEv: # @_ZNK9__gnu_cxx13new_allocatorIPNSt8__detail15_Hash_node_baseEE8max_sizeEv
	.cfi_startproc
# %bb.0:
	pushq	%rbp
	.cfi_def_cfa_offset 16
	.cfi_offset %rbp, -16
	movq	%rsp, %rbp
	.cfi_def_cfa_register %rbp
	movq	%rdi, -8(%rbp)
	movabsq	$1152921504606846975, %rax # imm = 0xFFFFFFFFFFFFFFF
	popq	%rbp
	.cfi_def_cfa %rsp, 8
	retq
.Lfunc_end116:
	.size	_ZNK9__gnu_cxx13new_allocatorIPNSt8__detail15_Hash_node_baseEE8max_sizeEv, .Lfunc_end116-_ZNK9__gnu_cxx13new_allocatorIPNSt8__detail15_Hash_node_baseEE8max_sizeEv
	.cfi_endproc
                                        # -- End function
	.section	.text._ZN9__gnu_cxx13new_allocatorIPNSt8__detail15_Hash_node_baseEED2Ev,"axG",@progbits,_ZN9__gnu_cxx13new_allocatorIPNSt8__detail15_Hash_node_baseEED2Ev,comdat
	.weak	_ZN9__gnu_cxx13new_allocatorIPNSt8__detail15_Hash_node_baseEED2Ev # -- Begin function _ZN9__gnu_cxx13new_allocatorIPNSt8__detail15_Hash_node_baseEED2Ev
	.p2align	4, 0x90
	.type	_ZN9__gnu_cxx13new_allocatorIPNSt8__detail15_Hash_node_baseEED2Ev,@function
_ZN9__gnu_cxx13new_allocatorIPNSt8__detail15_Hash_node_baseEED2Ev: # @_ZN9__gnu_cxx13new_allocatorIPNSt8__detail15_Hash_node_baseEED2Ev
	.cfi_startproc
# %bb.0:
	pushq	%rbp
	.cfi_def_cfa_offset 16
	.cfi_offset %rbp, -16
	movq	%rsp, %rbp
	.cfi_def_cfa_register %rbp
	movq	%rdi, -8(%rbp)
	popq	%rbp
	.cfi_def_cfa %rsp, 8
	retq
.Lfunc_end117:
	.size	_ZN9__gnu_cxx13new_allocatorIPNSt8__detail15_Hash_node_baseEED2Ev, .Lfunc_end117-_ZN9__gnu_cxx13new_allocatorIPNSt8__detail15_Hash_node_baseEED2Ev
	.cfi_endproc
                                        # -- End function
	.section	.text._ZNSt10_HashtableIiSt4pairIKiSt6vectorIiSaIiEEESaIS5_ENSt8__detail10_Select1stESt8equal_toIiESt4hashIiENS7_18_Mod_range_hashingENS7_20_Default_ranged_hashENS7_20_Prime_rehash_policyENS7_17_Hashtable_traitsILb0ELb0ELb1EEEE21_M_deallocate_bucketsEPPNS7_15_Hash_node_baseEm,"axG",@progbits,_ZNSt10_HashtableIiSt4pairIKiSt6vectorIiSaIiEEESaIS5_ENSt8__detail10_Select1stESt8equal_toIiESt4hashIiENS7_18_Mod_range_hashingENS7_20_Default_ranged_hashENS7_20_Prime_rehash_policyENS7_17_Hashtable_traitsILb0ELb0ELb1EEEE21_M_deallocate_bucketsEPPNS7_15_Hash_node_baseEm,comdat
	.weak	_ZNSt10_HashtableIiSt4pairIKiSt6vectorIiSaIiEEESaIS5_ENSt8__detail10_Select1stESt8equal_toIiESt4hashIiENS7_18_Mod_range_hashingENS7_20_Default_ranged_hashENS7_20_Prime_rehash_policyENS7_17_Hashtable_traitsILb0ELb0ELb1EEEE21_M_deallocate_bucketsEPPNS7_15_Hash_node_baseEm # -- Begin function _ZNSt10_HashtableIiSt4pairIKiSt6vectorIiSaIiEEESaIS5_ENSt8__detail10_Select1stESt8equal_toIiESt4hashIiENS7_18_Mod_range_hashingENS7_20_Default_ranged_hashENS7_20_Prime_rehash_policyENS7_17_Hashtable_traitsILb0ELb0ELb1EEEE21_M_deallocate_bucketsEPPNS7_15_Hash_node_baseEm
	.p2align	4, 0x90
	.type	_ZNSt10_HashtableIiSt4pairIKiSt6vectorIiSaIiEEESaIS5_ENSt8__detail10_Select1stESt8equal_toIiESt4hashIiENS7_18_Mod_range_hashingENS7_20_Default_ranged_hashENS7_20_Prime_rehash_policyENS7_17_Hashtable_traitsILb0ELb0ELb1EEEE21_M_deallocate_bucketsEPPNS7_15_Hash_node_baseEm,@function
_ZNSt10_HashtableIiSt4pairIKiSt6vectorIiSaIiEEESaIS5_ENSt8__detail10_Select1stESt8equal_toIiESt4hashIiENS7_18_Mod_range_hashingENS7_20_Default_ranged_hashENS7_20_Prime_rehash_policyENS7_17_Hashtable_traitsILb0ELb0ELb1EEEE21_M_deallocate_bucketsEPPNS7_15_Hash_node_baseEm: # @_ZNSt10_HashtableIiSt4pairIKiSt6vectorIiSaIiEEESaIS5_ENSt8__detail10_Select1stESt8equal_toIiESt4hashIiENS7_18_Mod_range_hashingENS7_20_Default_ranged_hashENS7_20_Prime_rehash_policyENS7_17_Hashtable_traitsILb0ELb0ELb1EEEE21_M_deallocate_bucketsEPPNS7_15_Hash_node_baseEm
	.cfi_startproc
# %bb.0:
	pushq	%rbp
	.cfi_def_cfa_offset 16
	.cfi_offset %rbp, -16
	movq	%rsp, %rbp
	.cfi_def_cfa_register %rbp
	subq	$32, %rsp
	movq	%rdi, -8(%rbp)
	movq	%rsi, -16(%rbp)
	movq	%rdx, -24(%rbp)
	movq	-8(%rbp), %rax
	movq	-16(%rbp), %rsi
	movq	%rax, %rdi
	movq	%rax, -32(%rbp)         # 8-byte Spill
	callq	_ZNKSt10_HashtableIiSt4pairIKiSt6vectorIiSaIiEEESaIS5_ENSt8__detail10_Select1stESt8equal_toIiESt4hashIiENS7_18_Mod_range_hashingENS7_20_Default_ranged_hashENS7_20_Prime_rehash_policyENS7_17_Hashtable_traitsILb0ELb0ELb1EEEE21_M_uses_single_bucketEPPNS7_15_Hash_node_baseE
	testb	$1, %al
	jne	.LBB118_1
	jmp	.LBB118_2
.LBB118_1:
	jmp	.LBB118_3
.LBB118_2:
	movq	-32(%rbp), %rax         # 8-byte Reload
	movq	-16(%rbp), %rsi
	movq	-24(%rbp), %rdx
	movq	%rax, %rdi
	callq	_ZNSt8__detail16_Hashtable_allocISaINS_10_Hash_nodeISt4pairIKiSt6vectorIiSaIiEEELb0EEEEE21_M_deallocate_bucketsEPPNS_15_Hash_node_baseEm
.LBB118_3:
	addq	$32, %rsp
	popq	%rbp
	.cfi_def_cfa %rsp, 8
	retq
.Lfunc_end118:
	.size	_ZNSt10_HashtableIiSt4pairIKiSt6vectorIiSaIiEEESaIS5_ENSt8__detail10_Select1stESt8equal_toIiESt4hashIiENS7_18_Mod_range_hashingENS7_20_Default_ranged_hashENS7_20_Prime_rehash_policyENS7_17_Hashtable_traitsILb0ELb0ELb1EEEE21_M_deallocate_bucketsEPPNS7_15_Hash_node_baseEm, .Lfunc_end118-_ZNSt10_HashtableIiSt4pairIKiSt6vectorIiSaIiEEESaIS5_ENSt8__detail10_Select1stESt8equal_toIiESt4hashIiENS7_18_Mod_range_hashingENS7_20_Default_ranged_hashENS7_20_Prime_rehash_policyENS7_17_Hashtable_traitsILb0ELb0ELb1EEEE21_M_deallocate_bucketsEPPNS7_15_Hash_node_baseEm
	.cfi_endproc
                                        # -- End function
	.section	.text._ZNKSt10_HashtableIiSt4pairIKiSt6vectorIiSaIiEEESaIS5_ENSt8__detail10_Select1stESt8equal_toIiESt4hashIiENS7_18_Mod_range_hashingENS7_20_Default_ranged_hashENS7_20_Prime_rehash_policyENS7_17_Hashtable_traitsILb0ELb0ELb1EEEE21_M_uses_single_bucketEPPNS7_15_Hash_node_baseE,"axG",@progbits,_ZNKSt10_HashtableIiSt4pairIKiSt6vectorIiSaIiEEESaIS5_ENSt8__detail10_Select1stESt8equal_toIiESt4hashIiENS7_18_Mod_range_hashingENS7_20_Default_ranged_hashENS7_20_Prime_rehash_policyENS7_17_Hashtable_traitsILb0ELb0ELb1EEEE21_M_uses_single_bucketEPPNS7_15_Hash_node_baseE,comdat
	.weak	_ZNKSt10_HashtableIiSt4pairIKiSt6vectorIiSaIiEEESaIS5_ENSt8__detail10_Select1stESt8equal_toIiESt4hashIiENS7_18_Mod_range_hashingENS7_20_Default_ranged_hashENS7_20_Prime_rehash_policyENS7_17_Hashtable_traitsILb0ELb0ELb1EEEE21_M_uses_single_bucketEPPNS7_15_Hash_node_baseE # -- Begin function _ZNKSt10_HashtableIiSt4pairIKiSt6vectorIiSaIiEEESaIS5_ENSt8__detail10_Select1stESt8equal_toIiESt4hashIiENS7_18_Mod_range_hashingENS7_20_Default_ranged_hashENS7_20_Prime_rehash_policyENS7_17_Hashtable_traitsILb0ELb0ELb1EEEE21_M_uses_single_bucketEPPNS7_15_Hash_node_baseE
	.p2align	4, 0x90
	.type	_ZNKSt10_HashtableIiSt4pairIKiSt6vectorIiSaIiEEESaIS5_ENSt8__detail10_Select1stESt8equal_toIiESt4hashIiENS7_18_Mod_range_hashingENS7_20_Default_ranged_hashENS7_20_Prime_rehash_policyENS7_17_Hashtable_traitsILb0ELb0ELb1EEEE21_M_uses_single_bucketEPPNS7_15_Hash_node_baseE,@function
_ZNKSt10_HashtableIiSt4pairIKiSt6vectorIiSaIiEEESaIS5_ENSt8__detail10_Select1stESt8equal_toIiESt4hashIiENS7_18_Mod_range_hashingENS7_20_Default_ranged_hashENS7_20_Prime_rehash_policyENS7_17_Hashtable_traitsILb0ELb0ELb1EEEE21_M_uses_single_bucketEPPNS7_15_Hash_node_baseE: # @_ZNKSt10_HashtableIiSt4pairIKiSt6vectorIiSaIiEEESaIS5_ENSt8__detail10_Select1stESt8equal_toIiESt4hashIiENS7_18_Mod_range_hashingENS7_20_Default_ranged_hashENS7_20_Prime_rehash_policyENS7_17_Hashtable_traitsILb0ELb0ELb1EEEE21_M_uses_single_bucketEPPNS7_15_Hash_node_baseE
	.cfi_startproc
# %bb.0:
	pushq	%rbp
	.cfi_def_cfa_offset 16
	.cfi_offset %rbp, -16
	movq	%rsp, %rbp
	.cfi_def_cfa_register %rbp
	movq	%rdi, -8(%rbp)
	movq	%rsi, -16(%rbp)
	movq	-8(%rbp), %rax
	movq	-16(%rbp), %rcx
	addq	$48, %rax
	cmpq	%rax, %rcx
	sete	%dl
	andb	$1, %dl
	movzbl	%dl, %eax
	popq	%rbp
	.cfi_def_cfa %rsp, 8
	retq
.Lfunc_end119:
	.size	_ZNKSt10_HashtableIiSt4pairIKiSt6vectorIiSaIiEEESaIS5_ENSt8__detail10_Select1stESt8equal_toIiESt4hashIiENS7_18_Mod_range_hashingENS7_20_Default_ranged_hashENS7_20_Prime_rehash_policyENS7_17_Hashtable_traitsILb0ELb0ELb1EEEE21_M_uses_single_bucketEPPNS7_15_Hash_node_baseE, .Lfunc_end119-_ZNKSt10_HashtableIiSt4pairIKiSt6vectorIiSaIiEEESaIS5_ENSt8__detail10_Select1stESt8equal_toIiESt4hashIiENS7_18_Mod_range_hashingENS7_20_Default_ranged_hashENS7_20_Prime_rehash_policyENS7_17_Hashtable_traitsILb0ELb0ELb1EEEE21_M_uses_single_bucketEPPNS7_15_Hash_node_baseE
	.cfi_endproc
                                        # -- End function
	.section	.text._ZNSt8__detail16_Hashtable_allocISaINS_10_Hash_nodeISt4pairIKiSt6vectorIiSaIiEEELb0EEEEE21_M_deallocate_bucketsEPPNS_15_Hash_node_baseEm,"axG",@progbits,_ZNSt8__detail16_Hashtable_allocISaINS_10_Hash_nodeISt4pairIKiSt6vectorIiSaIiEEELb0EEEEE21_M_deallocate_bucketsEPPNS_15_Hash_node_baseEm,comdat
	.weak	_ZNSt8__detail16_Hashtable_allocISaINS_10_Hash_nodeISt4pairIKiSt6vectorIiSaIiEEELb0EEEEE21_M_deallocate_bucketsEPPNS_15_Hash_node_baseEm # -- Begin function _ZNSt8__detail16_Hashtable_allocISaINS_10_Hash_nodeISt4pairIKiSt6vectorIiSaIiEEELb0EEEEE21_M_deallocate_bucketsEPPNS_15_Hash_node_baseEm
	.p2align	4, 0x90
	.type	_ZNSt8__detail16_Hashtable_allocISaINS_10_Hash_nodeISt4pairIKiSt6vectorIiSaIiEEELb0EEEEE21_M_deallocate_bucketsEPPNS_15_Hash_node_baseEm,@function
_ZNSt8__detail16_Hashtable_allocISaINS_10_Hash_nodeISt4pairIKiSt6vectorIiSaIiEEELb0EEEEE21_M_deallocate_bucketsEPPNS_15_Hash_node_baseEm: # @_ZNSt8__detail16_Hashtable_allocISaINS_10_Hash_nodeISt4pairIKiSt6vectorIiSaIiEEELb0EEEEE21_M_deallocate_bucketsEPPNS_15_Hash_node_baseEm
.Lfunc_begin9:
	.cfi_startproc
	.cfi_personality 3, __gxx_personality_v0
	.cfi_lsda 3, .Lexception9
# %bb.0:
	pushq	%rbp
	.cfi_def_cfa_offset 16
	.cfi_offset %rbp, -16
	movq	%rsp, %rbp
	.cfi_def_cfa_register %rbp
	subq	$80, %rsp
	movq	%rdi, -8(%rbp)
	movq	%rsi, -16(%rbp)
	movq	%rdx, -24(%rbp)
	movq	-8(%rbp), %rdi
	movq	-16(%rbp), %rax
	movq	%rdi, -64(%rbp)         # 8-byte Spill
	movq	%rax, %rdi
	callq	_ZNSt14pointer_traitsIPPNSt8__detail15_Hash_node_baseEE10pointer_toERS2_
	movq	%rax, -32(%rbp)
	movq	-64(%rbp), %rdi         # 8-byte Reload
	callq	_ZNSt8__detail16_Hashtable_allocISaINS_10_Hash_nodeISt4pairIKiSt6vectorIiSaIiEEELb0EEEEE17_M_node_allocatorEv
	leaq	-40(%rbp), %rcx
	movq	%rcx, %rdi
	movq	%rax, %rsi
	movq	%rcx, -72(%rbp)         # 8-byte Spill
	callq	_ZNSaIPNSt8__detail15_Hash_node_baseEEC2INS_10_Hash_nodeISt4pairIKiSt6vectorIiSaIiEEELb0EEEEERKSaIT_E
	movq	-32(%rbp), %rsi
	movq	-24(%rbp), %rdx
.Ltmp88:
	movq	-72(%rbp), %rdi         # 8-byte Reload
	callq	_ZNSt16allocator_traitsISaIPNSt8__detail15_Hash_node_baseEEE10deallocateERS3_PS2_m
.Ltmp89:
	jmp	.LBB120_1
.LBB120_1:
	leaq	-40(%rbp), %rdi
	callq	_ZNSaIPNSt8__detail15_Hash_node_baseEED2Ev
	addq	$80, %rsp
	popq	%rbp
	.cfi_def_cfa %rsp, 8
	retq
.LBB120_2:
	.cfi_def_cfa %rbp, 16
.Ltmp90:
                                        # kill: def $edx killed $edx killed $rdx
	movq	%rax, -48(%rbp)
	movl	%edx, -52(%rbp)
	leaq	-40(%rbp), %rdi
	callq	_ZNSaIPNSt8__detail15_Hash_node_baseEED2Ev
# %bb.3:
	movq	-48(%rbp), %rdi
	callq	_Unwind_Resume
.Lfunc_end120:
	.size	_ZNSt8__detail16_Hashtable_allocISaINS_10_Hash_nodeISt4pairIKiSt6vectorIiSaIiEEELb0EEEEE21_M_deallocate_bucketsEPPNS_15_Hash_node_baseEm, .Lfunc_end120-_ZNSt8__detail16_Hashtable_allocISaINS_10_Hash_nodeISt4pairIKiSt6vectorIiSaIiEEELb0EEEEE21_M_deallocate_bucketsEPPNS_15_Hash_node_baseEm
	.cfi_endproc
	.section	.gcc_except_table,"a",@progbits
	.p2align	2
GCC_except_table120:
.Lexception9:
	.byte	255                     # @LPStart Encoding = omit
	.byte	255                     # @TType Encoding = omit
	.byte	1                       # Call site Encoding = uleb128
	.uleb128 .Lcst_end9-.Lcst_begin9
.Lcst_begin9:
	.uleb128 .Lfunc_begin9-.Lfunc_begin9 # >> Call Site 1 <<
	.uleb128 .Ltmp88-.Lfunc_begin9  #   Call between .Lfunc_begin9 and .Ltmp88
	.byte	0                       #     has no landing pad
	.byte	0                       #   On action: cleanup
	.uleb128 .Ltmp88-.Lfunc_begin9  # >> Call Site 2 <<
	.uleb128 .Ltmp89-.Ltmp88        #   Call between .Ltmp88 and .Ltmp89
	.uleb128 .Ltmp90-.Lfunc_begin9  #     jumps to .Ltmp90
	.byte	0                       #   On action: cleanup
	.uleb128 .Ltmp89-.Lfunc_begin9  # >> Call Site 3 <<
	.uleb128 .Lfunc_end120-.Ltmp89  #   Call between .Ltmp89 and .Lfunc_end120
	.byte	0                       #     has no landing pad
	.byte	0                       #   On action: cleanup
.Lcst_end9:
	.p2align	2
                                        # -- End function
	.section	.text._ZNSt14pointer_traitsIPPNSt8__detail15_Hash_node_baseEE10pointer_toERS2_,"axG",@progbits,_ZNSt14pointer_traitsIPPNSt8__detail15_Hash_node_baseEE10pointer_toERS2_,comdat
	.weak	_ZNSt14pointer_traitsIPPNSt8__detail15_Hash_node_baseEE10pointer_toERS2_ # -- Begin function _ZNSt14pointer_traitsIPPNSt8__detail15_Hash_node_baseEE10pointer_toERS2_
	.p2align	4, 0x90
	.type	_ZNSt14pointer_traitsIPPNSt8__detail15_Hash_node_baseEE10pointer_toERS2_,@function
_ZNSt14pointer_traitsIPPNSt8__detail15_Hash_node_baseEE10pointer_toERS2_: # @_ZNSt14pointer_traitsIPPNSt8__detail15_Hash_node_baseEE10pointer_toERS2_
	.cfi_startproc
# %bb.0:
	pushq	%rbp
	.cfi_def_cfa_offset 16
	.cfi_offset %rbp, -16
	movq	%rsp, %rbp
	.cfi_def_cfa_register %rbp
	subq	$16, %rsp
	movq	%rdi, -8(%rbp)
	movq	-8(%rbp), %rdi
	callq	_ZSt9addressofIPNSt8__detail15_Hash_node_baseEEPT_RS3_
	addq	$16, %rsp
	popq	%rbp
	.cfi_def_cfa %rsp, 8
	retq
.Lfunc_end121:
	.size	_ZNSt14pointer_traitsIPPNSt8__detail15_Hash_node_baseEE10pointer_toERS2_, .Lfunc_end121-_ZNSt14pointer_traitsIPPNSt8__detail15_Hash_node_baseEE10pointer_toERS2_
	.cfi_endproc
                                        # -- End function
	.section	.text._ZNSt16allocator_traitsISaIPNSt8__detail15_Hash_node_baseEEE10deallocateERS3_PS2_m,"axG",@progbits,_ZNSt16allocator_traitsISaIPNSt8__detail15_Hash_node_baseEEE10deallocateERS3_PS2_m,comdat
	.weak	_ZNSt16allocator_traitsISaIPNSt8__detail15_Hash_node_baseEEE10deallocateERS3_PS2_m # -- Begin function _ZNSt16allocator_traitsISaIPNSt8__detail15_Hash_node_baseEEE10deallocateERS3_PS2_m
	.p2align	4, 0x90
	.type	_ZNSt16allocator_traitsISaIPNSt8__detail15_Hash_node_baseEEE10deallocateERS3_PS2_m,@function
_ZNSt16allocator_traitsISaIPNSt8__detail15_Hash_node_baseEEE10deallocateERS3_PS2_m: # @_ZNSt16allocator_traitsISaIPNSt8__detail15_Hash_node_baseEEE10deallocateERS3_PS2_m
	.cfi_startproc
# %bb.0:
	pushq	%rbp
	.cfi_def_cfa_offset 16
	.cfi_offset %rbp, -16
	movq	%rsp, %rbp
	.cfi_def_cfa_register %rbp
	subq	$32, %rsp
	movq	%rdi, -8(%rbp)
	movq	%rsi, -16(%rbp)
	movq	%rdx, -24(%rbp)
	movq	-8(%rbp), %rax
	movq	-16(%rbp), %rsi
	movq	-24(%rbp), %rdx
	movq	%rax, %rdi
	callq	_ZN9__gnu_cxx13new_allocatorIPNSt8__detail15_Hash_node_baseEE10deallocateEPS3_m
	addq	$32, %rsp
	popq	%rbp
	.cfi_def_cfa %rsp, 8
	retq
.Lfunc_end122:
	.size	_ZNSt16allocator_traitsISaIPNSt8__detail15_Hash_node_baseEEE10deallocateERS3_PS2_m, .Lfunc_end122-_ZNSt16allocator_traitsISaIPNSt8__detail15_Hash_node_baseEEE10deallocateERS3_PS2_m
	.cfi_endproc
                                        # -- End function
	.section	.text._ZSt9addressofIPNSt8__detail15_Hash_node_baseEEPT_RS3_,"axG",@progbits,_ZSt9addressofIPNSt8__detail15_Hash_node_baseEEPT_RS3_,comdat
	.weak	_ZSt9addressofIPNSt8__detail15_Hash_node_baseEEPT_RS3_ # -- Begin function _ZSt9addressofIPNSt8__detail15_Hash_node_baseEEPT_RS3_
	.p2align	4, 0x90
	.type	_ZSt9addressofIPNSt8__detail15_Hash_node_baseEEPT_RS3_,@function
_ZSt9addressofIPNSt8__detail15_Hash_node_baseEEPT_RS3_: # @_ZSt9addressofIPNSt8__detail15_Hash_node_baseEEPT_RS3_
	.cfi_startproc
# %bb.0:
	pushq	%rbp
	.cfi_def_cfa_offset 16
	.cfi_offset %rbp, -16
	movq	%rsp, %rbp
	.cfi_def_cfa_register %rbp
	subq	$16, %rsp
	movq	%rdi, -8(%rbp)
	movq	-8(%rbp), %rdi
	callq	_ZSt11__addressofIPNSt8__detail15_Hash_node_baseEEPT_RS3_
	addq	$16, %rsp
	popq	%rbp
	.cfi_def_cfa %rsp, 8
	retq
.Lfunc_end123:
	.size	_ZSt9addressofIPNSt8__detail15_Hash_node_baseEEPT_RS3_, .Lfunc_end123-_ZSt9addressofIPNSt8__detail15_Hash_node_baseEEPT_RS3_
	.cfi_endproc
                                        # -- End function
	.section	.text._ZSt11__addressofIPNSt8__detail15_Hash_node_baseEEPT_RS3_,"axG",@progbits,_ZSt11__addressofIPNSt8__detail15_Hash_node_baseEEPT_RS3_,comdat
	.weak	_ZSt11__addressofIPNSt8__detail15_Hash_node_baseEEPT_RS3_ # -- Begin function _ZSt11__addressofIPNSt8__detail15_Hash_node_baseEEPT_RS3_
	.p2align	4, 0x90
	.type	_ZSt11__addressofIPNSt8__detail15_Hash_node_baseEEPT_RS3_,@function
_ZSt11__addressofIPNSt8__detail15_Hash_node_baseEEPT_RS3_: # @_ZSt11__addressofIPNSt8__detail15_Hash_node_baseEEPT_RS3_
	.cfi_startproc
# %bb.0:
	pushq	%rbp
	.cfi_def_cfa_offset 16
	.cfi_offset %rbp, -16
	movq	%rsp, %rbp
	.cfi_def_cfa_register %rbp
	movq	%rdi, -8(%rbp)
	movq	-8(%rbp), %rax
	popq	%rbp
	.cfi_def_cfa %rsp, 8
	retq
.Lfunc_end124:
	.size	_ZSt11__addressofIPNSt8__detail15_Hash_node_baseEEPT_RS3_, .Lfunc_end124-_ZSt11__addressofIPNSt8__detail15_Hash_node_baseEEPT_RS3_
	.cfi_endproc
                                        # -- End function
	.section	.text._ZN9__gnu_cxx13new_allocatorIPNSt8__detail15_Hash_node_baseEE10deallocateEPS3_m,"axG",@progbits,_ZN9__gnu_cxx13new_allocatorIPNSt8__detail15_Hash_node_baseEE10deallocateEPS3_m,comdat
	.weak	_ZN9__gnu_cxx13new_allocatorIPNSt8__detail15_Hash_node_baseEE10deallocateEPS3_m # -- Begin function _ZN9__gnu_cxx13new_allocatorIPNSt8__detail15_Hash_node_baseEE10deallocateEPS3_m
	.p2align	4, 0x90
	.type	_ZN9__gnu_cxx13new_allocatorIPNSt8__detail15_Hash_node_baseEE10deallocateEPS3_m,@function
_ZN9__gnu_cxx13new_allocatorIPNSt8__detail15_Hash_node_baseEE10deallocateEPS3_m: # @_ZN9__gnu_cxx13new_allocatorIPNSt8__detail15_Hash_node_baseEE10deallocateEPS3_m
	.cfi_startproc
# %bb.0:
	pushq	%rbp
	.cfi_def_cfa_offset 16
	.cfi_offset %rbp, -16
	movq	%rsp, %rbp
	.cfi_def_cfa_register %rbp
	subq	$32, %rsp
	movq	%rdi, -8(%rbp)
	movq	%rsi, -16(%rbp)
	movq	%rdx, -24(%rbp)
	movq	-16(%rbp), %rax
	movq	%rax, %rdi
	callq	_ZdlPv
	addq	$32, %rsp
	popq	%rbp
	.cfi_def_cfa %rsp, 8
	retq
.Lfunc_end125:
	.size	_ZN9__gnu_cxx13new_allocatorIPNSt8__detail15_Hash_node_baseEE10deallocateEPS3_m, .Lfunc_end125-_ZN9__gnu_cxx13new_allocatorIPNSt8__detail15_Hash_node_baseEE10deallocateEPS3_m
	.cfi_endproc
                                        # -- End function
	.section	.text._ZNSt8__detail21_Hashtable_ebo_helperILi0ENS_10_Select1stELb1EE6_S_getERS2_,"axG",@progbits,_ZNSt8__detail21_Hashtable_ebo_helperILi0ENS_10_Select1stELb1EE6_S_getERS2_,comdat
	.weak	_ZNSt8__detail21_Hashtable_ebo_helperILi0ENS_10_Select1stELb1EE6_S_getERS2_ # -- Begin function _ZNSt8__detail21_Hashtable_ebo_helperILi0ENS_10_Select1stELb1EE6_S_getERS2_
	.p2align	4, 0x90
	.type	_ZNSt8__detail21_Hashtable_ebo_helperILi0ENS_10_Select1stELb1EE6_S_getERS2_,@function
_ZNSt8__detail21_Hashtable_ebo_helperILi0ENS_10_Select1stELb1EE6_S_getERS2_: # @_ZNSt8__detail21_Hashtable_ebo_helperILi0ENS_10_Select1stELb1EE6_S_getERS2_
	.cfi_startproc
# %bb.0:
	pushq	%rbp
	.cfi_def_cfa_offset 16
	.cfi_offset %rbp, -16
	movq	%rsp, %rbp
	.cfi_def_cfa_register %rbp
	movq	%rdi, -8(%rbp)
	movq	-8(%rbp), %rax
	popq	%rbp
	.cfi_def_cfa %rsp, 8
	retq
.Lfunc_end126:
	.size	_ZNSt8__detail21_Hashtable_ebo_helperILi0ENS_10_Select1stELb1EE6_S_getERS2_, .Lfunc_end126-_ZNSt8__detail21_Hashtable_ebo_helperILi0ENS_10_Select1stELb1EE6_S_getERS2_
	.cfi_endproc
                                        # -- End function
	.section	.text._ZNSt8__detail19_Node_iterator_baseISt4pairIKiSt6vectorIiSaIiEEELb0EEC2EPNS_10_Hash_nodeIS6_Lb0EEE,"axG",@progbits,_ZNSt8__detail19_Node_iterator_baseISt4pairIKiSt6vectorIiSaIiEEELb0EEC2EPNS_10_Hash_nodeIS6_Lb0EEE,comdat
	.weak	_ZNSt8__detail19_Node_iterator_baseISt4pairIKiSt6vectorIiSaIiEEELb0EEC2EPNS_10_Hash_nodeIS6_Lb0EEE # -- Begin function _ZNSt8__detail19_Node_iterator_baseISt4pairIKiSt6vectorIiSaIiEEELb0EEC2EPNS_10_Hash_nodeIS6_Lb0EEE
	.p2align	4, 0x90
	.type	_ZNSt8__detail19_Node_iterator_baseISt4pairIKiSt6vectorIiSaIiEEELb0EEC2EPNS_10_Hash_nodeIS6_Lb0EEE,@function
_ZNSt8__detail19_Node_iterator_baseISt4pairIKiSt6vectorIiSaIiEEELb0EEC2EPNS_10_Hash_nodeIS6_Lb0EEE: # @_ZNSt8__detail19_Node_iterator_baseISt4pairIKiSt6vectorIiSaIiEEELb0EEC2EPNS_10_Hash_nodeIS6_Lb0EEE
	.cfi_startproc
# %bb.0:
	pushq	%rbp
	.cfi_def_cfa_offset 16
	.cfi_offset %rbp, -16
	movq	%rsp, %rbp
	.cfi_def_cfa_register %rbp
	movq	%rdi, -8(%rbp)
	movq	%rsi, -16(%rbp)
	movq	-8(%rbp), %rax
	movq	-16(%rbp), %rcx
	movq	%rcx, (%rax)
	popq	%rbp
	.cfi_def_cfa %rsp, 8
	retq
.Lfunc_end127:
	.size	_ZNSt8__detail19_Node_iterator_baseISt4pairIKiSt6vectorIiSaIiEEELb0EEC2EPNS_10_Hash_nodeIS6_Lb0EEE, .Lfunc_end127-_ZNSt8__detail19_Node_iterator_baseISt4pairIKiSt6vectorIiSaIiEEELb0EEC2EPNS_10_Hash_nodeIS6_Lb0EEE
	.cfi_endproc
                                        # -- End function
	.section	.text._ZNSt16allocator_traitsISaINSt8__detail10_Hash_nodeISt4pairIKiSt6vectorIiSaIiEEELb0EEEEE7destroyIS7_EEvRS9_PT_,"axG",@progbits,_ZNSt16allocator_traitsISaINSt8__detail10_Hash_nodeISt4pairIKiSt6vectorIiSaIiEEELb0EEEEE7destroyIS7_EEvRS9_PT_,comdat
	.weak	_ZNSt16allocator_traitsISaINSt8__detail10_Hash_nodeISt4pairIKiSt6vectorIiSaIiEEELb0EEEEE7destroyIS7_EEvRS9_PT_ # -- Begin function _ZNSt16allocator_traitsISaINSt8__detail10_Hash_nodeISt4pairIKiSt6vectorIiSaIiEEELb0EEEEE7destroyIS7_EEvRS9_PT_
	.p2align	4, 0x90
	.type	_ZNSt16allocator_traitsISaINSt8__detail10_Hash_nodeISt4pairIKiSt6vectorIiSaIiEEELb0EEEEE7destroyIS7_EEvRS9_PT_,@function
_ZNSt16allocator_traitsISaINSt8__detail10_Hash_nodeISt4pairIKiSt6vectorIiSaIiEEELb0EEEEE7destroyIS7_EEvRS9_PT_: # @_ZNSt16allocator_traitsISaINSt8__detail10_Hash_nodeISt4pairIKiSt6vectorIiSaIiEEELb0EEEEE7destroyIS7_EEvRS9_PT_
	.cfi_startproc
# %bb.0:
	pushq	%rbp
	.cfi_def_cfa_offset 16
	.cfi_offset %rbp, -16
	movq	%rsp, %rbp
	.cfi_def_cfa_register %rbp
	subq	$16, %rsp
	movq	%rdi, -8(%rbp)
	movq	%rsi, -16(%rbp)
	movq	-8(%rbp), %rax
	movq	-16(%rbp), %rsi
	movq	%rax, %rdi
	callq	_ZN9__gnu_cxx13new_allocatorINSt8__detail10_Hash_nodeISt4pairIKiSt6vectorIiSaIiEEELb0EEEE7destroyIS8_EEvPT_
	addq	$16, %rsp
	popq	%rbp
	.cfi_def_cfa %rsp, 8
	retq
.Lfunc_end128:
	.size	_ZNSt16allocator_traitsISaINSt8__detail10_Hash_nodeISt4pairIKiSt6vectorIiSaIiEEELb0EEEEE7destroyIS7_EEvRS9_PT_, .Lfunc_end128-_ZNSt16allocator_traitsISaINSt8__detail10_Hash_nodeISt4pairIKiSt6vectorIiSaIiEEELb0EEEEE7destroyIS7_EEvRS9_PT_
	.cfi_endproc
                                        # -- End function
	.section	.text._ZNSt8__detail16_Hashtable_allocISaINS_10_Hash_nodeISt4pairIKiSt6vectorIiSaIiEEELb0EEEEE22_M_deallocate_node_ptrEPS8_,"axG",@progbits,_ZNSt8__detail16_Hashtable_allocISaINS_10_Hash_nodeISt4pairIKiSt6vectorIiSaIiEEELb0EEEEE22_M_deallocate_node_ptrEPS8_,comdat
	.weak	_ZNSt8__detail16_Hashtable_allocISaINS_10_Hash_nodeISt4pairIKiSt6vectorIiSaIiEEELb0EEEEE22_M_deallocate_node_ptrEPS8_ # -- Begin function _ZNSt8__detail16_Hashtable_allocISaINS_10_Hash_nodeISt4pairIKiSt6vectorIiSaIiEEELb0EEEEE22_M_deallocate_node_ptrEPS8_
	.p2align	4, 0x90
	.type	_ZNSt8__detail16_Hashtable_allocISaINS_10_Hash_nodeISt4pairIKiSt6vectorIiSaIiEEELb0EEEEE22_M_deallocate_node_ptrEPS8_,@function
_ZNSt8__detail16_Hashtable_allocISaINS_10_Hash_nodeISt4pairIKiSt6vectorIiSaIiEEELb0EEEEE22_M_deallocate_node_ptrEPS8_: # @_ZNSt8__detail16_Hashtable_allocISaINS_10_Hash_nodeISt4pairIKiSt6vectorIiSaIiEEELb0EEEEE22_M_deallocate_node_ptrEPS8_
	.cfi_startproc
# %bb.0:
	pushq	%rbp
	.cfi_def_cfa_offset 16
	.cfi_offset %rbp, -16
	movq	%rsp, %rbp
	.cfi_def_cfa_register %rbp
	subq	$32, %rsp
	movq	%rdi, -8(%rbp)
	movq	%rsi, -16(%rbp)
	movq	-8(%rbp), %rdi
	movq	-16(%rbp), %rax
	movq	%rdi, -32(%rbp)         # 8-byte Spill
	movq	%rax, %rdi
	callq	_ZNSt14pointer_traitsIPNSt8__detail10_Hash_nodeISt4pairIKiSt6vectorIiSaIiEEELb0EEEE10pointer_toERS8_
	movq	%rax, -24(%rbp)
	movq	-32(%rbp), %rdi         # 8-byte Reload
	callq	_ZNSt8__detail16_Hashtable_allocISaINS_10_Hash_nodeISt4pairIKiSt6vectorIiSaIiEEELb0EEEEE17_M_node_allocatorEv
	movq	-24(%rbp), %rsi
	movq	%rax, %rdi
	movl	$1, %edx
	callq	_ZNSt16allocator_traitsISaINSt8__detail10_Hash_nodeISt4pairIKiSt6vectorIiSaIiEEELb0EEEEE10deallocateERS9_PS8_m
	addq	$32, %rsp
	popq	%rbp
	.cfi_def_cfa %rsp, 8
	retq
.Lfunc_end129:
	.size	_ZNSt8__detail16_Hashtable_allocISaINS_10_Hash_nodeISt4pairIKiSt6vectorIiSaIiEEELb0EEEEE22_M_deallocate_node_ptrEPS8_, .Lfunc_end129-_ZNSt8__detail16_Hashtable_allocISaINS_10_Hash_nodeISt4pairIKiSt6vectorIiSaIiEEELb0EEEEE22_M_deallocate_node_ptrEPS8_
	.cfi_endproc
                                        # -- End function
	.section	.text._ZN9__gnu_cxx13new_allocatorINSt8__detail10_Hash_nodeISt4pairIKiSt6vectorIiSaIiEEELb0EEEE7destroyIS8_EEvPT_,"axG",@progbits,_ZN9__gnu_cxx13new_allocatorINSt8__detail10_Hash_nodeISt4pairIKiSt6vectorIiSaIiEEELb0EEEE7destroyIS8_EEvPT_,comdat
	.weak	_ZN9__gnu_cxx13new_allocatorINSt8__detail10_Hash_nodeISt4pairIKiSt6vectorIiSaIiEEELb0EEEE7destroyIS8_EEvPT_ # -- Begin function _ZN9__gnu_cxx13new_allocatorINSt8__detail10_Hash_nodeISt4pairIKiSt6vectorIiSaIiEEELb0EEEE7destroyIS8_EEvPT_
	.p2align	4, 0x90
	.type	_ZN9__gnu_cxx13new_allocatorINSt8__detail10_Hash_nodeISt4pairIKiSt6vectorIiSaIiEEELb0EEEE7destroyIS8_EEvPT_,@function
_ZN9__gnu_cxx13new_allocatorINSt8__detail10_Hash_nodeISt4pairIKiSt6vectorIiSaIiEEELb0EEEE7destroyIS8_EEvPT_: # @_ZN9__gnu_cxx13new_allocatorINSt8__detail10_Hash_nodeISt4pairIKiSt6vectorIiSaIiEEELb0EEEE7destroyIS8_EEvPT_
	.cfi_startproc
# %bb.0:
	pushq	%rbp
	.cfi_def_cfa_offset 16
	.cfi_offset %rbp, -16
	movq	%rsp, %rbp
	.cfi_def_cfa_register %rbp
	subq	$16, %rsp
	movq	%rdi, -8(%rbp)
	movq	%rsi, -16(%rbp)
	movq	-16(%rbp), %rdi
	callq	_ZNSt4pairIKiSt6vectorIiSaIiEEED2Ev
	addq	$16, %rsp
	popq	%rbp
	.cfi_def_cfa %rsp, 8
	retq
.Lfunc_end130:
	.size	_ZN9__gnu_cxx13new_allocatorINSt8__detail10_Hash_nodeISt4pairIKiSt6vectorIiSaIiEEELb0EEEE7destroyIS8_EEvPT_, .Lfunc_end130-_ZN9__gnu_cxx13new_allocatorINSt8__detail10_Hash_nodeISt4pairIKiSt6vectorIiSaIiEEELb0EEEE7destroyIS8_EEvPT_
	.cfi_endproc
                                        # -- End function
	.section	.text._ZNSt4pairIKiSt6vectorIiSaIiEEED2Ev,"axG",@progbits,_ZNSt4pairIKiSt6vectorIiSaIiEEED2Ev,comdat
	.weak	_ZNSt4pairIKiSt6vectorIiSaIiEEED2Ev # -- Begin function _ZNSt4pairIKiSt6vectorIiSaIiEEED2Ev
	.p2align	4, 0x90
	.type	_ZNSt4pairIKiSt6vectorIiSaIiEEED2Ev,@function
_ZNSt4pairIKiSt6vectorIiSaIiEEED2Ev:    # @_ZNSt4pairIKiSt6vectorIiSaIiEEED2Ev
	.cfi_startproc
# %bb.0:
	pushq	%rbp
	.cfi_def_cfa_offset 16
	.cfi_offset %rbp, -16
	movq	%rsp, %rbp
	.cfi_def_cfa_register %rbp
	subq	$16, %rsp
	movq	%rdi, -8(%rbp)
	movq	-8(%rbp), %rax
	addq	$8, %rax
	movq	%rax, %rdi
	callq	_ZNSt6vectorIiSaIiEED2Ev
	addq	$16, %rsp
	popq	%rbp
	.cfi_def_cfa %rsp, 8
	retq
.Lfunc_end131:
	.size	_ZNSt4pairIKiSt6vectorIiSaIiEEED2Ev, .Lfunc_end131-_ZNSt4pairIKiSt6vectorIiSaIiEEED2Ev
	.cfi_endproc
                                        # -- End function
	.section	.text._ZNSt14pointer_traitsIPNSt8__detail10_Hash_nodeISt4pairIKiSt6vectorIiSaIiEEELb0EEEE10pointer_toERS8_,"axG",@progbits,_ZNSt14pointer_traitsIPNSt8__detail10_Hash_nodeISt4pairIKiSt6vectorIiSaIiEEELb0EEEE10pointer_toERS8_,comdat
	.weak	_ZNSt14pointer_traitsIPNSt8__detail10_Hash_nodeISt4pairIKiSt6vectorIiSaIiEEELb0EEEE10pointer_toERS8_ # -- Begin function _ZNSt14pointer_traitsIPNSt8__detail10_Hash_nodeISt4pairIKiSt6vectorIiSaIiEEELb0EEEE10pointer_toERS8_
	.p2align	4, 0x90
	.type	_ZNSt14pointer_traitsIPNSt8__detail10_Hash_nodeISt4pairIKiSt6vectorIiSaIiEEELb0EEEE10pointer_toERS8_,@function
_ZNSt14pointer_traitsIPNSt8__detail10_Hash_nodeISt4pairIKiSt6vectorIiSaIiEEELb0EEEE10pointer_toERS8_: # @_ZNSt14pointer_traitsIPNSt8__detail10_Hash_nodeISt4pairIKiSt6vectorIiSaIiEEELb0EEEE10pointer_toERS8_
	.cfi_startproc
# %bb.0:
	pushq	%rbp
	.cfi_def_cfa_offset 16
	.cfi_offset %rbp, -16
	movq	%rsp, %rbp
	.cfi_def_cfa_register %rbp
	subq	$16, %rsp
	movq	%rdi, -8(%rbp)
	movq	-8(%rbp), %rdi
	callq	_ZSt9addressofINSt8__detail10_Hash_nodeISt4pairIKiSt6vectorIiSaIiEEELb0EEEEPT_RS9_
	addq	$16, %rsp
	popq	%rbp
	.cfi_def_cfa %rsp, 8
	retq
.Lfunc_end132:
	.size	_ZNSt14pointer_traitsIPNSt8__detail10_Hash_nodeISt4pairIKiSt6vectorIiSaIiEEELb0EEEE10pointer_toERS8_, .Lfunc_end132-_ZNSt14pointer_traitsIPNSt8__detail10_Hash_nodeISt4pairIKiSt6vectorIiSaIiEEELb0EEEE10pointer_toERS8_
	.cfi_endproc
                                        # -- End function
	.section	.text._ZSt9addressofINSt8__detail10_Hash_nodeISt4pairIKiSt6vectorIiSaIiEEELb0EEEEPT_RS9_,"axG",@progbits,_ZSt9addressofINSt8__detail10_Hash_nodeISt4pairIKiSt6vectorIiSaIiEEELb0EEEEPT_RS9_,comdat
	.weak	_ZSt9addressofINSt8__detail10_Hash_nodeISt4pairIKiSt6vectorIiSaIiEEELb0EEEEPT_RS9_ # -- Begin function _ZSt9addressofINSt8__detail10_Hash_nodeISt4pairIKiSt6vectorIiSaIiEEELb0EEEEPT_RS9_
	.p2align	4, 0x90
	.type	_ZSt9addressofINSt8__detail10_Hash_nodeISt4pairIKiSt6vectorIiSaIiEEELb0EEEEPT_RS9_,@function
_ZSt9addressofINSt8__detail10_Hash_nodeISt4pairIKiSt6vectorIiSaIiEEELb0EEEEPT_RS9_: # @_ZSt9addressofINSt8__detail10_Hash_nodeISt4pairIKiSt6vectorIiSaIiEEELb0EEEEPT_RS9_
	.cfi_startproc
# %bb.0:
	pushq	%rbp
	.cfi_def_cfa_offset 16
	.cfi_offset %rbp, -16
	movq	%rsp, %rbp
	.cfi_def_cfa_register %rbp
	subq	$16, %rsp
	movq	%rdi, -8(%rbp)
	movq	-8(%rbp), %rdi
	callq	_ZSt11__addressofINSt8__detail10_Hash_nodeISt4pairIKiSt6vectorIiSaIiEEELb0EEEEPT_RS9_
	addq	$16, %rsp
	popq	%rbp
	.cfi_def_cfa %rsp, 8
	retq
.Lfunc_end133:
	.size	_ZSt9addressofINSt8__detail10_Hash_nodeISt4pairIKiSt6vectorIiSaIiEEELb0EEEEPT_RS9_, .Lfunc_end133-_ZSt9addressofINSt8__detail10_Hash_nodeISt4pairIKiSt6vectorIiSaIiEEELb0EEEEPT_RS9_
	.cfi_endproc
                                        # -- End function
	.section	.text._ZSt11__addressofINSt8__detail10_Hash_nodeISt4pairIKiSt6vectorIiSaIiEEELb0EEEEPT_RS9_,"axG",@progbits,_ZSt11__addressofINSt8__detail10_Hash_nodeISt4pairIKiSt6vectorIiSaIiEEELb0EEEEPT_RS9_,comdat
	.weak	_ZSt11__addressofINSt8__detail10_Hash_nodeISt4pairIKiSt6vectorIiSaIiEEELb0EEEEPT_RS9_ # -- Begin function _ZSt11__addressofINSt8__detail10_Hash_nodeISt4pairIKiSt6vectorIiSaIiEEELb0EEEEPT_RS9_
	.p2align	4, 0x90
	.type	_ZSt11__addressofINSt8__detail10_Hash_nodeISt4pairIKiSt6vectorIiSaIiEEELb0EEEEPT_RS9_,@function
_ZSt11__addressofINSt8__detail10_Hash_nodeISt4pairIKiSt6vectorIiSaIiEEELb0EEEEPT_RS9_: # @_ZSt11__addressofINSt8__detail10_Hash_nodeISt4pairIKiSt6vectorIiSaIiEEELb0EEEEPT_RS9_
	.cfi_startproc
# %bb.0:
	pushq	%rbp
	.cfi_def_cfa_offset 16
	.cfi_offset %rbp, -16
	movq	%rsp, %rbp
	.cfi_def_cfa_register %rbp
	movq	%rdi, -8(%rbp)
	movq	-8(%rbp), %rax
	popq	%rbp
	.cfi_def_cfa %rsp, 8
	retq
.Lfunc_end134:
	.size	_ZSt11__addressofINSt8__detail10_Hash_nodeISt4pairIKiSt6vectorIiSaIiEEELb0EEEEPT_RS9_, .Lfunc_end134-_ZSt11__addressofINSt8__detail10_Hash_nodeISt4pairIKiSt6vectorIiSaIiEEELb0EEEEPT_RS9_
	.cfi_endproc
                                        # -- End function
	.section	.text._ZNSt16allocator_traitsISaIiEE9constructIiJRKiEEEvRS0_PT_DpOT0_,"axG",@progbits,_ZNSt16allocator_traitsISaIiEE9constructIiJRKiEEEvRS0_PT_DpOT0_,comdat
	.weak	_ZNSt16allocator_traitsISaIiEE9constructIiJRKiEEEvRS0_PT_DpOT0_ # -- Begin function _ZNSt16allocator_traitsISaIiEE9constructIiJRKiEEEvRS0_PT_DpOT0_
	.p2align	4, 0x90
	.type	_ZNSt16allocator_traitsISaIiEE9constructIiJRKiEEEvRS0_PT_DpOT0_,@function
_ZNSt16allocator_traitsISaIiEE9constructIiJRKiEEEvRS0_PT_DpOT0_: # @_ZNSt16allocator_traitsISaIiEE9constructIiJRKiEEEvRS0_PT_DpOT0_
	.cfi_startproc
# %bb.0:
	pushq	%rbp
	.cfi_def_cfa_offset 16
	.cfi_offset %rbp, -16
	movq	%rsp, %rbp
	.cfi_def_cfa_register %rbp
	subq	$48, %rsp
	movq	%rdi, -8(%rbp)
	movq	%rsi, -16(%rbp)
	movq	%rdx, -24(%rbp)
	movq	-8(%rbp), %rax
	movq	-16(%rbp), %rsi
	movq	-24(%rbp), %rdi
	movq	%rax, -32(%rbp)         # 8-byte Spill
	movq	%rsi, -40(%rbp)         # 8-byte Spill
	callq	_ZSt7forwardIRKiEOT_RNSt16remove_referenceIS2_E4typeE
	movq	-32(%rbp), %rdi         # 8-byte Reload
	movq	-40(%rbp), %rsi         # 8-byte Reload
	movq	%rax, %rdx
	callq	_ZN9__gnu_cxx13new_allocatorIiE9constructIiJRKiEEEvPT_DpOT0_
	addq	$48, %rsp
	popq	%rbp
	.cfi_def_cfa %rsp, 8
	retq
.Lfunc_end135:
	.size	_ZNSt16allocator_traitsISaIiEE9constructIiJRKiEEEvRS0_PT_DpOT0_, .Lfunc_end135-_ZNSt16allocator_traitsISaIiEE9constructIiJRKiEEEvRS0_PT_DpOT0_
	.cfi_endproc
                                        # -- End function
	.section	.text._ZNSt6vectorIiSaIiEE17_M_realloc_insertIJRKiEEEvN9__gnu_cxx17__normal_iteratorIPiS1_EEDpOT_,"axG",@progbits,_ZNSt6vectorIiSaIiEE17_M_realloc_insertIJRKiEEEvN9__gnu_cxx17__normal_iteratorIPiS1_EEDpOT_,comdat
	.weak	_ZNSt6vectorIiSaIiEE17_M_realloc_insertIJRKiEEEvN9__gnu_cxx17__normal_iteratorIPiS1_EEDpOT_ # -- Begin function _ZNSt6vectorIiSaIiEE17_M_realloc_insertIJRKiEEEvN9__gnu_cxx17__normal_iteratorIPiS1_EEDpOT_
	.p2align	4, 0x90
	.type	_ZNSt6vectorIiSaIiEE17_M_realloc_insertIJRKiEEEvN9__gnu_cxx17__normal_iteratorIPiS1_EEDpOT_,@function
_ZNSt6vectorIiSaIiEE17_M_realloc_insertIJRKiEEEvN9__gnu_cxx17__normal_iteratorIPiS1_EEDpOT_: # @_ZNSt6vectorIiSaIiEE17_M_realloc_insertIJRKiEEEvN9__gnu_cxx17__normal_iteratorIPiS1_EEDpOT_
	.cfi_startproc
# %bb.0:
	pushq	%rbp
	.cfi_def_cfa_offset 16
	.cfi_offset %rbp, -16
	movq	%rsp, %rbp
	.cfi_def_cfa_register %rbp
	subq	$160, %rsp
	movq	%rsi, -8(%rbp)
	movq	%rdi, -16(%rbp)
	movq	%rdx, -24(%rbp)
	movq	-16(%rbp), %rax
	movq	%rax, %rdi
	movl	$1, %esi
	movabsq	$.L.str.1, %rdx
	movq	%rax, -88(%rbp)         # 8-byte Spill
	callq	_ZNKSt6vectorIiSaIiEE12_M_check_lenEmPKc
	movq	%rax, -32(%rbp)
	movq	-88(%rbp), %rax         # 8-byte Reload
	movq	(%rax), %rcx
	movq	%rcx, -40(%rbp)
	movq	8(%rax), %rcx
	movq	%rcx, -48(%rbp)
	movq	%rax, %rdi
	callq	_ZNSt6vectorIiSaIiEE5beginEv
	movq	%rax, -64(%rbp)
	leaq	-8(%rbp), %rdi
	leaq	-64(%rbp), %rsi
	callq	_ZN9__gnu_cxxmiIPiSt6vectorIiSaIiEEEENS_17__normal_iteratorIT_T0_E15difference_typeERKS8_SB_
	movq	%rax, -56(%rbp)
	movq	-88(%rbp), %rax         # 8-byte Reload
	movq	-32(%rbp), %rsi
	movq	%rax, %rdi
	callq	_ZNSt12_Vector_baseIiSaIiEE11_M_allocateEm
	movq	%rax, -72(%rbp)
	movq	-72(%rbp), %rax
	movq	%rax, -80(%rbp)
	movq	-88(%rbp), %rax         # 8-byte Reload
	movq	-72(%rbp), %rcx
	movq	-56(%rbp), %rdx
	shlq	$2, %rdx
	addq	%rdx, %rcx
	movq	-24(%rbp), %rdi
	movq	%rax, -96(%rbp)         # 8-byte Spill
	movq	%rcx, -104(%rbp)        # 8-byte Spill
	callq	_ZSt7forwardIRKiEOT_RNSt16remove_referenceIS2_E4typeE
	movq	-96(%rbp), %rdi         # 8-byte Reload
	movq	-104(%rbp), %rsi        # 8-byte Reload
	movq	%rax, %rdx
	callq	_ZNSt16allocator_traitsISaIiEE9constructIiJRKiEEEvRS0_PT_DpOT0_
	movq	$0, -80(%rbp)
	movq	-40(%rbp), %rdi
	leaq	-8(%rbp), %rax
	movq	%rdi, -112(%rbp)        # 8-byte Spill
	movq	%rax, %rdi
	callq	_ZNK9__gnu_cxx17__normal_iteratorIPiSt6vectorIiSaIiEEE4baseEv
	movq	(%rax), %rsi
	movq	-72(%rbp), %rdx
	movq	-88(%rbp), %rax         # 8-byte Reload
	movq	%rax, %rdi
	movq	%rsi, -120(%rbp)        # 8-byte Spill
	movq	%rdx, -128(%rbp)        # 8-byte Spill
	callq	_ZNSt12_Vector_baseIiSaIiEE19_M_get_Tp_allocatorEv
	movq	-112(%rbp), %rdi        # 8-byte Reload
	movq	-120(%rbp), %rsi        # 8-byte Reload
	movq	-128(%rbp), %rdx        # 8-byte Reload
	movq	%rax, %rcx
	callq	_ZNSt6vectorIiSaIiEE11_S_relocateEPiS2_S2_RS0_
	movq	%rax, -80(%rbp)
	movq	-80(%rbp), %rax
	addq	$4, %rax
	movq	%rax, -80(%rbp)
	leaq	-8(%rbp), %rdi
	callq	_ZNK9__gnu_cxx17__normal_iteratorIPiSt6vectorIiSaIiEEE4baseEv
	movq	(%rax), %rdi
	movq	-48(%rbp), %rsi
	movq	-80(%rbp), %rdx
	movq	-88(%rbp), %rax         # 8-byte Reload
	movq	%rdi, -136(%rbp)        # 8-byte Spill
	movq	%rax, %rdi
	movq	%rsi, -144(%rbp)        # 8-byte Spill
	movq	%rdx, -152(%rbp)        # 8-byte Spill
	callq	_ZNSt12_Vector_baseIiSaIiEE19_M_get_Tp_allocatorEv
	movq	-136(%rbp), %rdi        # 8-byte Reload
	movq	-144(%rbp), %rsi        # 8-byte Reload
	movq	-152(%rbp), %rdx        # 8-byte Reload
	movq	%rax, %rcx
	callq	_ZNSt6vectorIiSaIiEE11_S_relocateEPiS2_S2_RS0_
	movq	%rax, -80(%rbp)
	movq	-88(%rbp), %rax         # 8-byte Reload
	movq	-40(%rbp), %rsi
	movq	-88(%rbp), %rcx         # 8-byte Reload
	movq	16(%rcx), %rdx
	movq	-40(%rbp), %rdi
	subq	%rdi, %rdx
	sarq	$2, %rdx
	movq	%rax, %rdi
	callq	_ZNSt12_Vector_baseIiSaIiEE13_M_deallocateEPim
	movq	-72(%rbp), %rax
	movq	-88(%rbp), %rcx         # 8-byte Reload
	movq	%rax, (%rcx)
	movq	-80(%rbp), %rax
	movq	%rax, 8(%rcx)
	movq	-72(%rbp), %rax
	movq	-32(%rbp), %rdx
	shlq	$2, %rdx
	addq	%rdx, %rax
	movq	%rax, 16(%rcx)
	addq	$160, %rsp
	popq	%rbp
	.cfi_def_cfa %rsp, 8
	retq
.Lfunc_end136:
	.size	_ZNSt6vectorIiSaIiEE17_M_realloc_insertIJRKiEEEvN9__gnu_cxx17__normal_iteratorIPiS1_EEDpOT_, .Lfunc_end136-_ZNSt6vectorIiSaIiEE17_M_realloc_insertIJRKiEEEvN9__gnu_cxx17__normal_iteratorIPiS1_EEDpOT_
	.cfi_endproc
                                        # -- End function
	.section	.text._ZN9__gnu_cxx13new_allocatorIiE9constructIiJRKiEEEvPT_DpOT0_,"axG",@progbits,_ZN9__gnu_cxx13new_allocatorIiE9constructIiJRKiEEEvPT_DpOT0_,comdat
	.weak	_ZN9__gnu_cxx13new_allocatorIiE9constructIiJRKiEEEvPT_DpOT0_ # -- Begin function _ZN9__gnu_cxx13new_allocatorIiE9constructIiJRKiEEEvPT_DpOT0_
	.p2align	4, 0x90
	.type	_ZN9__gnu_cxx13new_allocatorIiE9constructIiJRKiEEEvPT_DpOT0_,@function
_ZN9__gnu_cxx13new_allocatorIiE9constructIiJRKiEEEvPT_DpOT0_: # @_ZN9__gnu_cxx13new_allocatorIiE9constructIiJRKiEEEvPT_DpOT0_
	.cfi_startproc
# %bb.0:
	pushq	%rbp
	.cfi_def_cfa_offset 16
	.cfi_offset %rbp, -16
	movq	%rsp, %rbp
	.cfi_def_cfa_register %rbp
	subq	$32, %rsp
	movq	%rdi, -8(%rbp)
	movq	%rsi, -16(%rbp)
	movq	%rdx, -24(%rbp)
	movq	-16(%rbp), %rax
	movq	-24(%rbp), %rdi
	movq	%rax, -32(%rbp)         # 8-byte Spill
	callq	_ZSt7forwardIRKiEOT_RNSt16remove_referenceIS2_E4typeE
	movl	(%rax), %ecx
	movq	-32(%rbp), %rax         # 8-byte Reload
	movl	%ecx, (%rax)
	addq	$32, %rsp
	popq	%rbp
	.cfi_def_cfa %rsp, 8
	retq
.Lfunc_end137:
	.size	_ZN9__gnu_cxx13new_allocatorIiE9constructIiJRKiEEEvPT_DpOT0_, .Lfunc_end137-_ZN9__gnu_cxx13new_allocatorIiE9constructIiJRKiEEEvPT_DpOT0_
	.cfi_endproc
                                        # -- End function
	.section	.text._ZNKSt6vectorIiSaIiEE12_M_check_lenEmPKc,"axG",@progbits,_ZNKSt6vectorIiSaIiEE12_M_check_lenEmPKc,comdat
	.weak	_ZNKSt6vectorIiSaIiEE12_M_check_lenEmPKc # -- Begin function _ZNKSt6vectorIiSaIiEE12_M_check_lenEmPKc
	.p2align	4, 0x90
	.type	_ZNKSt6vectorIiSaIiEE12_M_check_lenEmPKc,@function
