; ModuleID = 'main.0ed1f30b-cgu.0'
source_filename = "main.0ed1f30b-cgu.0"
target datalayout = "e-m:e-p270:32:32-p271:32:32-p272:64:64-i64:64-f80:128-n8:16:32:64-S128"
target triple = "x86_64-unknown-linux-gnu"

%"core::panic::location::Location" = type { { [0 x i8]*, i64 }, i32, i32 }
%"unwind::libunwind::_Unwind_Exception" = type { i64, void (i32, %"unwind::libunwind::_Unwind_Exception"*)*, [6 x i64] }
%"unwind::libunwind::_Unwind_Context" = type { [0 x i8] }

@vtable.0 = private unnamed_addr constant <{ i8*, [16 x i8], i8*, i8*, i8* }> <{ i8* bitcast (void (i64**)* @"_ZN4core3ptr85drop_in_place$LT$std..rt..lang_start$LT$$LP$$RP$$GT$..$u7b$$u7b$closure$u7d$$u7d$$GT$17h0bc3a847afdc1bd4E" to i8*), [16 x i8] c"\08\00\00\00\00\00\00\00\08\00\00\00\00\00\00\00", i8* bitcast (i32 (i64**)* @"_ZN4core3ops8function6FnOnce40call_once$u7b$$u7b$vtable.shim$u7d$$u7d$17h658c7356e5a23ca5E" to i8*), i8* bitcast (i32 (i64**)* @"_ZN3std2rt10lang_start28_$u7b$$u7b$closure$u7d$$u7d$17h54229c6c97078e41E" to i8*), i8* bitcast (i32 (i64**)* @"_ZN3std2rt10lang_start28_$u7b$$u7b$closure$u7d$$u7d$17h54229c6c97078e41E" to i8*) }>, align 8
@alloc32 = private unnamed_addr constant <{ [49 x i8] }> <{ [49 x i8] c"/usr/src/rustc-1.63.0/library/core/src/ptr/mod.rs" }>, align 1
@alloc33 = private unnamed_addr constant <{ i8*, [16 x i8] }> <{ i8* getelementptr inbounds (<{ [49 x i8] }>, <{ [49 x i8] }>* @alloc32, i32 0, i32 0, i32 0), [16 x i8] c"1\00\00\00\00\00\00\00\80\04\00\00\0D\00\00\00" }>, align 8
@alloc40 = private unnamed_addr constant <{ [7 x i8] }> <{ [7 x i8] c"main.rs" }>, align 1
@alloc35 = private unnamed_addr constant <{ i8*, [16 x i8] }> <{ i8* getelementptr inbounds (<{ [7 x i8] }>, <{ [7 x i8] }>* @alloc40, i32 0, i32 0, i32 0), [16 x i8] c"\07\00\00\00\00\00\00\00\04\00\00\00\0D\00\00\00" }>, align 8
@str.1 = internal constant [28 x i8] c"attempt to add with overflow"
@alloc37 = private unnamed_addr constant <{ i8*, [16 x i8] }> <{ i8* getelementptr inbounds (<{ [7 x i8] }>, <{ [7 x i8] }>* @alloc40, i32 0, i32 0, i32 0), [16 x i8] c"\07\00\00\00\00\00\00\00\05\00\00\00\0C\00\00\00" }>, align 8
@str.2 = internal constant [48 x i8] c"attempt to calculate the remainder with overflow"
@alloc39 = private unnamed_addr constant <{ i8*, [16 x i8] }> <{ i8* getelementptr inbounds (<{ [7 x i8] }>, <{ [7 x i8] }>* @alloc40, i32 0, i32 0, i32 0), [16 x i8] c"\07\00\00\00\00\00\00\00\08\00\00\00\11\00\00\00" }>, align 8
@alloc41 = private unnamed_addr constant <{ i8*, [16 x i8] }> <{ i8* getelementptr inbounds (<{ [7 x i8] }>, <{ [7 x i8] }>* @alloc40, i32 0, i32 0, i32 0), [16 x i8] c"\07\00\00\00\00\00\00\00\06\00\00\00\11\00\00\00" }>, align 8
@str.3 = internal constant [33 x i8] c"attempt to subtract with overflow"

; std::sys_common::backtrace::__rust_begin_short_backtrace
; Function Attrs: noinline nonlazybind uwtable
define internal void @_ZN3std10sys_common9backtrace28__rust_begin_short_backtrace17he198431a0c498bb1E(void ()* %f) unnamed_addr #0 personality i32 (i32, i32, i64, %"unwind::libunwind::_Unwind_Exception"*, %"unwind::libunwind::_Unwind_Context"*)* @rust_eh_personality {
start:
  %0 = alloca { i8*, i32 }, align 8
; call core::ops::function::FnOnce::call_once
  call void @_ZN4core3ops8function6FnOnce9call_once17he69936f2ac3430e3E(void ()* %f)
  br label %bb1

bb1:                                              ; preds = %start
; invoke core::hint::black_box
  invoke void @_ZN4core4hint9black_box17h4055eed8e283f60eE()
          to label %bb2 unwind label %cleanup

bb3:                                              ; preds = %cleanup
  br label %bb4

cleanup:                                          ; preds = %bb1
  %1 = landingpad { i8*, i32 }
          cleanup
  %2 = extractvalue { i8*, i32 } %1, 0
  %3 = extractvalue { i8*, i32 } %1, 1
  %4 = getelementptr inbounds { i8*, i32 }, { i8*, i32 }* %0, i32 0, i32 0
  store i8* %2, i8** %4, align 8
  %5 = getelementptr inbounds { i8*, i32 }, { i8*, i32 }* %0, i32 0, i32 1
  store i32 %3, i32* %5, align 8
  br label %bb3

bb2:                                              ; preds = %bb1
  ret void

bb4:                                              ; preds = %bb3
  %6 = bitcast { i8*, i32 }* %0 to i8**
  %7 = load i8*, i8** %6, align 8
  %8 = getelementptr inbounds { i8*, i32 }, { i8*, i32 }* %0, i32 0, i32 1
  %9 = load i32, i32* %8, align 8
  %10 = insertvalue { i8*, i32 } undef, i8* %7, 0
  %11 = insertvalue { i8*, i32 } %10, i32 %9, 1
  resume { i8*, i32 } %11
}

; std::rt::lang_start
; Function Attrs: nonlazybind uwtable
define hidden i64 @_ZN3std2rt10lang_start17h5ef258fff94cb015E(void ()* %main, i64 %argc, i8** %argv) unnamed_addr #1 {
start:
  %_8 = alloca i64*, align 8
  %_4 = alloca i64, align 8
  %0 = bitcast i64** %_8 to void ()**
  store void ()* %main, void ()** %0, align 8
  %_5.0 = bitcast i64** %_8 to {}*
; call std::rt::lang_start_internal
  %1 = call i64 @_ZN3std2rt19lang_start_internal17h2c2e962c94282c61E({}* align 1 %_5.0, [3 x i64]* align 8 bitcast (<{ i8*, [16 x i8], i8*, i8*, i8* }>* @vtable.0 to [3 x i64]*), i64 %argc, i8** %argv)
  store i64 %1, i64* %_4, align 8
  br label %bb1

bb1:                                              ; preds = %start
  %v = load i64, i64* %_4, align 8
  ret i64 %v
}

; std::rt::lang_start::{{closure}}
; Function Attrs: inlinehint nonlazybind uwtable
define internal i32 @"_ZN3std2rt10lang_start28_$u7b$$u7b$closure$u7d$$u7d$17h54229c6c97078e41E"(i64** align 8 %_1) unnamed_addr #2 {
start:
  %0 = bitcast i64** %_1 to void ()**
  %_4 = load void ()*, void ()** %0, align 8, !nonnull !3, !noundef !3
; call std::sys_common::backtrace::__rust_begin_short_backtrace
  call void @_ZN3std10sys_common9backtrace28__rust_begin_short_backtrace17he198431a0c498bb1E(void ()* %_4)
  br label %bb1

bb1:                                              ; preds = %start
; call <() as std::process::Termination>::report
  %_2 = call i8 @"_ZN54_$LT$$LP$$RP$$u20$as$u20$std..process..Termination$GT$6report17hcdfebb59052d5393E"()
  br label %bb2

bb2:                                              ; preds = %bb1
; call std::process::ExitCode::to_i32
  %1 = call i32 @_ZN3std7process8ExitCode6to_i3217h7a34535f03cb54aaE(i8 %_2)
  br label %bb3

bb3:                                              ; preds = %bb2
  ret i32 %1
}

; std::sys::unix::process::process_common::ExitCode::as_i32
; Function Attrs: inlinehint nonlazybind uwtable
define internal i32 @_ZN3std3sys4unix7process14process_common8ExitCode6as_i3217hcf5e850e74d63a22E(i8* align 1 %self) unnamed_addr #2 {
start:
  %_2 = load i8, i8* %self, align 1
  %0 = zext i8 %_2 to i32
  ret i32 %0
}

; std::process::ExitCode::to_i32
; Function Attrs: inlinehint nonlazybind uwtable
define internal i32 @_ZN3std7process8ExitCode6to_i3217h7a34535f03cb54aaE(i8 %0) unnamed_addr #2 {
start:
  %self = alloca i8, align 1
  store i8 %0, i8* %self, align 1
; call std::sys::unix::process::process_common::ExitCode::as_i32
  %1 = call i32 @_ZN3std3sys4unix7process14process_common8ExitCode6as_i3217hcf5e850e74d63a22E(i8* align 1 %self)
  br label %bb1

bb1:                                              ; preds = %start
  ret i32 %1
}

; <i32 as core::iter::range::Step>::forward_unchecked
; Function Attrs: inlinehint nonlazybind uwtable
define internal i32 @"_ZN47_$LT$i32$u20$as$u20$core..iter..range..Step$GT$17forward_unchecked17h830b7038ca36f07bE"(i32 %start1, i64 %n) unnamed_addr #2 {
start:
  %0 = alloca i32, align 4
  %_4 = trunc i64 %n to i32
  %1 = add nsw i32 %start1, %_4
  store i32 %1, i32* %0, align 4
  %2 = load i32, i32* %0, align 4
  br label %bb1

bb1:                                              ; preds = %start
  ret i32 %2
}

; core::cmp::impls::<impl core::cmp::PartialOrd for i32>::lt
; Function Attrs: inlinehint nonlazybind uwtable
define internal zeroext i1 @"_ZN4core3cmp5impls55_$LT$impl$u20$core..cmp..PartialOrd$u20$for$u20$i32$GT$2lt17h4cb8411aabf8412dE"(i32* align 4 %self, i32* align 4 %other) unnamed_addr #2 {
start:
  %_3 = load i32, i32* %self, align 4
  %_4 = load i32, i32* %other, align 4
  %0 = icmp slt i32 %_3, %_4
  ret i1 %0
}

; core::mem::replace
; Function Attrs: inlinehint nonlazybind uwtable
define internal i32 @_ZN4core3mem7replace17h1c056ec161b7009bE(i32* align 4 %dest, i32 %src) unnamed_addr #2 personality i32 (i32, i32, i64, %"unwind::libunwind::_Unwind_Exception"*, %"unwind::libunwind::_Unwind_Context"*)* @rust_eh_personality {
start:
  %0 = alloca { i8*, i32 }, align 8
  %_7 = alloca i8, align 1
  store i8 1, i8* %_7, align 1
; invoke core::ptr::read
  %result = invoke i32 @_ZN4core3ptr4read17hc5230c8cad10658cE(i32* %dest)
          to label %bb1 unwind label %cleanup

bb6:                                              ; preds = %bb3, %cleanup
  %1 = load i8, i8* %_7, align 1, !range !4, !noundef !3
  %2 = trunc i8 %1 to i1
  br i1 %2, label %bb5, label %bb4

cleanup:                                          ; preds = %start
  %3 = landingpad { i8*, i32 }
          cleanup
  %4 = extractvalue { i8*, i32 } %3, 0
  %5 = extractvalue { i8*, i32 } %3, 1
  %6 = getelementptr inbounds { i8*, i32 }, { i8*, i32 }* %0, i32 0, i32 0
  store i8* %4, i8** %6, align 8
  %7 = getelementptr inbounds { i8*, i32 }, { i8*, i32 }* %0, i32 0, i32 1
  store i32 %5, i32* %7, align 8
  br label %bb6

bb1:                                              ; preds = %start
  store i8 0, i8* %_7, align 1
; invoke core::ptr::write
  invoke void @_ZN4core3ptr5write17h7358c475fce40257E(i32* %dest, i32 %src)
          to label %bb2 unwind label %cleanup1

bb3:                                              ; preds = %cleanup1
  br label %bb6

cleanup1:                                         ; preds = %bb1
  %8 = landingpad { i8*, i32 }
          cleanup
  %9 = extractvalue { i8*, i32 } %8, 0
  %10 = extractvalue { i8*, i32 } %8, 1
  %11 = getelementptr inbounds { i8*, i32 }, { i8*, i32 }* %0, i32 0, i32 0
  store i8* %9, i8** %11, align 8
  %12 = getelementptr inbounds { i8*, i32 }, { i8*, i32 }* %0, i32 0, i32 1
  store i32 %10, i32* %12, align 8
  br label %bb3

bb2:                                              ; preds = %bb1
  ret i32 %result

bb4:                                              ; preds = %bb5, %bb6
  %13 = bitcast { i8*, i32 }* %0 to i8**
  %14 = load i8*, i8** %13, align 8
  %15 = getelementptr inbounds { i8*, i32 }, { i8*, i32 }* %0, i32 0, i32 1
  %16 = load i32, i32* %15, align 8
  %17 = insertvalue { i8*, i32 } undef, i8* %14, 0
  %18 = insertvalue { i8*, i32 } %17, i32 %16, 1
  resume { i8*, i32 } %18

bb5:                                              ; preds = %bb6
  br label %bb4
}

; core::ops::function::FnOnce::call_once{{vtable.shim}}
; Function Attrs: inlinehint nonlazybind uwtable
define internal i32 @"_ZN4core3ops8function6FnOnce40call_once$u7b$$u7b$vtable.shim$u7d$$u7d$17h658c7356e5a23ca5E"(i64** %_1) unnamed_addr #2 {
start:
  %_2 = alloca {}, align 1
  %0 = load i64*, i64** %_1, align 8, !nonnull !3, !noundef !3
; call core::ops::function::FnOnce::call_once
  %1 = call i32 @_ZN4core3ops8function6FnOnce9call_once17h9fe2b0a713e34cf7E(i64* %0)
  br label %bb1

bb1:                                              ; preds = %start
  ret i32 %1
}

; core::ops::function::FnOnce::call_once
; Function Attrs: inlinehint nonlazybind uwtable
define internal i32 @_ZN4core3ops8function6FnOnce9call_once17h9fe2b0a713e34cf7E(i64* %0) unnamed_addr #2 personality i32 (i32, i32, i64, %"unwind::libunwind::_Unwind_Exception"*, %"unwind::libunwind::_Unwind_Context"*)* @rust_eh_personality {
start:
  %1 = alloca { i8*, i32 }, align 8
  %_2 = alloca {}, align 1
  %_1 = alloca i64*, align 8
  store i64* %0, i64** %_1, align 8
; invoke std::rt::lang_start::{{closure}}
  %2 = invoke i32 @"_ZN3std2rt10lang_start28_$u7b$$u7b$closure$u7d$$u7d$17h54229c6c97078e41E"(i64** align 8 %_1)
          to label %bb1 unwind label %cleanup

bb3:                                              ; preds = %cleanup
  br label %bb4

cleanup:                                          ; preds = %start
  %3 = landingpad { i8*, i32 }
          cleanup
  %4 = extractvalue { i8*, i32 } %3, 0
  %5 = extractvalue { i8*, i32 } %3, 1
  %6 = getelementptr inbounds { i8*, i32 }, { i8*, i32 }* %1, i32 0, i32 0
  store i8* %4, i8** %6, align 8
  %7 = getelementptr inbounds { i8*, i32 }, { i8*, i32 }* %1, i32 0, i32 1
  store i32 %5, i32* %7, align 8
  br label %bb3

bb1:                                              ; preds = %start
  br label %bb2

bb4:                                              ; preds = %bb3
  %8 = bitcast { i8*, i32 }* %1 to i8**
  %9 = load i8*, i8** %8, align 8
  %10 = getelementptr inbounds { i8*, i32 }, { i8*, i32 }* %1, i32 0, i32 1
  %11 = load i32, i32* %10, align 8
  %12 = insertvalue { i8*, i32 } undef, i8* %9, 0
  %13 = insertvalue { i8*, i32 } %12, i32 %11, 1
  resume { i8*, i32 } %13

bb2:                                              ; preds = %bb1
  ret i32 %2
}

; core::ops::function::FnOnce::call_once
; Function Attrs: inlinehint nonlazybind uwtable
define internal void @_ZN4core3ops8function6FnOnce9call_once17he69936f2ac3430e3E(void ()* %_1) unnamed_addr #2 {
start:
  %_2 = alloca {}, align 1
  call void %_1()
  br label %bb1

bb1:                                              ; preds = %start
  ret void
}

; core::ptr::read
; Function Attrs: inlinehint nonlazybind uwtable
define internal i32 @_ZN4core3ptr4read17hc5230c8cad10658cE(i32* %src) unnamed_addr #2 {
start:
  %0 = alloca i32, align 4
  %tmp = alloca i32, align 4
  %1 = bitcast i32* %0 to {}*
  %2 = load i32, i32* %0, align 4
  store i32 %2, i32* %tmp, align 4
  br label %bb1

bb1:                                              ; preds = %start
  br label %bb2

bb2:                                              ; preds = %bb1
  %3 = bitcast i32* %tmp to i8*
  %4 = bitcast i32* %src to i8*
  call void @llvm.memcpy.p0i8.p0i8.i64(i8* align 4 %3, i8* align 4 %4, i64 4, i1 false)
  %_6 = load i32, i32* %tmp, align 4
  br label %bb3

bb3:                                              ; preds = %bb2
  ret i32 %_6
}

; core::ptr::write
; Function Attrs: inlinehint nonlazybind uwtable
define internal void @_ZN4core3ptr5write17h7358c475fce40257E(i32* %dst, i32 %0) unnamed_addr #2 {
start:
  %src = alloca i32, align 4
  store i32 %0, i32* %src, align 4
  %1 = bitcast i32* %dst to i8*
  %2 = bitcast i32* %src to i8*
  call void @llvm.memcpy.p0i8.p0i8.i64(i8* align 4 %1, i8* align 4 %2, i64 4, i1 false)
  ret void
}

; core::ptr::drop_in_place<std::rt::lang_start<()>::{{closure}}>
; Function Attrs: inlinehint nonlazybind uwtable
define internal void @"_ZN4core3ptr85drop_in_place$LT$std..rt..lang_start$LT$$LP$$RP$$GT$..$u7b$$u7b$closure$u7d$$u7d$$GT$17h0bc3a847afdc1bd4E"(i64** %_1) unnamed_addr #2 {
start:
  ret void
}

; core::hint::black_box
; Function Attrs: inlinehint nonlazybind uwtable
define internal void @_ZN4core4hint9black_box17h4055eed8e283f60eE() unnamed_addr #2 {
start:
  call void asm sideeffect "", "r,~{memory}"({}* undef), !srcloc !5
  br label %bb1

bb1:                                              ; preds = %start
  ret void
}

; core::iter::range::<impl core::iter::traits::iterator::Iterator for core::ops::range::Range<A>>::next
; Function Attrs: inlinehint nonlazybind uwtable
define internal { i32, i32 } @"_ZN4core4iter5range101_$LT$impl$u20$core..iter..traits..iterator..Iterator$u20$for$u20$core..ops..range..Range$LT$A$GT$$GT$4next17he46c0b51dac1a838E"({ i32, i32 }* align 4 %self) unnamed_addr #2 {
start:
; call <core::ops::range::Range<T> as core::iter::range::RangeIteratorImpl>::spec_next
  %0 = call { i32, i32 } @"_ZN89_$LT$core..ops..range..Range$LT$T$GT$$u20$as$u20$core..iter..range..RangeIteratorImpl$GT$9spec_next17hf5534b2641586deeE"({ i32, i32 }* align 4 %self)
  %1 = extractvalue { i32, i32 } %0, 0
  %2 = extractvalue { i32, i32 } %0, 1
  br label %bb1

bb1:                                              ; preds = %start
  %3 = insertvalue { i32, i32 } undef, i32 %1, 0
  %4 = insertvalue { i32, i32 } %3, i32 %2, 1
  ret { i32, i32 } %4
}

; core::clone::impls::<impl core::clone::Clone for i32>::clone
; Function Attrs: inlinehint nonlazybind uwtable
define internal i32 @"_ZN4core5clone5impls52_$LT$impl$u20$core..clone..Clone$u20$for$u20$i32$GT$5clone17h60bde07bdf05a56eE"(i32* align 4 %self) unnamed_addr #2 {
start:
  %0 = load i32, i32* %self, align 4
  ret i32 %0
}

; <() as std::process::Termination>::report
; Function Attrs: inlinehint nonlazybind uwtable
define internal i8 @"_ZN54_$LT$$LP$$RP$$u20$as$u20$std..process..Termination$GT$6report17hcdfebb59052d5393E"() unnamed_addr #2 {
start:
  ret i8 0
}

; <I as core::iter::traits::collect::IntoIterator>::into_iter
; Function Attrs: inlinehint nonlazybind uwtable
define internal { i32, i32 } @"_ZN63_$LT$I$u20$as$u20$core..iter..traits..collect..IntoIterator$GT$9into_iter17hddf89223dea49a01E"(i32 %self.0, i32 %self.1) unnamed_addr #2 {
start:
  %0 = insertvalue { i32, i32 } undef, i32 %self.0, 0
  %1 = insertvalue { i32, i32 } %0, i32 %self.1, 1
  ret { i32, i32 } %1
}

; <core::ops::range::Range<T> as core::iter::range::RangeIteratorImpl>::spec_next
; Function Attrs: inlinehint nonlazybind uwtable
define internal { i32, i32 } @"_ZN89_$LT$core..ops..range..Range$LT$T$GT$$u20$as$u20$core..iter..range..RangeIteratorImpl$GT$9spec_next17hf5534b2641586deeE"({ i32, i32 }* align 4 %self) unnamed_addr #2 {
start:
  %0 = alloca { i32, i32 }, align 4
  %_3 = bitcast { i32, i32 }* %self to i32*
  %_4 = getelementptr inbounds { i32, i32 }, { i32, i32 }* %self, i32 0, i32 1
; call core::cmp::impls::<impl core::cmp::PartialOrd for i32>::lt
  %_2 = call zeroext i1 @"_ZN4core3cmp5impls55_$LT$impl$u20$core..cmp..PartialOrd$u20$for$u20$i32$GT$2lt17h4cb8411aabf8412dE"(i32* align 4 %_3, i32* align 4 %_4)
  br label %bb1

bb1:                                              ; preds = %start
  br i1 %_2, label %bb2, label %bb6

bb6:                                              ; preds = %bb1
  %1 = bitcast { i32, i32 }* %0 to i32*
  store i32 0, i32* %1, align 4
  br label %bb7

bb2:                                              ; preds = %bb1
  %_7 = bitcast { i32, i32 }* %self to i32*
; call core::clone::impls::<impl core::clone::Clone for i32>::clone
  %_6 = call i32 @"_ZN4core5clone5impls52_$LT$impl$u20$core..clone..Clone$u20$for$u20$i32$GT$5clone17h60bde07bdf05a56eE"(i32* align 4 %_7)
  br label %bb3

bb3:                                              ; preds = %bb2
; call <i32 as core::iter::range::Step>::forward_unchecked
  %n = call i32 @"_ZN47_$LT$i32$u20$as$u20$core..iter..range..Step$GT$17forward_unchecked17h830b7038ca36f07bE"(i32 %_6, i64 1)
  br label %bb4

bb4:                                              ; preds = %bb3
  %_10 = bitcast { i32, i32 }* %self to i32*
; call core::mem::replace
  %_8 = call i32 @_ZN4core3mem7replace17h1c056ec161b7009bE(i32* align 4 %_10, i32 %n)
  br label %bb5

bb5:                                              ; preds = %bb4
  %2 = getelementptr inbounds { i32, i32 }, { i32, i32 }* %0, i32 0, i32 1
  store i32 %_8, i32* %2, align 4
  %3 = bitcast { i32, i32 }* %0 to i32*
  store i32 1, i32* %3, align 4
  br label %bb7

bb7:                                              ; preds = %bb6, %bb5
  %4 = getelementptr inbounds { i32, i32 }, { i32, i32 }* %0, i32 0, i32 0
  %5 = load i32, i32* %4, align 4, !range !6, !noundef !3
  %6 = getelementptr inbounds { i32, i32 }, { i32, i32 }* %0, i32 0, i32 1
  %7 = load i32, i32* %6, align 4
  %8 = insertvalue { i32, i32 } undef, i32 %5, 0
  %9 = insertvalue { i32, i32 } %8, i32 %7, 1
  ret { i32, i32 } %9
}

; main::main
; Function Attrs: nonlazybind uwtable
define internal void @_ZN4main4main17h33da4f3b554aea07E() unnamed_addr #1 {
start:
  %_5 = alloca { i32, i32 }, align 4
  %iter = alloca { i32, i32 }, align 4
  %_3 = alloca { i32, i32 }, align 4
  %j = alloca i32, align 4
  store i32 0, i32* %j, align 4
  %0 = bitcast { i32, i32 }* %_3 to i32*
  store i32 0, i32* %0, align 4
  %1 = getelementptr inbounds { i32, i32 }, { i32, i32 }* %_3, i32 0, i32 1
  store i32 10, i32* %1, align 4
  %2 = getelementptr inbounds { i32, i32 }, { i32, i32 }* %_3, i32 0, i32 0
  %3 = load i32, i32* %2, align 4
  %4 = getelementptr inbounds { i32, i32 }, { i32, i32 }* %_3, i32 0, i32 1
  %5 = load i32, i32* %4, align 4
; call <I as core::iter::traits::collect::IntoIterator>::into_iter
  %6 = call { i32, i32 } @"_ZN63_$LT$I$u20$as$u20$core..iter..traits..collect..IntoIterator$GT$9into_iter17hddf89223dea49a01E"(i32 %3, i32 %5)
  %_2.0 = extractvalue { i32, i32 } %6, 0
  %_2.1 = extractvalue { i32, i32 } %6, 1
  br label %bb1

bb1:                                              ; preds = %start
  %7 = getelementptr inbounds { i32, i32 }, { i32, i32 }* %iter, i32 0, i32 0
  store i32 %_2.0, i32* %7, align 4
  %8 = getelementptr inbounds { i32, i32 }, { i32, i32 }* %iter, i32 0, i32 1
  store i32 %_2.1, i32* %8, align 4
  br label %bb2

bb2:                                              ; preds = %bb10, %bb12, %bb1
; call core::iter::range::<impl core::iter::traits::iterator::Iterator for core::ops::range::Range<A>>::next
  %9 = call { i32, i32 } @"_ZN4core4iter5range101_$LT$impl$u20$core..iter..traits..iterator..Iterator$u20$for$u20$core..ops..range..Range$LT$A$GT$$GT$4next17he46c0b51dac1a838E"({ i32, i32 }* align 4 %iter)
  store { i32, i32 } %9, { i32, i32 }* %_5, align 4
  br label %bb3

bb3:                                              ; preds = %bb2
  %10 = bitcast { i32, i32 }* %_5 to i32*
  %11 = load i32, i32* %10, align 4, !range !6, !noundef !3
  %_8 = zext i32 %11 to i64
  switch i64 %_8, label %bb5 [
    i64 0, label %bb6
    i64 1, label %bb4
  ]

bb5:                                              ; preds = %bb3
  unreachable

bb6:                                              ; preds = %bb3
  ret void

bb4:                                              ; preds = %bb3
  %12 = getelementptr inbounds { i32, i32 }, { i32, i32 }* %_5, i32 0, i32 1
  %i = load i32, i32* %12, align 4
  %_10 = load i32, i32* %j, align 4
  %13 = call { i32, i1 } @llvm.sadd.with.overflow.i32(i32 %_10, i32 100)
  %_11.0 = extractvalue { i32, i1 } %13, 0
  %_11.1 = extractvalue { i32, i1 } %13, 1
  %14 = call i1 @llvm.expect.i1(i1 %_11.1, i1 false)
  br i1 %14, label %panic, label %bb7

bb7:                                              ; preds = %bb4
  store i32 %_11.0, i32* %j, align 4
  %_15 = icmp eq i32 %i, -2147483648
  %_16 = and i1 false, %_15
  %15 = call i1 @llvm.expect.i1(i1 %_16, i1 false)
  br i1 %15, label %panic1, label %bb8

panic:                                            ; preds = %bb4
; call core::panicking::panic
  call void @_ZN4core9panicking5panic17h2c88932fe82bb6e8E([0 x i8]* align 1 bitcast ([28 x i8]* @str.1 to [0 x i8]*), i64 28, %"core::panic::location::Location"* align 8 bitcast (<{ i8*, [16 x i8] }>* @alloc35 to %"core::panic::location::Location"*)) #8
  unreachable

bb8:                                              ; preds = %bb7
  %_12 = srem i32 %i, 2
  %16 = icmp eq i32 %_12, 0
  br i1 %16, label %bb9, label %bb11

panic1:                                           ; preds = %bb7
; call core::panicking::panic
  call void @_ZN4core9panicking5panic17h2c88932fe82bb6e8E([0 x i8]* align 1 bitcast ([48 x i8]* @str.2 to [0 x i8]*), i64 48, %"core::panic::location::Location"* align 8 bitcast (<{ i8*, [16 x i8] }>* @alloc37 to %"core::panic::location::Location"*)) #8
  unreachable

bb9:                                              ; preds = %bb8
  %_17 = load i32, i32* %j, align 4
  %17 = call { i32, i1 } @llvm.ssub.with.overflow.i32(i32 %_17, i32 1)
  %_18.0 = extractvalue { i32, i1 } %17, 0
  %_18.1 = extractvalue { i32, i1 } %17, 1
  %18 = call i1 @llvm.expect.i1(i1 %_18.1, i1 false)
  br i1 %18, label %panic3, label %bb10

bb11:                                             ; preds = %bb8
  %_19 = load i32, i32* %j, align 4
  %19 = call { i32, i1 } @llvm.sadd.with.overflow.i32(i32 %_19, i32 1)
  %_20.0 = extractvalue { i32, i1 } %19, 0
  %_20.1 = extractvalue { i32, i1 } %19, 1
  %20 = call i1 @llvm.expect.i1(i1 %_20.1, i1 false)
  br i1 %20, label %panic2, label %bb12

bb12:                                             ; preds = %bb11
  store i32 %_20.0, i32* %j, align 4
  br label %bb2

panic2:                                           ; preds = %bb11
; call core::panicking::panic
  call void @_ZN4core9panicking5panic17h2c88932fe82bb6e8E([0 x i8]* align 1 bitcast ([28 x i8]* @str.1 to [0 x i8]*), i64 28, %"core::panic::location::Location"* align 8 bitcast (<{ i8*, [16 x i8] }>* @alloc39 to %"core::panic::location::Location"*)) #8
  unreachable

bb10:                                             ; preds = %bb9
  store i32 %_18.0, i32* %j, align 4
  br label %bb2

panic3:                                           ; preds = %bb9
; call core::panicking::panic
  call void @_ZN4core9panicking5panic17h2c88932fe82bb6e8E([0 x i8]* align 1 bitcast ([33 x i8]* @str.3 to [0 x i8]*), i64 33, %"core::panic::location::Location"* align 8 bitcast (<{ i8*, [16 x i8] }>* @alloc41 to %"core::panic::location::Location"*)) #8
  unreachable
}

; Function Attrs: nonlazybind uwtable
declare i32 @rust_eh_personality(i32, i32, i64, %"unwind::libunwind::_Unwind_Exception"*, %"unwind::libunwind::_Unwind_Context"*) unnamed_addr #1

; std::rt::lang_start_internal
; Function Attrs: nonlazybind uwtable
declare i64 @_ZN3std2rt19lang_start_internal17h2c2e962c94282c61E({}* align 1, [3 x i64]* align 8, i64, i8**) unnamed_addr #1

; Function Attrs: argmemonly nofree nounwind willreturn
declare void @llvm.memcpy.p0i8.p0i8.i64(i8* noalias nocapture writeonly, i8* noalias nocapture readonly, i64, i1 immarg) #3

; Function Attrs: nofree nosync nounwind readnone speculatable willreturn
declare { i32, i1 } @llvm.sadd.with.overflow.i32(i32, i32) #4

; Function Attrs: nofree nosync nounwind readnone willreturn
declare i1 @llvm.expect.i1(i1, i1) #5

; core::panicking::panic
; Function Attrs: cold noinline noreturn nonlazybind uwtable
declare void @_ZN4core9panicking5panic17h2c88932fe82bb6e8E([0 x i8]* align 1, i64, %"core::panic::location::Location"* align 8) unnamed_addr #6

; Function Attrs: nofree nosync nounwind readnone speculatable willreturn
declare { i32, i1 } @llvm.ssub.with.overflow.i32(i32, i32) #4

; Function Attrs: nonlazybind
define i32 @main(i32 %0, i8** %1) unnamed_addr #7 {
top:
  %2 = sext i32 %0 to i64
; call std::rt::lang_start
  %3 = call i64 @_ZN3std2rt10lang_start17h5ef258fff94cb015E(void ()* @_ZN4main4main17h33da4f3b554aea07E, i64 %2, i8** %1)
  %4 = trunc i64 %3 to i32
  ret i32 %4
}

attributes #0 = { noinline nonlazybind uwtable "probe-stack"="__rust_probestack" "target-cpu"="x86-64" }
attributes #1 = { nonlazybind uwtable "probe-stack"="__rust_probestack" "target-cpu"="x86-64" }
attributes #2 = { inlinehint nonlazybind uwtable "probe-stack"="__rust_probestack" "target-cpu"="x86-64" }
attributes #3 = { argmemonly nofree nounwind willreturn }
attributes #4 = { nofree nosync nounwind readnone speculatable willreturn }
attributes #5 = { nofree nosync nounwind readnone willreturn }
attributes #6 = { cold noinline noreturn nonlazybind uwtable "probe-stack"="__rust_probestack" "target-cpu"="x86-64" }
attributes #7 = { nonlazybind "target-cpu"="x86-64" }
attributes #8 = { noreturn }

!llvm.module.flags = !{!0, !1, !2}

!0 = !{i32 7, !"PIC Level", i32 2}
!1 = !{i32 7, !"PIE Level", i32 2}
!2 = !{i32 2, !"RtLibUseGOT", i32 1}
!3 = !{}
!4 = !{i8 0, i8 2}
!5 = !{i32 3308079}
!6 = !{i32 0, i32 2}
